ARM GAS  /tmp/ccS4ekUs.s 			page 1


   1              		.cpu cortex-m4
   2              		.arch armv7e-m
   3              		.fpu fpv4-sp-d16
   4              		.eabi_attribute 27, 1
   5              		.eabi_attribute 28, 1
   6              		.eabi_attribute 20, 1
   7              		.eabi_attribute 21, 1
   8              		.eabi_attribute 23, 3
   9              		.eabi_attribute 24, 1
  10              		.eabi_attribute 25, 1
  11              		.eabi_attribute 26, 1
  12              		.eabi_attribute 30, 1
  13              		.eabi_attribute 34, 1
  14              		.eabi_attribute 18, 4
  15              		.file	"adc.c"
  16              		.text
  17              	.Ltext0:
  18              		.cfi_sections	.debug_frame
  19              		.file 1 "Core/Src/adc.c"
  20              		.section	.text.MX_ADC1_Init,"ax",%progbits
  21              		.align	1
  22              		.global	MX_ADC1_Init
  23              		.syntax unified
  24              		.thumb
  25              		.thumb_func
  27              	MX_ADC1_Init:
  28              	.LFB220:
   1:Core/Src/adc.c **** /* USER CODE BEGIN Header */
   2:Core/Src/adc.c **** /**
   3:Core/Src/adc.c ****   ******************************************************************************
   4:Core/Src/adc.c ****   * @file    adc.c
   5:Core/Src/adc.c ****   * @brief   This file provides code for the configuration
   6:Core/Src/adc.c ****   *          of the ADC instances.
   7:Core/Src/adc.c ****   ******************************************************************************
   8:Core/Src/adc.c ****   * @attention
   9:Core/Src/adc.c ****   *
  10:Core/Src/adc.c ****   * Copyright (c) 2026 STMicroelectronics.
  11:Core/Src/adc.c ****   * All rights reserved.
  12:Core/Src/adc.c ****   *
  13:Core/Src/adc.c ****   * This software is licensed under terms that can be found in the LICENSE file
  14:Core/Src/adc.c ****   * in the root directory of this software component.
  15:Core/Src/adc.c ****   * If no LICENSE file comes with this software, it is provided AS-IS.
  16:Core/Src/adc.c ****   *
  17:Core/Src/adc.c ****   ******************************************************************************
  18:Core/Src/adc.c ****   */
  19:Core/Src/adc.c **** /* USER CODE END Header */
  20:Core/Src/adc.c **** /* Includes ------------------------------------------------------------------*/
  21:Core/Src/adc.c **** #include "adc.h"
  22:Core/Src/adc.c **** 
  23:Core/Src/adc.c **** /* USER CODE BEGIN 0 */
  24:Core/Src/adc.c **** 
  25:Core/Src/adc.c **** /* USER CODE END 0 */
  26:Core/Src/adc.c **** 
  27:Core/Src/adc.c **** ADC_HandleTypeDef hadc1;
  28:Core/Src/adc.c **** 
  29:Core/Src/adc.c **** /* ADC1 init function */
  30:Core/Src/adc.c **** void MX_ADC1_Init(void)
ARM GAS  /tmp/ccS4ekUs.s 			page 2


  31:Core/Src/adc.c **** {
  29              		.loc 1 31 1 view -0
  30              		.cfi_startproc
  31              		@ args = 0, pretend = 0, frame = 16
  32              		@ frame_needed = 0, uses_anonymous_args = 0
  33 0000 00B5     		push	{lr}
  34              		.cfi_def_cfa_offset 4
  35              		.cfi_offset 14, -4
  36 0002 85B0     		sub	sp, sp, #20
  37              		.cfi_def_cfa_offset 24
  32:Core/Src/adc.c **** 
  33:Core/Src/adc.c ****   /* USER CODE BEGIN ADC1_Init 0 */
  34:Core/Src/adc.c **** 
  35:Core/Src/adc.c ****   /* USER CODE END ADC1_Init 0 */
  36:Core/Src/adc.c **** 
  37:Core/Src/adc.c ****   ADC_ChannelConfTypeDef sConfig = {0};
  38              		.loc 1 37 3 view .LVU1
  39              		.loc 1 37 26 is_stmt 0 view .LVU2
  40 0004 0023     		movs	r3, #0
  41 0006 0093     		str	r3, [sp]
  42 0008 0193     		str	r3, [sp, #4]
  43 000a 0293     		str	r3, [sp, #8]
  44 000c 0393     		str	r3, [sp, #12]
  38:Core/Src/adc.c **** 
  39:Core/Src/adc.c ****   /* USER CODE BEGIN ADC1_Init 1 */
  40:Core/Src/adc.c **** 
  41:Core/Src/adc.c ****   /* USER CODE END ADC1_Init 1 */
  42:Core/Src/adc.c **** 
  43:Core/Src/adc.c ****   /** Configure the global features of the ADC (Clock, Resolution, Data Alignment and number of con
  44:Core/Src/adc.c ****   */
  45:Core/Src/adc.c ****   hadc1.Instance = ADC1;
  45              		.loc 1 45 3 is_stmt 1 view .LVU3
  46              		.loc 1 45 18 is_stmt 0 view .LVU4
  47 000e 1748     		ldr	r0, .L7
  48 0010 174A     		ldr	r2, .L7+4
  49 0012 0260     		str	r2, [r0]
  46:Core/Src/adc.c ****   hadc1.Init.ClockPrescaler = ADC_CLOCK_SYNC_PCLK_DIV4;
  50              		.loc 1 46 3 is_stmt 1 view .LVU5
  51              		.loc 1 46 29 is_stmt 0 view .LVU6
  52 0014 4FF48032 		mov	r2, #65536
  53 0018 4260     		str	r2, [r0, #4]
  47:Core/Src/adc.c ****   hadc1.Init.Resolution = ADC_RESOLUTION_12B;
  54              		.loc 1 47 3 is_stmt 1 view .LVU7
  55              		.loc 1 47 25 is_stmt 0 view .LVU8
  56 001a 8360     		str	r3, [r0, #8]
  48:Core/Src/adc.c ****   hadc1.Init.ScanConvMode = DISABLE;
  57              		.loc 1 48 3 is_stmt 1 view .LVU9
  58              		.loc 1 48 27 is_stmt 0 view .LVU10
  59 001c 0361     		str	r3, [r0, #16]
  49:Core/Src/adc.c ****   hadc1.Init.ContinuousConvMode = DISABLE;
  60              		.loc 1 49 3 is_stmt 1 view .LVU11
  61              		.loc 1 49 33 is_stmt 0 view .LVU12
  62 001e 0376     		strb	r3, [r0, #24]
  50:Core/Src/adc.c ****   hadc1.Init.DiscontinuousConvMode = DISABLE;
  63              		.loc 1 50 3 is_stmt 1 view .LVU13
  64              		.loc 1 50 36 is_stmt 0 view .LVU14
  65 0020 80F82030 		strb	r3, [r0, #32]
ARM GAS  /tmp/ccS4ekUs.s 			page 3


  51:Core/Src/adc.c ****   hadc1.Init.ExternalTrigConvEdge = ADC_EXTERNALTRIGCONVEDGE_RISING;
  66              		.loc 1 51 3 is_stmt 1 view .LVU15
  67              		.loc 1 51 35 is_stmt 0 view .LVU16
  68 0024 4FF08052 		mov	r2, #268435456
  69 0028 C262     		str	r2, [r0, #44]
  52:Core/Src/adc.c ****   hadc1.Init.ExternalTrigConv = ADC_EXTERNALTRIGCONV_T3_TRGO;
  70              		.loc 1 52 3 is_stmt 1 view .LVU17
  71              		.loc 1 52 31 is_stmt 0 view .LVU18
  72 002a 4FF00062 		mov	r2, #134217728
  73 002e 8262     		str	r2, [r0, #40]
  53:Core/Src/adc.c ****   hadc1.Init.DataAlign = ADC_DATAALIGN_RIGHT;
  74              		.loc 1 53 3 is_stmt 1 view .LVU19
  75              		.loc 1 53 24 is_stmt 0 view .LVU20
  76 0030 C360     		str	r3, [r0, #12]
  54:Core/Src/adc.c ****   hadc1.Init.NbrOfConversion = 1;
  77              		.loc 1 54 3 is_stmt 1 view .LVU21
  78              		.loc 1 54 30 is_stmt 0 view .LVU22
  79 0032 0122     		movs	r2, #1
  80 0034 C261     		str	r2, [r0, #28]
  55:Core/Src/adc.c ****   hadc1.Init.DMAContinuousRequests = DISABLE;
  81              		.loc 1 55 3 is_stmt 1 view .LVU23
  82              		.loc 1 55 36 is_stmt 0 view .LVU24
  83 0036 80F83030 		strb	r3, [r0, #48]
  56:Core/Src/adc.c ****   hadc1.Init.EOCSelection = ADC_EOC_SEQ_CONV;
  84              		.loc 1 56 3 is_stmt 1 view .LVU25
  85              		.loc 1 56 27 is_stmt 0 view .LVU26
  86 003a 4361     		str	r3, [r0, #20]
  57:Core/Src/adc.c ****   if (HAL_ADC_Init(&hadc1) != HAL_OK)
  87              		.loc 1 57 3 is_stmt 1 view .LVU27
  88              		.loc 1 57 7 is_stmt 0 view .LVU28
  89 003c FFF7FEFF 		bl	HAL_ADC_Init
  90              	.LVL0:
  91              		.loc 1 57 6 view .LVU29
  92 0040 68B9     		cbnz	r0, .L5
  93              	.L2:
  58:Core/Src/adc.c ****   {
  59:Core/Src/adc.c ****     Error_Handler();
  60:Core/Src/adc.c ****   }
  61:Core/Src/adc.c **** 
  62:Core/Src/adc.c ****   /** Configure for the selected ADC regular channel its corresponding rank in the sequencer and it
  63:Core/Src/adc.c ****   */
  64:Core/Src/adc.c ****   sConfig.Channel = ADC_CHANNEL_TEMPSENSOR;
  94              		.loc 1 64 3 is_stmt 1 view .LVU30
  95              		.loc 1 64 19 is_stmt 0 view .LVU31
  96 0042 0C4B     		ldr	r3, .L7+8
  97 0044 0093     		str	r3, [sp]
  65:Core/Src/adc.c ****   sConfig.Rank = 1;
  98              		.loc 1 65 3 is_stmt 1 view .LVU32
  99              		.loc 1 65 16 is_stmt 0 view .LVU33
 100 0046 0123     		movs	r3, #1
 101 0048 0193     		str	r3, [sp, #4]
  66:Core/Src/adc.c ****   sConfig.SamplingTime = ADC_SAMPLETIME_3CYCLES;
 102              		.loc 1 66 3 is_stmt 1 view .LVU34
 103              		.loc 1 66 24 is_stmt 0 view .LVU35
 104 004a 0023     		movs	r3, #0
 105 004c 0293     		str	r3, [sp, #8]
  67:Core/Src/adc.c ****   if (HAL_ADC_ConfigChannel(&hadc1, &sConfig) != HAL_OK)
ARM GAS  /tmp/ccS4ekUs.s 			page 4


 106              		.loc 1 67 3 is_stmt 1 view .LVU36
 107              		.loc 1 67 7 is_stmt 0 view .LVU37
 108 004e 6946     		mov	r1, sp
 109 0050 0648     		ldr	r0, .L7
 110 0052 FFF7FEFF 		bl	HAL_ADC_ConfigChannel
 111              	.LVL1:
 112              		.loc 1 67 6 view .LVU38
 113 0056 28B9     		cbnz	r0, .L6
 114              	.L1:
  68:Core/Src/adc.c ****   {
  69:Core/Src/adc.c ****     Error_Handler();
  70:Core/Src/adc.c ****   }
  71:Core/Src/adc.c ****   /* USER CODE BEGIN ADC1_Init 2 */
  72:Core/Src/adc.c **** 
  73:Core/Src/adc.c ****   /* USER CODE END ADC1_Init 2 */
  74:Core/Src/adc.c **** 
  75:Core/Src/adc.c **** }
 115              		.loc 1 75 1 view .LVU39
 116 0058 05B0     		add	sp, sp, #20
 117              		.cfi_remember_state
 118              		.cfi_def_cfa_offset 4
 119              		@ sp needed
 120 005a 5DF804FB 		ldr	pc, [sp], #4
 121              	.L5:
 122              		.cfi_restore_state
  59:Core/Src/adc.c ****   }
 123              		.loc 1 59 5 is_stmt 1 view .LVU40
 124 005e FFF7FEFF 		bl	Error_Handler
 125              	.LVL2:
 126 0062 EEE7     		b	.L2
 127              	.L6:
  69:Core/Src/adc.c ****   }
 128              		.loc 1 69 5 view .LVU41
 129 0064 FFF7FEFF 		bl	Error_Handler
 130              	.LVL3:
 131              		.loc 1 75 1 is_stmt 0 view .LVU42
 132 0068 F6E7     		b	.L1
 133              	.L8:
 134 006a 00BF     		.align	2
 135              	.L7:
 136 006c 00000000 		.word	hadc1
 137 0070 00200140 		.word	1073815552
 138 0074 12000010 		.word	268435474
 139              		.cfi_endproc
 140              	.LFE220:
 142              		.section	.text.HAL_ADC_MspInit,"ax",%progbits
 143              		.align	1
 144              		.global	HAL_ADC_MspInit
 145              		.syntax unified
 146              		.thumb
 147              		.thumb_func
 149              	HAL_ADC_MspInit:
 150              	.LVL4:
 151              	.LFB221:
  76:Core/Src/adc.c **** 
  77:Core/Src/adc.c **** void HAL_ADC_MspInit(ADC_HandleTypeDef* adcHandle)
  78:Core/Src/adc.c **** {
ARM GAS  /tmp/ccS4ekUs.s 			page 5


 152              		.loc 1 78 1 is_stmt 1 view -0
 153              		.cfi_startproc
 154              		@ args = 0, pretend = 0, frame = 8
 155              		@ frame_needed = 0, uses_anonymous_args = 0
  79:Core/Src/adc.c **** 
  80:Core/Src/adc.c ****   if(adcHandle->Instance==ADC1)
 156              		.loc 1 80 3 view .LVU44
 157              		.loc 1 80 15 is_stmt 0 view .LVU45
 158 0000 0268     		ldr	r2, [r0]
 159              		.loc 1 80 5 view .LVU46
 160 0002 0E4B     		ldr	r3, .L16
 161 0004 9A42     		cmp	r2, r3
 162 0006 00D0     		beq	.L15
 163 0008 7047     		bx	lr
 164              	.L15:
  78:Core/Src/adc.c **** 
 165              		.loc 1 78 1 view .LVU47
 166 000a 00B5     		push	{lr}
 167              		.cfi_def_cfa_offset 4
 168              		.cfi_offset 14, -4
 169 000c 83B0     		sub	sp, sp, #12
 170              		.cfi_def_cfa_offset 16
  81:Core/Src/adc.c ****   {
  82:Core/Src/adc.c ****   /* USER CODE BEGIN ADC1_MspInit 0 */
  83:Core/Src/adc.c **** 
  84:Core/Src/adc.c ****   /* USER CODE END ADC1_MspInit 0 */
  85:Core/Src/adc.c ****     /* ADC1 clock enable */
  86:Core/Src/adc.c ****     __HAL_RCC_ADC1_CLK_ENABLE();
 171              		.loc 1 86 5 is_stmt 1 view .LVU48
 172              	.LBB2:
 173              		.loc 1 86 5 view .LVU49
 174 000e 0022     		movs	r2, #0
 175 0010 0192     		str	r2, [sp, #4]
 176              		.loc 1 86 5 view .LVU50
 177 0012 03F58C33 		add	r3, r3, #71680
 178 0016 596C     		ldr	r1, [r3, #68]
 179 0018 41F48071 		orr	r1, r1, #256
 180 001c 5964     		str	r1, [r3, #68]
 181              		.loc 1 86 5 view .LVU51
 182 001e 5B6C     		ldr	r3, [r3, #68]
 183 0020 03F48073 		and	r3, r3, #256
 184 0024 0193     		str	r3, [sp, #4]
 185              		.loc 1 86 5 view .LVU52
 186 0026 019B     		ldr	r3, [sp, #4]
 187              	.LBE2:
 188              		.loc 1 86 5 view .LVU53
  87:Core/Src/adc.c **** 
  88:Core/Src/adc.c ****     /* ADC1 interrupt Init */
  89:Core/Src/adc.c ****     HAL_NVIC_SetPriority(ADC_IRQn, 5, 0);
 189              		.loc 1 89 5 view .LVU54
 190 0028 0521     		movs	r1, #5
 191 002a 1220     		movs	r0, #18
 192              	.LVL5:
 193              		.loc 1 89 5 is_stmt 0 view .LVU55
 194 002c FFF7FEFF 		bl	HAL_NVIC_SetPriority
 195              	.LVL6:
  90:Core/Src/adc.c ****     HAL_NVIC_EnableIRQ(ADC_IRQn);
ARM GAS  /tmp/ccS4ekUs.s 			page 6


 196              		.loc 1 90 5 is_stmt 1 view .LVU56
 197 0030 1220     		movs	r0, #18
 198 0032 FFF7FEFF 		bl	HAL_NVIC_EnableIRQ
 199              	.LVL7:
  91:Core/Src/adc.c ****   /* USER CODE BEGIN ADC1_MspInit 1 */
  92:Core/Src/adc.c **** 
  93:Core/Src/adc.c ****   /* USER CODE END ADC1_MspInit 1 */
  94:Core/Src/adc.c ****   }
  95:Core/Src/adc.c **** }
 200              		.loc 1 95 1 is_stmt 0 view .LVU57
 201 0036 03B0     		add	sp, sp, #12
 202              		.cfi_def_cfa_offset 4
 203              		@ sp needed
 204 0038 5DF804FB 		ldr	pc, [sp], #4
 205              	.L17:
 206              		.align	2
 207              	.L16:
 208 003c 00200140 		.word	1073815552
 209              		.cfi_endproc
 210              	.LFE221:
 212              		.section	.text.HAL_ADC_MspDeInit,"ax",%progbits
 213              		.align	1
 214              		.global	HAL_ADC_MspDeInit
 215              		.syntax unified
 216              		.thumb
 217              		.thumb_func
 219              	HAL_ADC_MspDeInit:
 220              	.LVL8:
 221              	.LFB222:
  96:Core/Src/adc.c **** 
  97:Core/Src/adc.c **** void HAL_ADC_MspDeInit(ADC_HandleTypeDef* adcHandle)
  98:Core/Src/adc.c **** {
 222              		.loc 1 98 1 is_stmt 1 view -0
 223              		.cfi_startproc
 224              		@ args = 0, pretend = 0, frame = 0
 225              		@ frame_needed = 0, uses_anonymous_args = 0
 226              		.loc 1 98 1 is_stmt 0 view .LVU59
 227 0000 08B5     		push	{r3, lr}
 228              		.cfi_def_cfa_offset 8
 229              		.cfi_offset 3, -8
 230              		.cfi_offset 14, -4
  99:Core/Src/adc.c **** 
 100:Core/Src/adc.c ****   if(adcHandle->Instance==ADC1)
 231              		.loc 1 100 3 is_stmt 1 view .LVU60
 232              		.loc 1 100 15 is_stmt 0 view .LVU61
 233 0002 0268     		ldr	r2, [r0]
 234              		.loc 1 100 5 view .LVU62
 235 0004 064B     		ldr	r3, .L22
 236 0006 9A42     		cmp	r2, r3
 237 0008 00D0     		beq	.L21
 238              	.LVL9:
 239              	.L18:
 101:Core/Src/adc.c ****   {
 102:Core/Src/adc.c ****   /* USER CODE BEGIN ADC1_MspDeInit 0 */
 103:Core/Src/adc.c **** 
 104:Core/Src/adc.c ****   /* USER CODE END ADC1_MspDeInit 0 */
 105:Core/Src/adc.c ****     /* Peripheral clock disable */
ARM GAS  /tmp/ccS4ekUs.s 			page 7


 106:Core/Src/adc.c ****     __HAL_RCC_ADC1_CLK_DISABLE();
 107:Core/Src/adc.c **** 
 108:Core/Src/adc.c ****     /* ADC1 interrupt Deinit */
 109:Core/Src/adc.c ****     HAL_NVIC_DisableIRQ(ADC_IRQn);
 110:Core/Src/adc.c ****   /* USER CODE BEGIN ADC1_MspDeInit 1 */
 111:Core/Src/adc.c **** 
 112:Core/Src/adc.c ****   /* USER CODE END ADC1_MspDeInit 1 */
 113:Core/Src/adc.c ****   }
 114:Core/Src/adc.c **** }
 240              		.loc 1 114 1 view .LVU63
 241 000a 08BD     		pop	{r3, pc}
 242              	.LVL10:
 243              	.L21:
 106:Core/Src/adc.c **** 
 244              		.loc 1 106 5 is_stmt 1 view .LVU64
 245 000c 054A     		ldr	r2, .L22+4
 246 000e 536C     		ldr	r3, [r2, #68]
 247 0010 23F48073 		bic	r3, r3, #256
 248 0014 5364     		str	r3, [r2, #68]
 109:Core/Src/adc.c ****   /* USER CODE BEGIN ADC1_MspDeInit 1 */
 249              		.loc 1 109 5 view .LVU65
 250 0016 1220     		movs	r0, #18
 251              	.LVL11:
 109:Core/Src/adc.c ****   /* USER CODE BEGIN ADC1_MspDeInit 1 */
 252              		.loc 1 109 5 is_stmt 0 view .LVU66
 253 0018 FFF7FEFF 		bl	HAL_NVIC_DisableIRQ
 254              	.LVL12:
 255              		.loc 1 114 1 view .LVU67
 256 001c F5E7     		b	.L18
 257              	.L23:
 258 001e 00BF     		.align	2
 259              	.L22:
 260 0020 00200140 		.word	1073815552
 261 0024 00380240 		.word	1073887232
 262              		.cfi_endproc
 263              	.LFE222:
 265              		.global	hadc1
 266              		.section	.bss.hadc1,"aw",%nobits
 267              		.align	2
 270              	hadc1:
 271 0000 00000000 		.space	72
 271      00000000 
 271      00000000 
 271      00000000 
 271      00000000 
 272              		.text
 273              	.Letext0:
 274              		.file 2 "Drivers/CMSIS/Device/ST/STM32F4xx/Include/stm32f411xe.h"
 275              		.file 3 "/usr/lib/gcc/arm-none-eabi/12.2.1/include/stdint.h"
 276              		.file 4 "Drivers/CMSIS/Device/ST/STM32F4xx/Include/stm32f4xx.h"
 277              		.file 5 "Drivers/STM32F4xx_HAL_Driver/Inc/stm32f4xx_hal_def.h"
 278              		.file 6 "Drivers/STM32F4xx_HAL_Driver/Inc/stm32f4xx_hal_dma.h"
 279              		.file 7 "Drivers/STM32F4xx_HAL_Driver/Inc/stm32f4xx_hal_adc.h"
 280              		.file 8 "Drivers/STM32F4xx_HAL_Driver/Inc/stm32f4xx_hal_cortex.h"
 281              		.file 9 "Core/Inc/adc.h"
 282              		.file 10 "Core/Inc/main.h"
ARM GAS  /tmp/ccS4ekUs.s 			page 8

