
build/debug/ECU-Sim.elf:     file format elf32-littlearm

Sections:
Idx Name          Size      VMA       LMA       File off  Algn
  0 .privileged_functions 00003450  08000000  08000000  00001000  2**4
                  CONTENTS, ALLOC, LOAD, READONLY, CODE
  1 .text         000029f0  08003450  08003450  00004450  2**4
                  CONTENTS, ALLOC, LOAD, READONLY, CODE
  2 .rodata       00000060  08005e40  08005e40  00006e40  2**2
                  CONTENTS, ALLOC, LOAD, READONLY, DATA
  3 .ARM.extab    00000000  08005ea0  08005ea0  000071fc  2**0
                  CONTENTS
  4 .ARM          00000008  08005ea0  08005ea0  00006ea0  2**2
                  CONTENTS, ALLOC, LOAD, READONLY, DATA
  5 .preinit_array 00000000  08005ea8  08005ea8  000071fc  2**0
                  CONTENTS, ALLOC, LOAD, DATA
  6 .init_array   00000004  08005ea8  08005ea8  00006ea8  2**2
                  CONTENTS, ALLOC, LOAD, READONLY, DATA
  7 .fini_array   00000004  08005eac  08005eac  00006eac  2**2
                  CONTENTS, ALLOC, LOAD, READONLY, DATA
  8 .privileged_data 0000016c  20000000  08005eb0  00007000  2**2
                  CONTENTS, ALLOC, LOAD, DATA
  9 .data         00000090  2000016c  0800601c  0000716c  2**2
                  CONTENTS, ALLOC, LOAD, DATA
 10 .bss          000014e4  20000400  080060ac  00007400  2**10
                  ALLOC
 11 .ipc_region   00000000  2001f000  2001f000  000071fc  2**0
                  CONTENTS
 12 ._user_heap_stack 00000604  200018e4  200018e4  000078e4  2**0
                  ALLOC
 13 .ARM.attributes 00000030  00000000  00000000  000071fc  2**0
                  CONTENTS, READONLY
 14 .comment      00000026  00000000  00000000  0000722c  2**0
                  CONTENTS, READONLY
 15 .debug_info   00020d89  00000000  00000000  00007252  2**0
                  CONTENTS, READONLY, DEBUGGING, OCTETS
 16 .debug_abbrev 000049bf  00000000  00000000  00027fdb  2**0
                  CONTENTS, READONLY, DEBUGGING, OCTETS
 17 .debug_loclists 0000e96f  00000000  00000000  0002c99a  2**0
                  CONTENTS, READONLY, DEBUGGING, OCTETS
 18 .debug_aranges 00001720  00000000  00000000  0003b310  2**3
                  CONTENTS, READONLY, DEBUGGING, OCTETS
 19 .debug_rnglists 00001242  00000000  00000000  0003ca30  2**0
                  CONTENTS, READONLY, DEBUGGING, OCTETS
 20 .debug_line   00017f27  00000000  00000000  0003dc72  2**0
                  CONTENTS, READONLY, DEBUGGING, OCTETS
 21 .debug_str    00007326  00000000  00000000  00055b99  2**0
                  CONTENTS, READONLY, DEBUGGING, OCTETS
 22 .debug_frame  00003ef8  00000000  00000000  0005cec0  2**2
                  CONTENTS, READONLY, DEBUGGING, OCTETS
 23 .debug_line_str 0000017d  00000000  00000000  00060db8  2**0
                  CONTENTS, READONLY, DEBUGGING, OCTETS

Disassembly of section .privileged_functions:

08000000 <g_pfnVectors>:
 8000000:	00 00 02 20 d5 5d 00 08 b1 5b 00 08 b3 5b 00 08     ... .]...[...[..
 8000010:	b5 5b 00 08 dd 5b 00 08 df 5b 00 08 00 00 00 00     .[...[...[......
	...
 800002c:	b3 08 00 08 e1 5b 00 08 00 00 00 00 f1 07 00 08     .....[..........
 800003c:	85 08 00 08 25 5e 00 08 25 5e 00 08 25 5e 00 08     ....%^..%^..%^..
 800004c:	25 5e 00 08 25 5e 00 08 25 5e 00 08 25 5e 00 08     %^..%^..%^..%^..
 800005c:	25 5e 00 08 25 5e 00 08 25 5e 00 08 25 5e 00 08     %^..%^..%^..%^..
 800006c:	25 5e 00 08 25 5e 00 08 25 5e 00 08 25 5e 00 08     %^..%^..%^..%^..
 800007c:	25 5e 00 08 25 5e 00 08 25 5e 00 08 e5 5b 00 08     %^..%^..%^...[..
	...
 800009c:	25 5e 00 08 25 5e 00 08 f5 5b 00 08 25 5e 00 08     %^..%^...[..%^..
 80000ac:	25 5e 00 08 25 5e 00 08 25 5e 00 08 25 5e 00 08     %^..%^..%^..%^..
 80000bc:	25 5e 00 08 25 5e 00 08 25 5e 00 08 25 5e 00 08     %^..%^..%^..%^..
 80000cc:	25 5e 00 08 25 5e 00 08 25 5e 00 08 25 5e 00 08     %^..%^..%^..%^..
 80000dc:	00 00 00 00 25 5e 00 08 25 5e 00 08 25 5e 00 08     ....%^..%^..%^..
	...
 80000fc:	25 5e 00 08 00 00 00 00 25 5e 00 08 25 5e 00 08     %^......%^..%^..
 800010c:	25 5e 00 08 00 00 00 00 00 00 00 00 00 00 00 00     %^..............
 800011c:	00 00 00 00 25 5e 00 08 25 5e 00 08 25 5e 00 08     ....%^..%^..%^..
 800012c:	25 5e 00 08 25 5e 00 08 00 00 00 00 00 00 00 00     %^..%^..........
	...
 800014c:	25 5e 00 08 25 5e 00 08 25 5e 00 08 25 5e 00 08     %^..%^..%^..%^..
 800015c:	25 5e 00 08 25 5e 00 08 25 5e 00 08 00 00 00 00     %^..%^..%^......
	...
 8000184:	25 5e 00 08 00 00 00 00 00 00 00 00 25 5e 00 08     %^..........%^..
 8000194:	25 5e 00 08                                         %^..

08000198 <prvTestWaitCondition>:

static BaseType_t prvTestWaitCondition( const EventBits_t uxCurrentEventBits, const EventBits_t uxBitsToWaitFor, const BaseType_t xWaitForAllBits )
{
BaseType_t xWaitConditionMet = pdFALSE;

	if( xWaitForAllBits == pdFALSE )
 8000198:	b91a      	cbnz	r2, 80001a2 <prvTestWaitCondition+0xa>
	{
		/* Task only has to wait for one bit within uxBitsToWaitFor to be
		set.  Is one already set? */
		if( ( uxCurrentEventBits & uxBitsToWaitFor ) != ( EventBits_t ) 0 )
 800019a:	4208      	tst	r0, r1
 800019c:	d105      	bne.n	80001aa <prvTestWaitCondition+0x12>
BaseType_t xWaitConditionMet = pdFALSE;
 800019e:	4610      	mov	r0, r2
 80001a0:	4770      	bx	lr
	}
	else
	{
		/* Task has to wait for all the bits in uxBitsToWaitFor to be set.
		Are they set already? */
		if( ( uxCurrentEventBits & uxBitsToWaitFor ) == uxBitsToWaitFor )
 80001a2:	4381      	bics	r1, r0
 80001a4:	d003      	beq.n	80001ae <prvTestWaitCondition+0x16>
BaseType_t xWaitConditionMet = pdFALSE;
 80001a6:	2000      	movs	r0, #0
 80001a8:	4770      	bx	lr
			xWaitConditionMet = pdTRUE;
 80001aa:	2001      	movs	r0, #1
 80001ac:	4770      	bx	lr
		{
			xWaitConditionMet = pdTRUE;
 80001ae:	2001      	movs	r0, #1
			mtCOVERAGE_TEST_MARKER();
		}
	}

	return xWaitConditionMet;
}
 80001b0:	4770      	bx	lr

080001b2 <xEventGroupCreateStatic>:
		configASSERT( pxEventGroupBuffer );
 80001b2:	b180      	cbz	r0, 80001d6 <xEventGroupCreateStatic+0x24>
	{
 80001b4:	b510      	push	{r4, lr}
 80001b6:	b082      	sub	sp, #8
 80001b8:	4604      	mov	r4, r0
			volatile size_t xSize = sizeof( StaticEventGroup_t );
 80001ba:	2318      	movs	r3, #24
 80001bc:	9301      	str	r3, [sp, #4]
			configASSERT( xSize == sizeof( EventGroup_t ) );
 80001be:	9b01      	ldr	r3, [sp, #4]
 80001c0:	2b18      	cmp	r3, #24
 80001c2:	d011      	beq.n	80001e8 <xEventGroupCreateStatic+0x36>

portFORCE_INLINE static void vPortRaiseBASEPRI( void )
{
uint32_t ulNewBASEPRI;

	__asm volatile
 80001c4:	f04f 0350 	mov.w	r3, #80	@ 0x50
 80001c8:	f383 8811 	msr	BASEPRI, r3
 80001cc:	f3bf 8f6f 	isb	sy
 80001d0:	f3bf 8f4f 	dsb	sy
 80001d4:	e7fe      	b.n	80001d4 <xEventGroupCreateStatic+0x22>
 80001d6:	f04f 0350 	mov.w	r3, #80	@ 0x50
 80001da:	f383 8811 	msr	BASEPRI, r3
 80001de:	f3bf 8f6f 	isb	sy
 80001e2:	f3bf 8f4f 	dsb	sy
		configASSERT( pxEventGroupBuffer );
 80001e6:	e7fe      	b.n	80001e6 <xEventGroupCreateStatic+0x34>
			pxEventBits->uxEventBits = 0;
 80001e8:	2300      	movs	r3, #0
 80001ea:	f840 3b04 	str.w	r3, [r0], #4
			vListInitialise( &( pxEventBits->xTasksWaitingForBits ) );
 80001ee:	f004 f877 	bl	80042e0 <vListInitialise>
	}
 80001f2:	4620      	mov	r0, r4
 80001f4:	b002      	add	sp, #8
 80001f6:	bd10      	pop	{r4, pc}

080001f8 <xEventGroupWaitBits>:
	configASSERT( xEventGroup );
 80001f8:	b188      	cbz	r0, 800021e <xEventGroupWaitBits+0x26>
{
 80001fa:	e92d 41f0 	stmdb	sp!, {r4, r5, r6, r7, r8, lr}
 80001fe:	460c      	mov	r4, r1
 8000200:	4616      	mov	r6, r2
 8000202:	461d      	mov	r5, r3
 8000204:	4607      	mov	r7, r0
	configASSERT( ( uxBitsToWaitFor & eventEVENT_BITS_CONTROL_BYTES ) == 0 );
 8000206:	f1b1 7f80 	cmp.w	r1, #16777216	@ 0x1000000
 800020a:	d311      	bcc.n	8000230 <xEventGroupWaitBits+0x38>
 800020c:	f04f 0350 	mov.w	r3, #80	@ 0x50
 8000210:	f383 8811 	msr	BASEPRI, r3
 8000214:	f3bf 8f6f 	isb	sy
 8000218:	f3bf 8f4f 	dsb	sy
 800021c:	e7fe      	b.n	800021c <xEventGroupWaitBits+0x24>
 800021e:	f04f 0350 	mov.w	r3, #80	@ 0x50
 8000222:	f383 8811 	msr	BASEPRI, r3
 8000226:	f3bf 8f6f 	isb	sy
 800022a:	f3bf 8f4f 	dsb	sy
	configASSERT( xEventGroup );
 800022e:	e7fe      	b.n	800022e <xEventGroupWaitBits+0x36>
	configASSERT( uxBitsToWaitFor != 0 );
 8000230:	b941      	cbnz	r1, 8000244 <xEventGroupWaitBits+0x4c>
 8000232:	f04f 0350 	mov.w	r3, #80	@ 0x50
 8000236:	f383 8811 	msr	BASEPRI, r3
 800023a:	f3bf 8f6f 	isb	sy
 800023e:	f3bf 8f4f 	dsb	sy
 8000242:	e7fe      	b.n	8000242 <xEventGroupWaitBits+0x4a>
		configASSERT( !( ( xTaskGetSchedulerState() == taskSCHEDULER_SUSPENDED ) && ( xTicksToWait != 0 ) ) );
 8000244:	f002 ff72 	bl	800312c <xTaskGetSchedulerState>
 8000248:	b950      	cbnz	r0, 8000260 <xEventGroupWaitBits+0x68>
 800024a:	9b06      	ldr	r3, [sp, #24]
 800024c:	b143      	cbz	r3, 8000260 <xEventGroupWaitBits+0x68>
 800024e:	f04f 0350 	mov.w	r3, #80	@ 0x50
 8000252:	f383 8811 	msr	BASEPRI, r3
 8000256:	f3bf 8f6f 	isb	sy
 800025a:	f3bf 8f4f 	dsb	sy
 800025e:	e7fe      	b.n	800025e <xEventGroupWaitBits+0x66>
	vTaskSuspendAll();
 8000260:	f002 f9d0 	bl	8002604 <vTaskSuspendAll>
		const EventBits_t uxCurrentEventBits = pxEventBits->uxEventBits;
 8000264:	f8d7 8000 	ldr.w	r8, [r7]
		xWaitConditionMet = prvTestWaitCondition( uxCurrentEventBits, uxBitsToWaitFor, xWaitForAllBits );
 8000268:	462a      	mov	r2, r5
 800026a:	4621      	mov	r1, r4
 800026c:	4640      	mov	r0, r8
 800026e:	f7ff ff93 	bl	8000198 <prvTestWaitCondition>
		if( xWaitConditionMet != pdFALSE )
 8000272:	b1f8      	cbz	r0, 80002b4 <xEventGroupWaitBits+0xbc>
			if( xClearOnExit != pdFALSE )
 8000274:	b38e      	cbz	r6, 80002da <xEventGroupWaitBits+0xe2>
				pxEventBits->uxEventBits &= ~uxBitsToWaitFor;
 8000276:	ea28 0304 	bic.w	r3, r8, r4
 800027a:	603b      	str	r3, [r7, #0]
			xTicksToWait = ( TickType_t ) 0;
 800027c:	2300      	movs	r3, #0
 800027e:	9306      	str	r3, [sp, #24]
	xAlreadyYielded = xTaskResumeAll();
 8000280:	f002 fcb6 	bl	8002bf0 <xTaskResumeAll>
	if( xTicksToWait != ( TickType_t ) 0 )
 8000284:	9b06      	ldr	r3, [sp, #24]
 8000286:	b193      	cbz	r3, 80002ae <xEventGroupWaitBits+0xb6>
		if( xAlreadyYielded == pdFALSE )
 8000288:	b948      	cbnz	r0, 800029e <xEventGroupWaitBits+0xa6>
			portYIELD_WITHIN_API();
 800028a:	f04f 23e0 	mov.w	r3, #3758153728	@ 0xe000e000
 800028e:	f04f 5280 	mov.w	r2, #268435456	@ 0x10000000
 8000292:	f8c3 2d04 	str.w	r2, [r3, #3332]	@ 0xd04
 8000296:	f3bf 8f4f 	dsb	sy
 800029a:	f3bf 8f6f 	isb	sy
		uxReturn = uxTaskResetEventItemValue();
 800029e:	f002 ff2d 	bl	80030fc <uxTaskResetEventItemValue>
 80002a2:	4680      	mov	r8, r0
		if( ( uxReturn & eventUNBLOCKED_DUE_TO_BIT_SET ) == ( EventBits_t ) 0 )
 80002a4:	f010 7f00 	tst.w	r0, #33554432	@ 0x2000000
 80002a8:	d01a      	beq.n	80002e0 <xEventGroupWaitBits+0xe8>
		uxReturn &= ~eventEVENT_BITS_CONTROL_BYTES;
 80002aa:	f028 487f 	bic.w	r8, r8, #4278190080	@ 0xff000000
}
 80002ae:	4640      	mov	r0, r8
 80002b0:	e8bd 81f0 	ldmia.w	sp!, {r4, r5, r6, r7, r8, pc}
		else if( xTicksToWait == ( TickType_t ) 0 )
 80002b4:	9b06      	ldr	r3, [sp, #24]
 80002b6:	2b00      	cmp	r3, #0
 80002b8:	d0e2      	beq.n	8000280 <xEventGroupWaitBits+0x88>
			if( xClearOnExit != pdFALSE )
 80002ba:	b95e      	cbnz	r6, 80002d4 <xEventGroupWaitBits+0xdc>
EventBits_t uxReturn, uxControlBits = 0;
 80002bc:	2100      	movs	r1, #0
			if( xWaitForAllBits != pdFALSE )
 80002be:	b10d      	cbz	r5, 80002c4 <xEventGroupWaitBits+0xcc>
				uxControlBits |= eventWAIT_FOR_ALL_BITS;
 80002c0:	f041 6180 	orr.w	r1, r1, #67108864	@ 0x4000000
			vTaskPlaceOnUnorderedEventList( &( pxEventBits->xTasksWaitingForBits ), ( uxBitsToWaitFor | uxControlBits ), xTicksToWait );
 80002c4:	9a06      	ldr	r2, [sp, #24]
 80002c6:	4321      	orrs	r1, r4
 80002c8:	1d38      	adds	r0, r7, #4
 80002ca:	f002 fd9d 	bl	8002e08 <vTaskPlaceOnUnorderedEventList>
			uxReturn = 0;
 80002ce:	f04f 0800 	mov.w	r8, #0
 80002d2:	e7d5      	b.n	8000280 <xEventGroupWaitBits+0x88>
				uxControlBits |= eventCLEAR_EVENTS_ON_EXIT_BIT;
 80002d4:	f04f 7180 	mov.w	r1, #16777216	@ 0x1000000
 80002d8:	e7f1      	b.n	80002be <xEventGroupWaitBits+0xc6>
			xTicksToWait = ( TickType_t ) 0;
 80002da:	2300      	movs	r3, #0
 80002dc:	9306      	str	r3, [sp, #24]
 80002de:	e7cf      	b.n	8000280 <xEventGroupWaitBits+0x88>
			taskENTER_CRITICAL();
 80002e0:	f004 f8f6 	bl	80044d0 <vPortEnterCritical>
				uxReturn = pxEventBits->uxEventBits;
 80002e4:	f8d7 8000 	ldr.w	r8, [r7]
				if( prvTestWaitCondition( uxReturn, uxBitsToWaitFor, xWaitForAllBits ) != pdFALSE )
 80002e8:	462a      	mov	r2, r5
 80002ea:	4621      	mov	r1, r4
 80002ec:	4640      	mov	r0, r8
 80002ee:	f7ff ff53 	bl	8000198 <prvTestWaitCondition>
 80002f2:	b118      	cbz	r0, 80002fc <xEventGroupWaitBits+0x104>
					if( xClearOnExit != pdFALSE )
 80002f4:	b116      	cbz	r6, 80002fc <xEventGroupWaitBits+0x104>
						pxEventBits->uxEventBits &= ~uxBitsToWaitFor;
 80002f6:	ea28 0404 	bic.w	r4, r8, r4
 80002fa:	603c      	str	r4, [r7, #0]
			taskEXIT_CRITICAL();
 80002fc:	f004 f8fc 	bl	80044f8 <vPortExitCritical>
 8000300:	e7d3      	b.n	80002aa <xEventGroupWaitBits+0xb2>

08000302 <xEventGroupClearBits>:
	configASSERT( xEventGroup );
 8000302:	b170      	cbz	r0, 8000322 <xEventGroupClearBits+0x20>
{
 8000304:	b570      	push	{r4, r5, r6, lr}
 8000306:	460c      	mov	r4, r1
 8000308:	4605      	mov	r5, r0
	configASSERT( ( uxBitsToClear & eventEVENT_BITS_CONTROL_BYTES ) == 0 );
 800030a:	f1b1 7f80 	cmp.w	r1, #16777216	@ 0x1000000
 800030e:	d311      	bcc.n	8000334 <xEventGroupClearBits+0x32>
 8000310:	f04f 0350 	mov.w	r3, #80	@ 0x50
 8000314:	f383 8811 	msr	BASEPRI, r3
 8000318:	f3bf 8f6f 	isb	sy
 800031c:	f3bf 8f4f 	dsb	sy
 8000320:	e7fe      	b.n	8000320 <xEventGroupClearBits+0x1e>
 8000322:	f04f 0350 	mov.w	r3, #80	@ 0x50
 8000326:	f383 8811 	msr	BASEPRI, r3
 800032a:	f3bf 8f6f 	isb	sy
 800032e:	f3bf 8f4f 	dsb	sy
	configASSERT( xEventGroup );
 8000332:	e7fe      	b.n	8000332 <xEventGroupClearBits+0x30>
	taskENTER_CRITICAL();
 8000334:	f004 f8cc 	bl	80044d0 <vPortEnterCritical>
		uxReturn = pxEventBits->uxEventBits;
 8000338:	682e      	ldr	r6, [r5, #0]
		pxEventBits->uxEventBits &= ~uxBitsToClear;
 800033a:	ea26 0404 	bic.w	r4, r6, r4
 800033e:	602c      	str	r4, [r5, #0]
	taskEXIT_CRITICAL();
 8000340:	f004 f8da 	bl	80044f8 <vPortExitCritical>
}
 8000344:	4630      	mov	r0, r6
 8000346:	bd70      	pop	{r4, r5, r6, pc}

08000348 <xEventGroupSetBits>:
{
 8000348:	b5f8      	push	{r3, r4, r5, r6, r7, lr}
	configASSERT( xEventGroup );
 800034a:	b168      	cbz	r0, 8000368 <xEventGroupSetBits+0x20>
 800034c:	460d      	mov	r5, r1
 800034e:	4604      	mov	r4, r0
	configASSERT( ( uxBitsToSet & eventEVENT_BITS_CONTROL_BYTES ) == 0 );
 8000350:	f1b1 7f80 	cmp.w	r1, #16777216	@ 0x1000000
 8000354:	d311      	bcc.n	800037a <xEventGroupSetBits+0x32>
 8000356:	f04f 0350 	mov.w	r3, #80	@ 0x50
 800035a:	f383 8811 	msr	BASEPRI, r3
 800035e:	f3bf 8f6f 	isb	sy
 8000362:	f3bf 8f4f 	dsb	sy
 8000366:	e7fe      	b.n	8000366 <xEventGroupSetBits+0x1e>
 8000368:	f04f 0350 	mov.w	r3, #80	@ 0x50
 800036c:	f383 8811 	msr	BASEPRI, r3
 8000370:	f3bf 8f6f 	isb	sy
 8000374:	f3bf 8f4f 	dsb	sy
	configASSERT( xEventGroup );
 8000378:	e7fe      	b.n	8000378 <xEventGroupSetBits+0x30>
	pxListEnd = listGET_END_MARKER( pxList ); /*lint !e826 !e740 !e9087 The mini list structure is used as the list end to save RAM.  This is checked and valid. */
 800037a:	f100 060c 	add.w	r6, r0, #12
	vTaskSuspendAll();
 800037e:	f002 f941 	bl	8002604 <vTaskSuspendAll>
		pxListItem = listGET_HEAD_ENTRY( pxList );
 8000382:	6920      	ldr	r0, [r4, #16]
		pxEventBits->uxEventBits |= uxBitsToSet;
 8000384:	6823      	ldr	r3, [r4, #0]
 8000386:	432b      	orrs	r3, r5
 8000388:	6023      	str	r3, [r4, #0]
EventBits_t uxBitsToClear = 0, uxBitsWaitedFor, uxControlBits;
 800038a:	2700      	movs	r7, #0
		while( pxListItem != pxListEnd )
 800038c:	e00a      	b.n	80003a4 <xEventGroupSetBits+0x5c>
			else if( ( uxBitsWaitedFor & pxEventBits->uxEventBits ) == uxBitsWaitedFor )
 800038e:	6821      	ldr	r1, [r4, #0]
 8000390:	ea32 0101 	bics.w	r1, r2, r1
 8000394:	d105      	bne.n	80003a2 <xEventGroupSetBits+0x5a>
 8000396:	e011      	b.n	80003bc <xEventGroupSetBits+0x74>
				vTaskRemoveFromUnorderedEventList( pxListItem, pxEventBits->uxEventBits | eventUNBLOCKED_DUE_TO_BIT_SET );
 8000398:	6821      	ldr	r1, [r4, #0]
 800039a:	f041 7100 	orr.w	r1, r1, #33554432	@ 0x2000000
 800039e:	f002 fda5 	bl	8002eec <vTaskRemoveFromUnorderedEventList>
{
 80003a2:	4628      	mov	r0, r5
		while( pxListItem != pxListEnd )
 80003a4:	42b0      	cmp	r0, r6
 80003a6:	d00e      	beq.n	80003c6 <xEventGroupSetBits+0x7e>
			pxNext = listGET_NEXT( pxListItem );
 80003a8:	6845      	ldr	r5, [r0, #4]
			uxBitsWaitedFor = listGET_LIST_ITEM_VALUE( pxListItem );
 80003aa:	6803      	ldr	r3, [r0, #0]
			uxBitsWaitedFor &= ~eventEVENT_BITS_CONTROL_BYTES;
 80003ac:	f023 427f 	bic.w	r2, r3, #4278190080	@ 0xff000000
			if( ( uxControlBits & eventWAIT_FOR_ALL_BITS ) == ( EventBits_t ) 0 )
 80003b0:	f013 6f80 	tst.w	r3, #67108864	@ 0x4000000
 80003b4:	d1eb      	bne.n	800038e <xEventGroupSetBits+0x46>
				if( ( uxBitsWaitedFor & pxEventBits->uxEventBits ) != ( EventBits_t ) 0 )
 80003b6:	6821      	ldr	r1, [r4, #0]
 80003b8:	4211      	tst	r1, r2
 80003ba:	d0f2      	beq.n	80003a2 <xEventGroupSetBits+0x5a>
				if( ( uxControlBits & eventCLEAR_EVENTS_ON_EXIT_BIT ) != ( EventBits_t ) 0 )
 80003bc:	f013 7f80 	tst.w	r3, #16777216	@ 0x1000000
 80003c0:	d0ea      	beq.n	8000398 <xEventGroupSetBits+0x50>
					uxBitsToClear |= uxBitsWaitedFor;
 80003c2:	4317      	orrs	r7, r2
 80003c4:	e7e8      	b.n	8000398 <xEventGroupSetBits+0x50>
		pxEventBits->uxEventBits &= ~uxBitsToClear;
 80003c6:	6823      	ldr	r3, [r4, #0]
 80003c8:	ea23 0307 	bic.w	r3, r3, r7
 80003cc:	6023      	str	r3, [r4, #0]
	( void ) xTaskResumeAll();
 80003ce:	f002 fc0f 	bl	8002bf0 <xTaskResumeAll>
}
 80003d2:	6820      	ldr	r0, [r4, #0]
 80003d4:	bdf8      	pop	{r3, r4, r5, r6, r7, pc}

080003d6 <xEventGroupSync>:
	configASSERT( ( uxBitsToWaitFor & eventEVENT_BITS_CONTROL_BYTES ) == 0 );
 80003d6:	f1b2 7f80 	cmp.w	r2, #16777216	@ 0x1000000
 80003da:	d308      	bcc.n	80003ee <xEventGroupSync+0x18>
 80003dc:	f04f 0350 	mov.w	r3, #80	@ 0x50
 80003e0:	f383 8811 	msr	BASEPRI, r3
 80003e4:	f3bf 8f6f 	isb	sy
 80003e8:	f3bf 8f4f 	dsb	sy
 80003ec:	e7fe      	b.n	80003ec <xEventGroupSync+0x16>
{
 80003ee:	e92d 41f0 	stmdb	sp!, {r4, r5, r6, r7, r8, lr}
 80003f2:	4607      	mov	r7, r0
 80003f4:	460d      	mov	r5, r1
 80003f6:	4614      	mov	r4, r2
 80003f8:	461e      	mov	r6, r3
	configASSERT( uxBitsToWaitFor != 0 );
 80003fa:	b942      	cbnz	r2, 800040e <xEventGroupSync+0x38>
 80003fc:	f04f 0350 	mov.w	r3, #80	@ 0x50
 8000400:	f383 8811 	msr	BASEPRI, r3
 8000404:	f3bf 8f6f 	isb	sy
 8000408:	f3bf 8f4f 	dsb	sy
 800040c:	e7fe      	b.n	800040c <xEventGroupSync+0x36>
		configASSERT( !( ( xTaskGetSchedulerState() == taskSCHEDULER_SUSPENDED ) && ( xTicksToWait != 0 ) ) );
 800040e:	f002 fe8d 	bl	800312c <xTaskGetSchedulerState>
 8000412:	b948      	cbnz	r0, 8000428 <xEventGroupSync+0x52>
 8000414:	b146      	cbz	r6, 8000428 <xEventGroupSync+0x52>
 8000416:	f04f 0350 	mov.w	r3, #80	@ 0x50
 800041a:	f383 8811 	msr	BASEPRI, r3
 800041e:	f3bf 8f6f 	isb	sy
 8000422:	f3bf 8f4f 	dsb	sy
 8000426:	e7fe      	b.n	8000426 <xEventGroupSync+0x50>
	vTaskSuspendAll();
 8000428:	f002 f8ec 	bl	8002604 <vTaskSuspendAll>
		uxOriginalBitValue = pxEventBits->uxEventBits;
 800042c:	f8d7 8000 	ldr.w	r8, [r7]
		( void ) xEventGroupSetBits( xEventGroup, uxBitsToSet );
 8000430:	4629      	mov	r1, r5
 8000432:	4638      	mov	r0, r7
 8000434:	f7ff ff88 	bl	8000348 <xEventGroupSetBits>
		if( ( ( uxOriginalBitValue | uxBitsToSet ) & uxBitsToWaitFor ) == uxBitsToWaitFor )
 8000438:	ea48 0505 	orr.w	r5, r8, r5
 800043c:	ea34 0305 	bics.w	r3, r4, r5
 8000440:	d01a      	beq.n	8000478 <xEventGroupSync+0xa2>
			if( xTicksToWait != ( TickType_t ) 0 )
 8000442:	b9fe      	cbnz	r6, 8000484 <xEventGroupSync+0xae>
				uxReturn = pxEventBits->uxEventBits;
 8000444:	683d      	ldr	r5, [r7, #0]
	xAlreadyYielded = xTaskResumeAll();
 8000446:	f002 fbd3 	bl	8002bf0 <xTaskResumeAll>
	if( xTicksToWait != ( TickType_t ) 0 )
 800044a:	b196      	cbz	r6, 8000472 <xEventGroupSync+0x9c>
		if( xAlreadyYielded == pdFALSE )
 800044c:	b948      	cbnz	r0, 8000462 <xEventGroupSync+0x8c>
			portYIELD_WITHIN_API();
 800044e:	f04f 23e0 	mov.w	r3, #3758153728	@ 0xe000e000
 8000452:	f04f 5280 	mov.w	r2, #268435456	@ 0x10000000
 8000456:	f8c3 2d04 	str.w	r2, [r3, #3332]	@ 0xd04
 800045a:	f3bf 8f4f 	dsb	sy
 800045e:	f3bf 8f6f 	isb	sy
		uxReturn = uxTaskResetEventItemValue();
 8000462:	f002 fe4b 	bl	80030fc <uxTaskResetEventItemValue>
 8000466:	4605      	mov	r5, r0
		if( ( uxReturn & eventUNBLOCKED_DUE_TO_BIT_SET ) == ( EventBits_t ) 0 )
 8000468:	f010 7f00 	tst.w	r0, #33554432	@ 0x2000000
 800046c:	d012      	beq.n	8000494 <xEventGroupSync+0xbe>
		uxReturn &= ~eventEVENT_BITS_CONTROL_BYTES;
 800046e:	f025 457f 	bic.w	r5, r5, #4278190080	@ 0xff000000
}
 8000472:	4628      	mov	r0, r5
 8000474:	e8bd 81f0 	ldmia.w	sp!, {r4, r5, r6, r7, r8, pc}
			pxEventBits->uxEventBits &= ~uxBitsToWaitFor;
 8000478:	683b      	ldr	r3, [r7, #0]
 800047a:	ea23 0304 	bic.w	r3, r3, r4
 800047e:	603b      	str	r3, [r7, #0]
			xTicksToWait = 0;
 8000480:	2600      	movs	r6, #0
 8000482:	e7e0      	b.n	8000446 <xEventGroupSync+0x70>
				vTaskPlaceOnUnorderedEventList( &( pxEventBits->xTasksWaitingForBits ), ( uxBitsToWaitFor | eventCLEAR_EVENTS_ON_EXIT_BIT | eventWAIT_FOR_ALL_BITS ), xTicksToWait );
 8000484:	4632      	mov	r2, r6
 8000486:	f044 61a0 	orr.w	r1, r4, #83886080	@ 0x5000000
 800048a:	1d38      	adds	r0, r7, #4
 800048c:	f002 fcbc 	bl	8002e08 <vTaskPlaceOnUnorderedEventList>
				uxReturn = 0;
 8000490:	2500      	movs	r5, #0
 8000492:	e7d8      	b.n	8000446 <xEventGroupSync+0x70>
			taskENTER_CRITICAL();
 8000494:	f004 f81c 	bl	80044d0 <vPortEnterCritical>
				uxReturn = pxEventBits->uxEventBits;
 8000498:	683d      	ldr	r5, [r7, #0]
				if( ( uxReturn & uxBitsToWaitFor ) == uxBitsToWaitFor )
 800049a:	ea34 0305 	bics.w	r3, r4, r5
 800049e:	d002      	beq.n	80004a6 <xEventGroupSync+0xd0>
			taskEXIT_CRITICAL();
 80004a0:	f004 f82a 	bl	80044f8 <vPortExitCritical>
			xTimeoutOccurred = pdTRUE;
 80004a4:	e7e3      	b.n	800046e <xEventGroupSync+0x98>
					pxEventBits->uxEventBits &= ~uxBitsToWaitFor;
 80004a6:	ea25 0404 	bic.w	r4, r5, r4
 80004aa:	603c      	str	r4, [r7, #0]
 80004ac:	e7f8      	b.n	80004a0 <xEventGroupSync+0xca>

080004ae <xEventGroupGetBitsFromISR>:

portFORCE_INLINE static uint32_t ulPortRaiseBASEPRI( void )
{
uint32_t ulOriginalBASEPRI, ulNewBASEPRI;

	__asm volatile
 80004ae:	f3ef 8311 	mrs	r3, BASEPRI
 80004b2:	f04f 0250 	mov.w	r2, #80	@ 0x50
 80004b6:	f382 8811 	msr	BASEPRI, r2
 80004ba:	f3bf 8f6f 	isb	sy
 80004be:	f3bf 8f4f 	dsb	sy
		uxReturn = pxEventBits->uxEventBits;
 80004c2:	6800      	ldr	r0, [r0, #0]
}
/*-----------------------------------------------------------*/

portFORCE_INLINE static void vPortSetBASEPRI( uint32_t ulNewMaskValue )
{
	__asm volatile
 80004c4:	f383 8811 	msr	BASEPRI, r3
} /*lint !e818 EventGroupHandle_t is a typedef used in other functions to so can't be pointer to const. */
 80004c8:	4770      	bx	lr

080004ca <vEventGroupDelete>:
{
 80004ca:	b510      	push	{r4, lr}
 80004cc:	4604      	mov	r4, r0
	vTaskSuspendAll();
 80004ce:	f002 f899 	bl	8002604 <vTaskSuspendAll>
		while( listCURRENT_LIST_LENGTH( pxTasksWaitingForBits ) > ( UBaseType_t ) 0 )
 80004d2:	6863      	ldr	r3, [r4, #4]
 80004d4:	b193      	cbz	r3, 80004fc <vEventGroupDelete+0x32>
			configASSERT( pxTasksWaitingForBits->xListEnd.pxNext != ( const ListItem_t * ) &( pxTasksWaitingForBits->xListEnd ) );
 80004d6:	6920      	ldr	r0, [r4, #16]
 80004d8:	f104 030c 	add.w	r3, r4, #12
 80004dc:	4298      	cmp	r0, r3
 80004de:	d004      	beq.n	80004ea <vEventGroupDelete+0x20>
			vTaskRemoveFromUnorderedEventList( pxTasksWaitingForBits->xListEnd.pxNext, eventUNBLOCKED_DUE_TO_BIT_SET );
 80004e0:	f04f 7100 	mov.w	r1, #33554432	@ 0x2000000
 80004e4:	f002 fd02 	bl	8002eec <vTaskRemoveFromUnorderedEventList>
 80004e8:	e7f3      	b.n	80004d2 <vEventGroupDelete+0x8>
	__asm volatile
 80004ea:	f04f 0350 	mov.w	r3, #80	@ 0x50
 80004ee:	f383 8811 	msr	BASEPRI, r3
 80004f2:	f3bf 8f6f 	isb	sy
 80004f6:	f3bf 8f4f 	dsb	sy
			configASSERT( pxTasksWaitingForBits->xListEnd.pxNext != ( const ListItem_t * ) &( pxTasksWaitingForBits->xListEnd ) );
 80004fa:	e7fe      	b.n	80004fa <vEventGroupDelete+0x30>
	( void ) xTaskResumeAll();
 80004fc:	f002 fb78 	bl	8002bf0 <xTaskResumeAll>
}
 8000500:	bd10      	pop	{r4, pc}

08000502 <vEventGroupSetBitsCallback>:
{
 8000502:	b508      	push	{r3, lr}
	( void ) xEventGroupSetBits( pvEventGroup, ( EventBits_t ) ulBitsToSet ); /*lint !e9079 Can't avoid cast to void* as a generic timer callback prototype. Callback casts back to original type so safe. */
 8000504:	f7ff ff20 	bl	8000348 <xEventGroupSetBits>
}
 8000508:	bd08      	pop	{r3, pc}

0800050a <vEventGroupClearBitsCallback>:
{
 800050a:	b508      	push	{r3, lr}
	( void ) xEventGroupClearBits( pvEventGroup, ( EventBits_t ) ulBitsToClear ); /*lint !e9079 Can't avoid cast to void* as a generic timer callback prototype. Callback casts back to original type so safe. */
 800050c:	f7ff fef9 	bl	8000302 <xEventGroupClearBits>
}
 8000510:	bd08      	pop	{r3, pc}
	...

08000520 <prvGetMPURegionSizeSetting>:
}
/*-----------------------------------------------------------*/

static uint32_t prvGetMPURegionSizeSetting( uint32_t ulActualSizeInBytes )
{
uint32_t ulRegionSize, ulReturnValue = 4;
 8000520:	2304      	movs	r3, #4

	/* 32 is the smallest region size, 31 is the largest valid value for
	ulReturnValue. */
	for( ulRegionSize = 32UL; ulReturnValue < 31UL; ( ulRegionSize <<= 1UL ) )
 8000522:	2220      	movs	r2, #32
 8000524:	2b1e      	cmp	r3, #30
 8000526:	d804      	bhi.n	8000532 <prvGetMPURegionSizeSetting+0x12>
	{
		if( ulActualSizeInBytes <= ulRegionSize )
 8000528:	4282      	cmp	r2, r0
 800052a:	d202      	bcs.n	8000532 <prvGetMPURegionSizeSetting+0x12>
		{
			break;
		}
		else
		{
			ulReturnValue++;
 800052c:	3301      	adds	r3, #1
	for( ulRegionSize = 32UL; ulReturnValue < 31UL; ( ulRegionSize <<= 1UL ) )
 800052e:	0052      	lsls	r2, r2, #1
 8000530:	e7f8      	b.n	8000524 <prvGetMPURegionSizeSetting+0x4>
	}

	/* Shift the code by one before returning so it can be written directly
	into the the correct bit position of the attribute register. */
	return ( ulReturnValue << 1UL );
}
 8000532:	0058      	lsls	r0, r3, #1
 8000534:	4770      	bx	lr

08000536 <prvSetupMPU>:
{
 8000536:	b538      	push	{r3, r4, r5, lr}
	if( ( portMPU_TYPE_REG == portEXPECTED_MPU_TYPE_VALUE )  || ( portMPU_TYPE_REG == portEXPECTED_MPU_TYPE_VALUE << 1 ))
 8000538:	f04f 23e0 	mov.w	r3, #3758153728	@ 0xe000e000
 800053c:	f8d3 3d90 	ldr.w	r3, [r3, #3472]	@ 0xd90
 8000540:	f5b3 6f00 	cmp.w	r3, #2048	@ 0x800
 8000544:	d006      	beq.n	8000554 <prvSetupMPU+0x1e>
 8000546:	f04f 23e0 	mov.w	r3, #3758153728	@ 0xe000e000
 800054a:	f8d3 3d90 	ldr.w	r3, [r3, #3472]	@ 0xd90
 800054e:	f5b3 5f80 	cmp.w	r3, #4096	@ 0x1000
 8000552:	d142      	bne.n	80005da <prvSetupMPU+0xa4>
		portMPU_REGION_BASE_ADDRESS_REG =	( ( uint32_t ) __FLASH_segment_start__ ) | /* Base address. */
 8000554:	4d21      	ldr	r5, [pc, #132]	@ (80005dc <prvSetupMPU+0xa6>)
											( portMPU_REGION_VALID ) |
 8000556:	f045 0310 	orr.w	r3, r5, #16
		portMPU_REGION_BASE_ADDRESS_REG =	( ( uint32_t ) __FLASH_segment_start__ ) | /* Base address. */
 800055a:	f04f 24e0 	mov.w	r4, #3758153728	@ 0xe000e000
 800055e:	f8c4 3d9c 	str.w	r3, [r4, #3484]	@ 0xd9c
										( prvGetMPURegionSizeSetting( ( uint32_t ) __FLASH_segment_end__ - ( uint32_t ) __FLASH_segment_start__ ) ) |
 8000562:	481f      	ldr	r0, [pc, #124]	@ (80005e0 <prvSetupMPU+0xaa>)
 8000564:	1b40      	subs	r0, r0, r5
 8000566:	f7ff ffdb 	bl	8000520 <prvGetMPURegionSizeSetting>
 800056a:	4b1e      	ldr	r3, [pc, #120]	@ (80005e4 <prvSetupMPU+0xae>)
 800056c:	4303      	orrs	r3, r0
		portMPU_REGION_ATTRIBUTE_REG =	( portMPU_REGION_READ_ONLY ) |
 800056e:	f8c4 3da0 	str.w	r3, [r4, #3488]	@ 0xda0
											( portMPU_REGION_VALID ) |
 8000572:	f045 0311 	orr.w	r3, r5, #17
		portMPU_REGION_BASE_ADDRESS_REG =	( ( uint32_t ) __FLASH_segment_start__ ) | /* Base address. */
 8000576:	f8c4 3d9c 	str.w	r3, [r4, #3484]	@ 0xd9c
										( prvGetMPURegionSizeSetting( ( uint32_t ) __privileged_functions_end__ - ( uint32_t ) __FLASH_segment_start__ ) ) |
 800057a:	481b      	ldr	r0, [pc, #108]	@ (80005e8 <prvSetupMPU+0xb2>)
 800057c:	1b40      	subs	r0, r0, r5
 800057e:	f7ff ffcf 	bl	8000520 <prvGetMPURegionSizeSetting>
 8000582:	4b1a      	ldr	r3, [pc, #104]	@ (80005ec <prvSetupMPU+0xb6>)
 8000584:	4303      	orrs	r3, r0
		portMPU_REGION_ATTRIBUTE_REG =	( portMPU_REGION_PRIVILEGED_READ_ONLY ) |
 8000586:	f8c4 3da0 	str.w	r3, [r4, #3488]	@ 0xda0
		portMPU_REGION_BASE_ADDRESS_REG =	( ( uint32_t ) __privileged_data_start__ ) | /* Base address. */
 800058a:	4b19      	ldr	r3, [pc, #100]	@ (80005f0 <prvSetupMPU+0xba>)
											( portMPU_REGION_VALID ) |
 800058c:	f043 0212 	orr.w	r2, r3, #18
		portMPU_REGION_BASE_ADDRESS_REG =	( ( uint32_t ) __privileged_data_start__ ) | /* Base address. */
 8000590:	f8c4 2d9c 	str.w	r2, [r4, #3484]	@ 0xd9c
										prvGetMPURegionSizeSetting( ( uint32_t ) __privileged_data_end__ - ( uint32_t ) __privileged_data_start__ ) |
 8000594:	4817      	ldr	r0, [pc, #92]	@ (80005f4 <prvSetupMPU+0xbe>)
 8000596:	1ac0      	subs	r0, r0, r3
 8000598:	f7ff ffc2 	bl	8000520 <prvGetMPURegionSizeSetting>
 800059c:	f040 7081 	orr.w	r0, r0, #16908288	@ 0x1020000
 80005a0:	f040 1001 	orr.w	r0, r0, #65537	@ 0x10001
		portMPU_REGION_ATTRIBUTE_REG =	( portMPU_REGION_PRIVILEGED_READ_WRITE ) |
 80005a4:	f8c4 0da0 	str.w	r0, [r4, #3488]	@ 0xda0
		portMPU_REGION_BASE_ADDRESS_REG =	( portPERIPHERALS_START_ADDRESS ) |
 80005a8:	4b13      	ldr	r3, [pc, #76]	@ (80005f8 <prvSetupMPU+0xc2>)
 80005aa:	f8c4 3d9c 	str.w	r3, [r4, #3484]	@ 0xd9c
										( prvGetMPURegionSizeSetting( portPERIPHERALS_END_ADDRESS - portPERIPHERALS_START_ADDRESS ) ) |
 80005ae:	f06f 4060 	mvn.w	r0, #3758096384	@ 0xe0000000
 80005b2:	f7ff ffb5 	bl	8000520 <prvGetMPURegionSizeSetting>
 80005b6:	f040 5098 	orr.w	r0, r0, #318767104	@ 0x13000000
 80005ba:	f040 0001 	orr.w	r0, r0, #1
		portMPU_REGION_ATTRIBUTE_REG =	( portMPU_REGION_READ_WRITE | portMPU_REGION_EXECUTE_NEVER ) |
 80005be:	f8c4 0da0 	str.w	r0, [r4, #3488]	@ 0xda0
		portNVIC_SYS_CTRL_STATE_REG |= portNVIC_MEM_FAULT_ENABLE;
 80005c2:	f8d4 3d24 	ldr.w	r3, [r4, #3364]	@ 0xd24
 80005c6:	f443 3380 	orr.w	r3, r3, #65536	@ 0x10000
 80005ca:	f8c4 3d24 	str.w	r3, [r4, #3364]	@ 0xd24
		portMPU_CTRL_REG |= ( portMPU_ENABLE | portMPU_BACKGROUND_ENABLE );
 80005ce:	f8d4 3d94 	ldr.w	r3, [r4, #3476]	@ 0xd94
 80005d2:	f043 0305 	orr.w	r3, r3, #5
 80005d6:	f8c4 3d94 	str.w	r3, [r4, #3476]	@ 0xd94
}
 80005da:	bd38      	pop	{r3, r4, r5, pc}
 80005dc:	08000000 	.word	0x08000000
 80005e0:	08080000 	.word	0x08080000
 80005e4:	06030001 	.word	0x06030001
 80005e8:	08010000 	.word	0x08010000
 80005ec:	05030001 	.word	0x05030001
 80005f0:	20000000 	.word	0x20000000
 80005f4:	20010000 	.word	0x20010000
 80005f8:	40000013 	.word	0x40000013

080005fc <prvRestoreContextOfFirstTask>:
	__asm volatile
 80005fc:	48eb      	ldr	r0, [pc, #940]	@ (80009ac <xPortStartScheduler+0xea>)
 80005fe:	6800      	ldr	r0, [r0, #0]
 8000600:	6800      	ldr	r0, [r0, #0]
 8000602:	f380 8808 	msr	MSP, r0
 8000606:	4b12      	ldr	r3, [pc, #72]	@ (8000650 <pxCurrentTCBConst2>)
 8000608:	6819      	ldr	r1, [r3, #0]
 800060a:	6808      	ldr	r0, [r1, #0]
 800060c:	f101 0104 	add.w	r1, r1, #4
 8000610:	f3bf 8f5f 	dmb	sy
 8000614:	4ae6      	ldr	r2, [pc, #920]	@ (80009b0 <xPortStartScheduler+0xee>)
 8000616:	6813      	ldr	r3, [r2, #0]
 8000618:	f023 0301 	bic.w	r3, r3, #1
 800061c:	6013      	str	r3, [r2, #0]
 800061e:	4ae5      	ldr	r2, [pc, #916]	@ (80009b4 <xPortStartScheduler+0xf2>)
 8000620:	e8b1 0ff0 	ldmia.w	r1!, {r4, r5, r6, r7, r8, r9, sl, fp}
 8000624:	e8a2 0ff0 	stmia.w	r2!, {r4, r5, r6, r7, r8, r9, sl, fp}
 8000628:	4ae1      	ldr	r2, [pc, #900]	@ (80009b0 <xPortStartScheduler+0xee>)
 800062a:	6813      	ldr	r3, [r2, #0]
 800062c:	f043 0301 	orr.w	r3, r3, #1
 8000630:	6013      	str	r3, [r2, #0]
 8000632:	f3bf 8f4f 	dsb	sy
 8000636:	e8b0 4ff8 	ldmia.w	r0!, {r3, r4, r5, r6, r7, r8, r9, sl, fp, lr}
 800063a:	f383 8814 	msr	CONTROL, r3
 800063e:	f380 8809 	msr	PSP, r0
 8000642:	f04f 0000 	mov.w	r0, #0
 8000646:	f380 8811 	msr	BASEPRI, r0
 800064a:	4770      	bx	lr
 800064c:	f3af 8000 	nop.w

08000650 <pxCurrentTCBConst2>:
 8000650:	20000168 	.word	0x20000168

08000654 <prvSVCHandler>:
{
 8000654:	b508      	push	{r3, lr}
	ulPC = pulParam[ portOFFSET_TO_PC ];
 8000656:	6982      	ldr	r2, [r0, #24]
	ucSVCNumber = ( ( uint8_t * ) ulPC )[ -2 ];
 8000658:	f812 3c02 	ldrb.w	r3, [r2, #-2]
	switch( ucSVCNumber )
 800065c:	2b01      	cmp	r3, #1
 800065e:	d00e      	beq.n	800067e <prvSVCHandler+0x2a>
 8000660:	2b02      	cmp	r3, #2
 8000662:	d017      	beq.n	8000694 <prvSVCHandler+0x40>
 8000664:	b103      	cbz	r3, 8000668 <prvSVCHandler+0x14>
}
 8000666:	bd08      	pop	{r3, pc}
		case portSVC_START_SCHEDULER	:	portNVIC_SYSPRI1_REG |= portNVIC_SVC_PRI;
 8000668:	f04f 22e0 	mov.w	r2, #3758153728	@ 0xe000e000
 800066c:	f8d2 3d1c 	ldr.w	r3, [r2, #3356]	@ 0xd1c
 8000670:	f043 439e 	orr.w	r3, r3, #1325400064	@ 0x4f000000
 8000674:	f8c2 3d1c 	str.w	r3, [r2, #3356]	@ 0xd1c
											prvRestoreContextOfFirstTask();
 8000678:	f7ff ffc0 	bl	80005fc <prvRestoreContextOfFirstTask>
											break;
 800067c:	e7f3      	b.n	8000666 <prvSVCHandler+0x12>
		case portSVC_YIELD				:	portNVIC_INT_CTRL_REG = portNVIC_PENDSVSET_BIT;
 800067e:	f04f 23e0 	mov.w	r3, #3758153728	@ 0xe000e000
 8000682:	f04f 5280 	mov.w	r2, #268435456	@ 0x10000000
 8000686:	f8c3 2d04 	str.w	r2, [r3, #3332]	@ 0xd04
											__asm volatile( "dsb" ::: "memory" );
 800068a:	f3bf 8f4f 	dsb	sy
											__asm volatile( "isb" );
 800068e:	f3bf 8f6f 	isb	sy
											break;
 8000692:	e7e8      	b.n	8000666 <prvSVCHandler+0x12>
											if( ulPC >= ( uint32_t ) __syscalls_flash_start__ &&
 8000694:	4b06      	ldr	r3, [pc, #24]	@ (80006b0 <prvSVCHandler+0x5c>)
 8000696:	4293      	cmp	r3, r2
 8000698:	d8e5      	bhi.n	8000666 <prvSVCHandler+0x12>
												ulPC <= ( uint32_t ) __syscalls_flash_end__ )
 800069a:	4b06      	ldr	r3, [pc, #24]	@ (80006b4 <prvSVCHandler+0x60>)
											if( ulPC >= ( uint32_t ) __syscalls_flash_start__ &&
 800069c:	4293      	cmp	r3, r2
 800069e:	d3e2      	bcc.n	8000666 <prvSVCHandler+0x12>
												__asm volatile
 80006a0:	f3ef 8114 	mrs	r1, CONTROL
 80006a4:	f021 0101 	bic.w	r1, r1, #1
 80006a8:	f381 8814 	msr	CONTROL, r1
}
 80006ac:	e7db      	b.n	8000666 <prvSVCHandler+0x12>
 80006ae:	bf00      	nop
 80006b0:	08003450 	.word	0x08003450
 80006b4:	08003b0c 	.word	0x08003b0c

080006b8 <pxPortInitialiseStack>:
{
 80006b8:	4684      	mov	ip, r0
	*pxTopOfStack = portINITIAL_XPSR;	/* xPSR */
 80006ba:	f04f 7080 	mov.w	r0, #16777216	@ 0x1000000
 80006be:	f84c 0c04 	str.w	r0, [ip, #-4]
	*pxTopOfStack = ( ( StackType_t ) pxCode ) & portSTART_ADDRESS_MASK;	/* PC */
 80006c2:	f021 0101 	bic.w	r1, r1, #1
 80006c6:	f84c 1c08 	str.w	r1, [ip, #-8]
	*pxTopOfStack = 0;	/* LR */
 80006ca:	2100      	movs	r1, #0
 80006cc:	f84c 1c0c 	str.w	r1, [ip, #-12]
	*pxTopOfStack = ( StackType_t ) pvParameters;	/* R0 */
 80006d0:	f84c 2c20 	str.w	r2, [ip, #-32]
	*pxTopOfStack = portINITIAL_EXC_RETURN;
 80006d4:	f06f 0202 	mvn.w	r2, #2
 80006d8:	f84c 2c24 	str.w	r2, [ip, #-36]
	pxTopOfStack -= 9;	/* R11, R10, R9, R8, R7, R6, R5 and R4. */
 80006dc:	f1ac 0048 	sub.w	r0, ip, #72	@ 0x48
	if( xRunPrivileged == pdTRUE )
 80006e0:	2b01      	cmp	r3, #1
 80006e2:	d003      	beq.n	80006ec <pxPortInitialiseStack+0x34>
		*pxTopOfStack = portINITIAL_CONTROL_IF_UNPRIVILEGED;
 80006e4:	2303      	movs	r3, #3
 80006e6:	f84c 3c48 	str.w	r3, [ip, #-72]
}
 80006ea:	4770      	bx	lr
		*pxTopOfStack = portINITIAL_CONTROL_IF_PRIVILEGED;
 80006ec:	2302      	movs	r3, #2
 80006ee:	f84c 3c48 	str.w	r3, [ip, #-72]
 80006f2:	4770      	bx	lr

080006f4 <vPortEndScheduler>:
	configASSERT( uxCriticalNesting == 1000UL );
 80006f4:	4b07      	ldr	r3, [pc, #28]	@ (8000714 <vPortEndScheduler+0x20>)
 80006f6:	681b      	ldr	r3, [r3, #0]
 80006f8:	f5b3 7f7a 	cmp.w	r3, #1000	@ 0x3e8
 80006fc:	d008      	beq.n	8000710 <vPortEndScheduler+0x1c>
 80006fe:	f04f 0350 	mov.w	r3, #80	@ 0x50
 8000702:	f383 8811 	msr	BASEPRI, r3
 8000706:	f3bf 8f6f 	isb	sy
 800070a:	f3bf 8f4f 	dsb	sy
 800070e:	e7fe      	b.n	800070e <vPortEndScheduler+0x1a>
}
 8000710:	4770      	bx	lr
 8000712:	bf00      	nop
 8000714:	200001ec 	.word	0x200001ec

08000718 <vPortStoreTaskMPUSettings>:
	);
}
/*-----------------------------------------------------------*/

void vPortStoreTaskMPUSettings( xMPU_SETTINGS *xMPUSettings, const struct xMEMORY_REGION * const xRegions, StackType_t *pxBottomOfStack, uint32_t ulStackDepth )
{
 8000718:	e92d 41f0 	stmdb	sp!, {r4, r5, r6, r7, r8, lr}
 800071c:	4606      	mov	r6, r0
#endif

int32_t lIndex;
uint32_t ul;

	if( xRegions == NULL )
 800071e:	b169      	cbz	r1, 800073c <vPortStoreTaskMPUSettings+0x24>
 8000720:	4688      	mov	r8, r1
	{
		/* This function is called automatically when the task is created - in
		which case the stack region parameters will be valid.  At all other
		times the stack parameters will not be valid and it is assumed that the
		stack region has already been configured. */
		if( ulStackDepth > 0 )
 8000722:	b143      	cbz	r3, 8000736 <vPortStoreTaskMPUSettings+0x1e>
		{
			/* Define the region that allows access to the stack. */
			xMPUSettings->xRegion[ 0 ].ulRegionBaseAddress =
					( ( uint32_t ) pxBottomOfStack ) |
					( portMPU_REGION_VALID ) |
 8000724:	f042 0214 	orr.w	r2, r2, #20
			xMPUSettings->xRegion[ 0 ].ulRegionBaseAddress =
 8000728:	6002      	str	r2, [r0, #0]
					( portSTACK_REGION ); /* Region number. */

			xMPUSettings->xRegion[ 0 ].ulRegionAttribute =
					( portMPU_REGION_READ_WRITE ) | /* Read and write. */
					( prvGetMPURegionSizeSetting( ulStackDepth * ( uint32_t ) sizeof( StackType_t ) ) ) |
 800072a:	0098      	lsls	r0, r3, #2
 800072c:	f7ff fef8 	bl	8000520 <prvGetMPURegionSizeSetting>
					( portMPU_REGION_CACHEABLE_BUFFERABLE ) |
 8000730:	4b2a      	ldr	r3, [pc, #168]	@ (80007dc <vPortStoreTaskMPUSettings+0xc4>)
 8000732:	4303      	orrs	r3, r0
			xMPUSettings->xRegion[ 0 ].ulRegionAttribute =
 8000734:	6073      	str	r3, [r6, #4]
		for( ul = 2; ul <= portNUM_CONFIGURABLE_REGIONS; ul++ )
 8000736:	2401      	movs	r4, #1
 8000738:	2700      	movs	r7, #0
 800073a:	e032      	b.n	80007a2 <vPortStoreTaskMPUSettings+0x8a>
				( ( uint32_t ) __SRAM_segment_start__ ) | /* Base address. */
 800073c:	4b28      	ldr	r3, [pc, #160]	@ (80007e0 <vPortStoreTaskMPUSettings+0xc8>)
				( portMPU_REGION_VALID ) |
 800073e:	f043 0214 	orr.w	r2, r3, #20
		xMPUSettings->xRegion[ 0 ].ulRegionBaseAddress =
 8000742:	6002      	str	r2, [r0, #0]
				( prvGetMPURegionSizeSetting( ( uint32_t ) __SRAM_segment_end__ - ( uint32_t ) __SRAM_segment_start__ ) ) |
 8000744:	4827      	ldr	r0, [pc, #156]	@ (80007e4 <vPortStoreTaskMPUSettings+0xcc>)
 8000746:	1ac0      	subs	r0, r0, r3
 8000748:	f7ff feea 	bl	8000520 <prvGetMPURegionSizeSetting>
 800074c:	4b23      	ldr	r3, [pc, #140]	@ (80007dc <vPortStoreTaskMPUSettings+0xc4>)
 800074e:	4303      	orrs	r3, r0
		xMPUSettings->xRegion[ 0 ].ulRegionAttribute =
 8000750:	6073      	str	r3, [r6, #4]
				( ( uint32_t ) __privileged_data_start__ ) | /* Base address. */
 8000752:	4b25      	ldr	r3, [pc, #148]	@ (80007e8 <vPortStoreTaskMPUSettings+0xd0>)
				( portMPU_REGION_VALID ) |
 8000754:	f043 0215 	orr.w	r2, r3, #21
		xMPUSettings->xRegion[ 1 ].ulRegionBaseAddress =
 8000758:	60b2      	str	r2, [r6, #8]
				prvGetMPURegionSizeSetting( ( uint32_t ) __privileged_data_end__ - ( uint32_t ) __privileged_data_start__ ) |
 800075a:	4824      	ldr	r0, [pc, #144]	@ (80007ec <vPortStoreTaskMPUSettings+0xd4>)
 800075c:	1ac0      	subs	r0, r0, r3
 800075e:	f7ff fedf 	bl	8000520 <prvGetMPURegionSizeSetting>
 8000762:	f040 7081 	orr.w	r0, r0, #16908288	@ 0x1020000
 8000766:	f040 1001 	orr.w	r0, r0, #65537	@ 0x10001
		xMPUSettings->xRegion[ 1 ].ulRegionAttribute =
 800076a:	60f0      	str	r0, [r6, #12]
		for( ul = 2; ul <= portNUM_CONFIGURABLE_REGIONS; ul++ )
 800076c:	2302      	movs	r3, #2
 800076e:	e009      	b.n	8000784 <vPortStoreTaskMPUSettings+0x6c>
			xMPUSettings->xRegion[ ul ].ulRegionBaseAddress = ( portSTACK_REGION + ul ) | portMPU_REGION_VALID;
 8000770:	1d1a      	adds	r2, r3, #4
 8000772:	f042 0210 	orr.w	r2, r2, #16
 8000776:	f846 2033 	str.w	r2, [r6, r3, lsl #3]
			xMPUSettings->xRegion[ ul ].ulRegionAttribute = 0UL;
 800077a:	eb06 02c3 	add.w	r2, r6, r3, lsl #3
 800077e:	2100      	movs	r1, #0
 8000780:	6051      	str	r1, [r2, #4]
		for( ul = 2; ul <= portNUM_CONFIGURABLE_REGIONS; ul++ )
 8000782:	3301      	adds	r3, #1
 8000784:	2b03      	cmp	r3, #3
 8000786:	d9f3      	bls.n	8000770 <vPortStoreTaskMPUSettings+0x58>
			}

			lIndex++;
		}
	}
}
 8000788:	e8bd 81f0 	ldmia.w	sp!, {r4, r5, r6, r7, r8, pc}
				xMPUSettings->xRegion[ ul ].ulRegionBaseAddress = ( portSTACK_REGION + ul ) | portMPU_REGION_VALID;
 800078c:	1d23      	adds	r3, r4, #4
 800078e:	f043 0310 	orr.w	r3, r3, #16
 8000792:	f846 3034 	str.w	r3, [r6, r4, lsl #3]
				xMPUSettings->xRegion[ ul ].ulRegionAttribute = 0UL;
 8000796:	eb06 03c4 	add.w	r3, r6, r4, lsl #3
 800079a:	2200      	movs	r2, #0
 800079c:	605a      	str	r2, [r3, #4]
			lIndex++;
 800079e:	3701      	adds	r7, #1
		for( ul = 1; ul <= portNUM_CONFIGURABLE_REGIONS; ul++ )
 80007a0:	3401      	adds	r4, #1
 80007a2:	2c03      	cmp	r4, #3
 80007a4:	d8f0      	bhi.n	8000788 <vPortStoreTaskMPUSettings+0x70>
			if( ( xRegions[ lIndex ] ).ulLengthInBytes > 0UL )
 80007a6:	eb07 0547 	add.w	r5, r7, r7, lsl #1
 80007aa:	00aa      	lsls	r2, r5, #2
 80007ac:	eb08 0585 	add.w	r5, r8, r5, lsl #2
 80007b0:	686b      	ldr	r3, [r5, #4]
 80007b2:	2b00      	cmp	r3, #0
 80007b4:	d0ea      	beq.n	800078c <vPortStoreTaskMPUSettings+0x74>
						( ( uint32_t ) xRegions[ lIndex ].pvBaseAddress ) |
 80007b6:	f858 3002 	ldr.w	r3, [r8, r2]
						( portSTACK_REGION + ul ); /* Region number. */
 80007ba:	1d22      	adds	r2, r4, #4
						( portMPU_REGION_VALID ) |
 80007bc:	4313      	orrs	r3, r2
 80007be:	f043 0310 	orr.w	r3, r3, #16
				xMPUSettings->xRegion[ ul ].ulRegionBaseAddress =
 80007c2:	f846 3034 	str.w	r3, [r6, r4, lsl #3]
						( prvGetMPURegionSizeSetting( xRegions[ lIndex ].ulLengthInBytes ) ) |
 80007c6:	6868      	ldr	r0, [r5, #4]
 80007c8:	f7ff feaa 	bl	8000520 <prvGetMPURegionSizeSetting>
						( xRegions[ lIndex ].ulParameters ) |
 80007cc:	68ab      	ldr	r3, [r5, #8]
						( prvGetMPURegionSizeSetting( xRegions[ lIndex ].ulLengthInBytes ) ) |
 80007ce:	4318      	orrs	r0, r3
						( xRegions[ lIndex ].ulParameters ) |
 80007d0:	f040 0001 	orr.w	r0, r0, #1
				xMPUSettings->xRegion[ ul ].ulRegionAttribute =
 80007d4:	eb06 03c4 	add.w	r3, r6, r4, lsl #3
 80007d8:	6058      	str	r0, [r3, #4]
 80007da:	e7e0      	b.n	800079e <vPortStoreTaskMPUSettings+0x86>
 80007dc:	03030001 	.word	0x03030001
 80007e0:	20000000 	.word	0x20000000
 80007e4:	20020000 	.word	0x20020000
 80007e8:	20000000 	.word	0x20000000
 80007ec:	20010000 	.word	0x20010000

080007f0 <PendSV_Handler>:
	__asm volatile
 80007f0:	f3ef 8009 	mrs	r0, PSP
 80007f4:	f3bf 8f6f 	isb	sy
 80007f8:	4b21      	ldr	r3, [pc, #132]	@ (8000880 <pxCurrentTCBConst>)
 80007fa:	681a      	ldr	r2, [r3, #0]
 80007fc:	f01e 0f10 	tst.w	lr, #16
 8000800:	bf08      	it	eq
 8000802:	ed20 8a10 	vstmdbeq	r0!, {s16-s31}
 8000806:	f3ef 8114 	mrs	r1, CONTROL
 800080a:	e920 4ff2 	stmdb	r0!, {r1, r4, r5, r6, r7, r8, r9, sl, fp, lr}
 800080e:	6010      	str	r0, [r2, #0]
 8000810:	e92d 0009 	stmdb	sp!, {r0, r3}
 8000814:	f04f 0050 	mov.w	r0, #80	@ 0x50
 8000818:	f380 8811 	msr	BASEPRI, r0
 800081c:	f3bf 8f4f 	dsb	sy
 8000820:	f3bf 8f6f 	isb	sy
 8000824:	f002 fba8 	bl	8002f78 <vTaskSwitchContext>
 8000828:	f04f 0000 	mov.w	r0, #0
 800082c:	f380 8811 	msr	BASEPRI, r0
 8000830:	bc09      	pop	{r0, r3}
 8000832:	6819      	ldr	r1, [r3, #0]
 8000834:	6808      	ldr	r0, [r1, #0]
 8000836:	f101 0104 	add.w	r1, r1, #4
 800083a:	f3bf 8f5f 	dmb	sy
 800083e:	4a5c      	ldr	r2, [pc, #368]	@ (80009b0 <xPortStartScheduler+0xee>)
 8000840:	6813      	ldr	r3, [r2, #0]
 8000842:	f023 0301 	bic.w	r3, r3, #1
 8000846:	6013      	str	r3, [r2, #0]
 8000848:	4a5a      	ldr	r2, [pc, #360]	@ (80009b4 <xPortStartScheduler+0xf2>)
 800084a:	e8b1 0ff0 	ldmia.w	r1!, {r4, r5, r6, r7, r8, r9, sl, fp}
 800084e:	e8a2 0ff0 	stmia.w	r2!, {r4, r5, r6, r7, r8, r9, sl, fp}
 8000852:	4a57      	ldr	r2, [pc, #348]	@ (80009b0 <xPortStartScheduler+0xee>)
 8000854:	6813      	ldr	r3, [r2, #0]
 8000856:	f043 0301 	orr.w	r3, r3, #1
 800085a:	6013      	str	r3, [r2, #0]
 800085c:	f3bf 8f4f 	dsb	sy
 8000860:	e8b0 4ff8 	ldmia.w	r0!, {r3, r4, r5, r6, r7, r8, r9, sl, fp, lr}
 8000864:	f383 8814 	msr	CONTROL, r3
 8000868:	f01e 0f10 	tst.w	lr, #16
 800086c:	bf08      	it	eq
 800086e:	ecb0 8a10 	vldmiaeq	r0!, {s16-s31}
 8000872:	f380 8809 	msr	PSP, r0
 8000876:	4770      	bx	lr
 8000878:	f3af 8000 	nop.w
 800087c:	f3af 8000 	nop.w

08000880 <pxCurrentTCBConst>:
 8000880:	20000168 	.word	0x20000168

08000884 <SysTick_Handler>:
{
 8000884:	b510      	push	{r4, lr}
	__asm volatile
 8000886:	f3ef 8411 	mrs	r4, BASEPRI
 800088a:	f04f 0350 	mov.w	r3, #80	@ 0x50
 800088e:	f383 8811 	msr	BASEPRI, r3
 8000892:	f3bf 8f6f 	isb	sy
 8000896:	f3bf 8f4f 	dsb	sy
		if( xTaskIncrementTick() != pdFALSE )
 800089a:	f002 f91b 	bl	8002ad4 <xTaskIncrementTick>
 800089e:	b128      	cbz	r0, 80008ac <SysTick_Handler+0x28>
			portNVIC_INT_CTRL_REG = portNVIC_PENDSVSET_BIT;
 80008a0:	f04f 23e0 	mov.w	r3, #3758153728	@ 0xe000e000
 80008a4:	f04f 5280 	mov.w	r2, #268435456	@ 0x10000000
 80008a8:	f8c3 2d04 	str.w	r2, [r3, #3332]	@ 0xd04
	__asm volatile
 80008ac:	f384 8811 	msr	BASEPRI, r4
}
 80008b0:	bd10      	pop	{r4, pc}

080008b2 <SVC_Handler>:
	__asm volatile
 80008b2:	f01e 0f04 	tst.w	lr, #4
 80008b6:	bf0c      	ite	eq
 80008b8:	f3ef 8008 	mrseq	r0, MSP
 80008bc:	f3ef 8009 	mrsne	r0, PSP
 80008c0:	e6c8      	b.n	8000654 <prvSVCHandler>

080008c2 <xPortStartScheduler>:
{
 80008c2:	b530      	push	{r4, r5, lr}
 80008c4:	b083      	sub	sp, #12
		ulOriginalPriority = *pucFirstUserPriorityRegister;
 80008c6:	4b35      	ldr	r3, [pc, #212]	@ (800099c <xPortStartScheduler+0xda>)
 80008c8:	781a      	ldrb	r2, [r3, #0]
 80008ca:	b2d2      	uxtb	r2, r2
 80008cc:	9201      	str	r2, [sp, #4]
		*pucFirstUserPriorityRegister = portMAX_8_BIT_VALUE;
 80008ce:	22ff      	movs	r2, #255	@ 0xff
 80008d0:	701a      	strb	r2, [r3, #0]
		ucMaxPriorityValue = *pucFirstUserPriorityRegister;
 80008d2:	781b      	ldrb	r3, [r3, #0]
 80008d4:	b2db      	uxtb	r3, r3
 80008d6:	f88d 3003 	strb.w	r3, [sp, #3]
		ucMaxSysCallPriority = configMAX_SYSCALL_INTERRUPT_PRIORITY & ucMaxPriorityValue;
 80008da:	f89d 3003 	ldrb.w	r3, [sp, #3]
 80008de:	f003 0350 	and.w	r3, r3, #80	@ 0x50
 80008e2:	4a2f      	ldr	r2, [pc, #188]	@ (80009a0 <xPortStartScheduler+0xde>)
 80008e4:	7013      	strb	r3, [r2, #0]
		ulMaxPRIGROUPValue = portMAX_PRIGROUP_BITS;
 80008e6:	4b2f      	ldr	r3, [pc, #188]	@ (80009a4 <xPortStartScheduler+0xe2>)
 80008e8:	2207      	movs	r2, #7
 80008ea:	601a      	str	r2, [r3, #0]
		while( ( ucMaxPriorityValue & portTOP_BIT_OF_BYTE ) == portTOP_BIT_OF_BYTE )
 80008ec:	e009      	b.n	8000902 <xPortStartScheduler+0x40>
			ulMaxPRIGROUPValue--;
 80008ee:	4a2d      	ldr	r2, [pc, #180]	@ (80009a4 <xPortStartScheduler+0xe2>)
 80008f0:	6813      	ldr	r3, [r2, #0]
 80008f2:	3b01      	subs	r3, #1
 80008f4:	6013      	str	r3, [r2, #0]
			ucMaxPriorityValue <<= ( uint8_t ) 0x01;
 80008f6:	f89d 3003 	ldrb.w	r3, [sp, #3]
 80008fa:	005b      	lsls	r3, r3, #1
 80008fc:	b2db      	uxtb	r3, r3
 80008fe:	f88d 3003 	strb.w	r3, [sp, #3]
		while( ( ucMaxPriorityValue & portTOP_BIT_OF_BYTE ) == portTOP_BIT_OF_BYTE )
 8000902:	f89d 3003 	ldrb.w	r3, [sp, #3]
 8000906:	f013 0f80 	tst.w	r3, #128	@ 0x80
 800090a:	d1f0      	bne.n	80008ee <xPortStartScheduler+0x2c>
			configASSERT( ( portMAX_PRIGROUP_BITS - ulMaxPRIGROUPValue ) == configPRIO_BITS );
 800090c:	4b25      	ldr	r3, [pc, #148]	@ (80009a4 <xPortStartScheduler+0xe2>)
 800090e:	681b      	ldr	r3, [r3, #0]
 8000910:	2b03      	cmp	r3, #3
 8000912:	d008      	beq.n	8000926 <xPortStartScheduler+0x64>
	__asm volatile
 8000914:	f04f 0350 	mov.w	r3, #80	@ 0x50
 8000918:	f383 8811 	msr	BASEPRI, r3
 800091c:	f3bf 8f6f 	isb	sy
 8000920:	f3bf 8f4f 	dsb	sy
 8000924:	e7fe      	b.n	8000924 <xPortStartScheduler+0x62>
		ulMaxPRIGROUPValue <<= portPRIGROUP_SHIFT;
 8000926:	021b      	lsls	r3, r3, #8
 8000928:	4a1e      	ldr	r2, [pc, #120]	@ (80009a4 <xPortStartScheduler+0xe2>)
 800092a:	6013      	str	r3, [r2, #0]
		ulMaxPRIGROUPValue &= portPRIORITY_GROUP_MASK;
 800092c:	f403 63e0 	and.w	r3, r3, #1792	@ 0x700
 8000930:	6013      	str	r3, [r2, #0]
		*pucFirstUserPriorityRegister = ulOriginalPriority;
 8000932:	9b01      	ldr	r3, [sp, #4]
 8000934:	b2db      	uxtb	r3, r3
 8000936:	4a19      	ldr	r2, [pc, #100]	@ (800099c <xPortStartScheduler+0xda>)
 8000938:	7013      	strb	r3, [r2, #0]
	portNVIC_SYSPRI2_REG |= portNVIC_PENDSV_PRI;
 800093a:	f04f 24e0 	mov.w	r4, #3758153728	@ 0xe000e000
 800093e:	f8d4 3d20 	ldr.w	r3, [r4, #3360]	@ 0xd20
 8000942:	f443 0370 	orr.w	r3, r3, #15728640	@ 0xf00000
 8000946:	f8c4 3d20 	str.w	r3, [r4, #3360]	@ 0xd20
	portNVIC_SYSPRI2_REG |= portNVIC_SYSTICK_PRI;
 800094a:	f8d4 3d20 	ldr.w	r3, [r4, #3360]	@ 0xd20
 800094e:	f043 4370 	orr.w	r3, r3, #4026531840	@ 0xf0000000
 8000952:	f8c4 3d20 	str.w	r3, [r4, #3360]	@ 0xd20
	prvSetupMPU();
 8000956:	f7ff fdee 	bl	8000536 <prvSetupMPU>
	vPortSetupTimerInterrupt();
 800095a:	f003 fde7 	bl	800452c <vPortSetupTimerInterrupt>
	uxCriticalNesting = 0;
 800095e:	2500      	movs	r5, #0
 8000960:	4b11      	ldr	r3, [pc, #68]	@ (80009a8 <xPortStartScheduler+0xe6>)
 8000962:	601d      	str	r5, [r3, #0]
	vPortEnableVFP();
 8000964:	f003 fdaa 	bl	80044bc <vPortEnableVFP>
	*( portFPCCR ) |= portASPEN_AND_LSPEN_BITS;
 8000968:	f8d4 3f34 	ldr.w	r3, [r4, #3892]	@ 0xf34
 800096c:	f043 4340 	orr.w	r3, r3, #3221225472	@ 0xc0000000
 8000970:	f8c4 3f34 	str.w	r3, [r4, #3892]	@ 0xf34
	__asm volatile(
 8000974:	480d      	ldr	r0, [pc, #52]	@ (80009ac <xPortStartScheduler+0xea>)
 8000976:	6800      	ldr	r0, [r0, #0]
 8000978:	6800      	ldr	r0, [r0, #0]
 800097a:	f380 8808 	msr	MSP, r0
 800097e:	f04f 0000 	mov.w	r0, #0
 8000982:	f380 8814 	msr	CONTROL, r0
 8000986:	b662      	cpsie	i
 8000988:	b661      	cpsie	f
 800098a:	f3bf 8f4f 	dsb	sy
 800098e:	f3bf 8f6f 	isb	sy
 8000992:	df00      	svc	0
 8000994:	bf00      	nop
}
 8000996:	4628      	mov	r0, r5
 8000998:	b003      	add	sp, #12
 800099a:	bd30      	pop	{r4, r5, pc}
 800099c:	e000e400 	.word	0xe000e400
 80009a0:	20001804 	.word	0x20001804
 80009a4:	20001800 	.word	0x20001800
 80009a8:	200001ec 	.word	0x200001ec
 80009ac:	e000ed08 	.word	0xe000ed08
 80009b0:	e000ed94 	.word	0xe000ed94
 80009b4:	e000ed9c 	.word	0xe000ed9c

080009b8 <prvGetDisinheritPriorityAfterTimeout>:
/*-----------------------------------------------------------*/

#if( configUSE_MUTEXES == 1 )

	static UBaseType_t prvGetDisinheritPriorityAfterTimeout( const Queue_t * const pxQueue )
	{
 80009b8:	4603      	mov	r3, r0
		priority, but the waiting task times out, then the holder should
		disinherit the priority - but only down to the highest priority of any
		other tasks that are waiting for the same mutex.  For this purpose,
		return the priority of the highest priority task that is waiting for the
		mutex. */
		if( listCURRENT_LIST_LENGTH( &( pxQueue->xTasksWaitingToReceive ) ) > 0U )
 80009ba:	6a40      	ldr	r0, [r0, #36]	@ 0x24
 80009bc:	b118      	cbz	r0, 80009c6 <prvGetDisinheritPriorityAfterTimeout+0xe>
		{
			uxHighestPriorityOfWaitingTasks = ( UBaseType_t ) configMAX_PRIORITIES - ( UBaseType_t ) listGET_ITEM_VALUE_OF_HEAD_ENTRY( &( pxQueue->xTasksWaitingToReceive ) );
 80009be:	6b1b      	ldr	r3, [r3, #48]	@ 0x30
 80009c0:	6818      	ldr	r0, [r3, #0]
 80009c2:	f1c0 0007 	rsb	r0, r0, #7
		{
			uxHighestPriorityOfWaitingTasks = tskIDLE_PRIORITY;
		}

		return uxHighestPriorityOfWaitingTasks;
	}
 80009c6:	4770      	bx	lr

080009c8 <prvIsQueueFull>:
	return xReturn;
} /*lint !e818 xQueue could not be pointer to const because it is a typedef. */
/*-----------------------------------------------------------*/

static BaseType_t prvIsQueueFull( const Queue_t *pxQueue )
{
 80009c8:	b510      	push	{r4, lr}
 80009ca:	4604      	mov	r4, r0
BaseType_t xReturn;

	taskENTER_CRITICAL();
 80009cc:	f003 fd80 	bl	80044d0 <vPortEnterCritical>
	{
		if( pxQueue->uxMessagesWaiting == pxQueue->uxLength )
 80009d0:	6ba2      	ldr	r2, [r4, #56]	@ 0x38
 80009d2:	6be3      	ldr	r3, [r4, #60]	@ 0x3c
 80009d4:	429a      	cmp	r2, r3
 80009d6:	d004      	beq.n	80009e2 <prvIsQueueFull+0x1a>
		{
			xReturn = pdTRUE;
		}
		else
		{
			xReturn = pdFALSE;
 80009d8:	2400      	movs	r4, #0
		}
	}
	taskEXIT_CRITICAL();
 80009da:	f003 fd8d 	bl	80044f8 <vPortExitCritical>

	return xReturn;
}
 80009de:	4620      	mov	r0, r4
 80009e0:	bd10      	pop	{r4, pc}
			xReturn = pdTRUE;
 80009e2:	2401      	movs	r4, #1
 80009e4:	e7f9      	b.n	80009da <prvIsQueueFull+0x12>

080009e6 <prvUnlockQueue>:
{
 80009e6:	b538      	push	{r3, r4, r5, lr}
 80009e8:	4605      	mov	r5, r0
	taskENTER_CRITICAL();
 80009ea:	f003 fd71 	bl	80044d0 <vPortEnterCritical>
		int8_t cTxLock = pxQueue->cTxLock;
 80009ee:	f895 4045 	ldrb.w	r4, [r5, #69]	@ 0x45
 80009f2:	b264      	sxtb	r4, r4
		while( cTxLock > queueLOCKED_UNMODIFIED )
 80009f4:	e001      	b.n	80009fa <prvUnlockQueue+0x14>
			--cTxLock;
 80009f6:	3c01      	subs	r4, #1
 80009f8:	b264      	sxtb	r4, r4
		while( cTxLock > queueLOCKED_UNMODIFIED )
 80009fa:	2c00      	cmp	r4, #0
 80009fc:	dd0a      	ble.n	8000a14 <prvUnlockQueue+0x2e>
				if( listLIST_IS_EMPTY( &( pxQueue->xTasksWaitingToReceive ) ) == pdFALSE )
 80009fe:	6a6b      	ldr	r3, [r5, #36]	@ 0x24
 8000a00:	b143      	cbz	r3, 8000a14 <prvUnlockQueue+0x2e>
					if( xTaskRemoveFromEventList( &( pxQueue->xTasksWaitingToReceive ) ) != pdFALSE )
 8000a02:	f105 0024 	add.w	r0, r5, #36	@ 0x24
 8000a06:	f002 fa2b 	bl	8002e60 <xTaskRemoveFromEventList>
 8000a0a:	2800      	cmp	r0, #0
 8000a0c:	d0f3      	beq.n	80009f6 <prvUnlockQueue+0x10>
						vTaskMissedYield();
 8000a0e:	f002 fb87 	bl	8003120 <vTaskMissedYield>
 8000a12:	e7f0      	b.n	80009f6 <prvUnlockQueue+0x10>
		pxQueue->cTxLock = queueUNLOCKED;
 8000a14:	23ff      	movs	r3, #255	@ 0xff
 8000a16:	f885 3045 	strb.w	r3, [r5, #69]	@ 0x45
	taskEXIT_CRITICAL();
 8000a1a:	f003 fd6d 	bl	80044f8 <vPortExitCritical>
	taskENTER_CRITICAL();
 8000a1e:	f003 fd57 	bl	80044d0 <vPortEnterCritical>
		int8_t cRxLock = pxQueue->cRxLock;
 8000a22:	f895 4044 	ldrb.w	r4, [r5, #68]	@ 0x44
 8000a26:	b264      	sxtb	r4, r4
		while( cRxLock > queueLOCKED_UNMODIFIED )
 8000a28:	e001      	b.n	8000a2e <prvUnlockQueue+0x48>
				--cRxLock;
 8000a2a:	3c01      	subs	r4, #1
 8000a2c:	b264      	sxtb	r4, r4
		while( cRxLock > queueLOCKED_UNMODIFIED )
 8000a2e:	2c00      	cmp	r4, #0
 8000a30:	dd0a      	ble.n	8000a48 <prvUnlockQueue+0x62>
			if( listLIST_IS_EMPTY( &( pxQueue->xTasksWaitingToSend ) ) == pdFALSE )
 8000a32:	692b      	ldr	r3, [r5, #16]
 8000a34:	b143      	cbz	r3, 8000a48 <prvUnlockQueue+0x62>
				if( xTaskRemoveFromEventList( &( pxQueue->xTasksWaitingToSend ) ) != pdFALSE )
 8000a36:	f105 0010 	add.w	r0, r5, #16
 8000a3a:	f002 fa11 	bl	8002e60 <xTaskRemoveFromEventList>
 8000a3e:	2800      	cmp	r0, #0
 8000a40:	d0f3      	beq.n	8000a2a <prvUnlockQueue+0x44>
					vTaskMissedYield();
 8000a42:	f002 fb6d 	bl	8003120 <vTaskMissedYield>
 8000a46:	e7f0      	b.n	8000a2a <prvUnlockQueue+0x44>
		pxQueue->cRxLock = queueUNLOCKED;
 8000a48:	23ff      	movs	r3, #255	@ 0xff
 8000a4a:	f885 3044 	strb.w	r3, [r5, #68]	@ 0x44
	taskEXIT_CRITICAL();
 8000a4e:	f003 fd53 	bl	80044f8 <vPortExitCritical>
}
 8000a52:	bd38      	pop	{r3, r4, r5, pc}

08000a54 <prvIsQueueEmpty>:
{
 8000a54:	b510      	push	{r4, lr}
 8000a56:	4604      	mov	r4, r0
	taskENTER_CRITICAL();
 8000a58:	f003 fd3a 	bl	80044d0 <vPortEnterCritical>
		if( pxQueue->uxMessagesWaiting == ( UBaseType_t )  0 )
 8000a5c:	6ba3      	ldr	r3, [r4, #56]	@ 0x38
 8000a5e:	b923      	cbnz	r3, 8000a6a <prvIsQueueEmpty+0x16>
			xReturn = pdTRUE;
 8000a60:	2401      	movs	r4, #1
	taskEXIT_CRITICAL();
 8000a62:	f003 fd49 	bl	80044f8 <vPortExitCritical>
}
 8000a66:	4620      	mov	r0, r4
 8000a68:	bd10      	pop	{r4, pc}
			xReturn = pdFALSE;
 8000a6a:	2400      	movs	r4, #0
 8000a6c:	e7f9      	b.n	8000a62 <prvIsQueueEmpty+0xe>

08000a6e <prvCopyDataToQueue>:
{
 8000a6e:	b570      	push	{r4, r5, r6, lr}
 8000a70:	4604      	mov	r4, r0
 8000a72:	4615      	mov	r5, r2
	uxMessagesWaiting = pxQueue->uxMessagesWaiting;
 8000a74:	6b86      	ldr	r6, [r0, #56]	@ 0x38
	if( pxQueue->uxItemSize == ( UBaseType_t ) 0 )
 8000a76:	6c02      	ldr	r2, [r0, #64]	@ 0x40
 8000a78:	b95a      	cbnz	r2, 8000a92 <prvCopyDataToQueue+0x24>
			if( pxQueue->uxQueueType == queueQUEUE_IS_MUTEX )
 8000a7a:	6803      	ldr	r3, [r0, #0]
 8000a7c:	b11b      	cbz	r3, 8000a86 <prvCopyDataToQueue+0x18>
BaseType_t xReturn = pdFALSE;
 8000a7e:	2000      	movs	r0, #0
	pxQueue->uxMessagesWaiting = uxMessagesWaiting + ( UBaseType_t ) 1;
 8000a80:	3601      	adds	r6, #1
 8000a82:	63a6      	str	r6, [r4, #56]	@ 0x38
}
 8000a84:	bd70      	pop	{r4, r5, r6, pc}
				xReturn = xTaskPriorityDisinherit( pxQueue->u.xSemaphore.xMutexHolder );
 8000a86:	6880      	ldr	r0, [r0, #8]
 8000a88:	f002 fbb6 	bl	80031f8 <xTaskPriorityDisinherit>
				pxQueue->u.xSemaphore.xMutexHolder = NULL;
 8000a8c:	2300      	movs	r3, #0
 8000a8e:	60a3      	str	r3, [r4, #8]
 8000a90:	e7f6      	b.n	8000a80 <prvCopyDataToQueue+0x12>
	else if( xPosition == queueSEND_TO_BACK )
 8000a92:	b96d      	cbnz	r5, 8000ab0 <prvCopyDataToQueue+0x42>
		( void ) memcpy( ( void * ) pxQueue->pcWriteTo, pvItemToQueue, ( size_t ) pxQueue->uxItemSize ); /*lint !e961 !e418 !e9087 MISRA exception as the casts are only redundant for some ports, plus previous logic ensures a null pointer can only be passed to memcpy() if the copy size is 0.  Cast to void required by function signature and safe as no alignment requirement and copy length specified in bytes. */
 8000a94:	6840      	ldr	r0, [r0, #4]
 8000a96:	f003 f8a5 	bl	8003be4 <memcpy>
		pxQueue->pcWriteTo += pxQueue->uxItemSize; /*lint !e9016 Pointer arithmetic on char types ok, especially in this use case where it is the clearest way of conveying intent. */
 8000a9a:	6863      	ldr	r3, [r4, #4]
 8000a9c:	6c22      	ldr	r2, [r4, #64]	@ 0x40
 8000a9e:	4413      	add	r3, r2
 8000aa0:	6063      	str	r3, [r4, #4]
		if( pxQueue->pcWriteTo >= pxQueue->u.xQueue.pcTail ) /*lint !e946 MISRA exception justified as comparison of pointers is the cleanest solution. */
 8000aa2:	68a2      	ldr	r2, [r4, #8]
 8000aa4:	4293      	cmp	r3, r2
 8000aa6:	d319      	bcc.n	8000adc <prvCopyDataToQueue+0x6e>
			pxQueue->pcWriteTo = pxQueue->pcHead;
 8000aa8:	6823      	ldr	r3, [r4, #0]
 8000aaa:	6063      	str	r3, [r4, #4]
BaseType_t xReturn = pdFALSE;
 8000aac:	4628      	mov	r0, r5
 8000aae:	e7e7      	b.n	8000a80 <prvCopyDataToQueue+0x12>
		( void ) memcpy( ( void * ) pxQueue->u.xQueue.pcReadFrom, pvItemToQueue, ( size_t ) pxQueue->uxItemSize ); /*lint !e961 !e9087 !e418 MISRA exception as the casts are only redundant for some ports.  Cast to void required by function signature and safe as no alignment requirement and copy length specified in bytes.  Assert checks null pointer only used when length is 0. */
 8000ab0:	68c0      	ldr	r0, [r0, #12]
 8000ab2:	f003 f897 	bl	8003be4 <memcpy>
		pxQueue->u.xQueue.pcReadFrom -= pxQueue->uxItemSize;
 8000ab6:	68e3      	ldr	r3, [r4, #12]
 8000ab8:	6c22      	ldr	r2, [r4, #64]	@ 0x40
 8000aba:	4251      	negs	r1, r2
 8000abc:	1a9b      	subs	r3, r3, r2
 8000abe:	60e3      	str	r3, [r4, #12]
		if( pxQueue->u.xQueue.pcReadFrom < pxQueue->pcHead ) /*lint !e946 MISRA exception justified as comparison of pointers is the cleanest solution. */
 8000ac0:	6822      	ldr	r2, [r4, #0]
 8000ac2:	4293      	cmp	r3, r2
 8000ac4:	d202      	bcs.n	8000acc <prvCopyDataToQueue+0x5e>
			pxQueue->u.xQueue.pcReadFrom = ( pxQueue->u.xQueue.pcTail - pxQueue->uxItemSize );
 8000ac6:	68a3      	ldr	r3, [r4, #8]
 8000ac8:	440b      	add	r3, r1
 8000aca:	60e3      	str	r3, [r4, #12]
		if( xPosition == queueOVERWRITE )
 8000acc:	2d02      	cmp	r5, #2
 8000ace:	d001      	beq.n	8000ad4 <prvCopyDataToQueue+0x66>
BaseType_t xReturn = pdFALSE;
 8000ad0:	2000      	movs	r0, #0
 8000ad2:	e7d5      	b.n	8000a80 <prvCopyDataToQueue+0x12>
			if( uxMessagesWaiting > ( UBaseType_t ) 0 )
 8000ad4:	b126      	cbz	r6, 8000ae0 <prvCopyDataToQueue+0x72>
				--uxMessagesWaiting;
 8000ad6:	3e01      	subs	r6, #1
BaseType_t xReturn = pdFALSE;
 8000ad8:	2000      	movs	r0, #0
 8000ada:	e7d1      	b.n	8000a80 <prvCopyDataToQueue+0x12>
 8000adc:	4628      	mov	r0, r5
 8000ade:	e7cf      	b.n	8000a80 <prvCopyDataToQueue+0x12>
 8000ae0:	2000      	movs	r0, #0
 8000ae2:	e7cd      	b.n	8000a80 <prvCopyDataToQueue+0x12>

08000ae4 <prvCopyDataFromQueue>:
{
 8000ae4:	4603      	mov	r3, r0
	if( pxQueue->uxItemSize != ( UBaseType_t ) 0 )
 8000ae6:	6c02      	ldr	r2, [r0, #64]	@ 0x40
 8000ae8:	b16a      	cbz	r2, 8000b06 <prvCopyDataFromQueue+0x22>
{
 8000aea:	b510      	push	{r4, lr}
 8000aec:	4608      	mov	r0, r1
		pxQueue->u.xQueue.pcReadFrom += pxQueue->uxItemSize; /*lint !e9016 Pointer arithmetic on char types ok, especially in this use case where it is the clearest way of conveying intent. */
 8000aee:	68d9      	ldr	r1, [r3, #12]
 8000af0:	4411      	add	r1, r2
 8000af2:	60d9      	str	r1, [r3, #12]
		if( pxQueue->u.xQueue.pcReadFrom >= pxQueue->u.xQueue.pcTail ) /*lint !e946 MISRA exception justified as use of the relational operator is the cleanest solutions. */
 8000af4:	689c      	ldr	r4, [r3, #8]
 8000af6:	42a1      	cmp	r1, r4
 8000af8:	d301      	bcc.n	8000afe <prvCopyDataFromQueue+0x1a>
			pxQueue->u.xQueue.pcReadFrom = pxQueue->pcHead;
 8000afa:	6819      	ldr	r1, [r3, #0]
 8000afc:	60d9      	str	r1, [r3, #12]
		( void ) memcpy( ( void * ) pvBuffer, ( void * ) pxQueue->u.xQueue.pcReadFrom, ( size_t ) pxQueue->uxItemSize ); /*lint !e961 !e418 !e9087 MISRA exception as the casts are only redundant for some ports.  Also previous logic ensures a null pointer can only be passed to memcpy() when the count is 0.  Cast to void required by function signature and safe as no alignment requirement and copy length specified in bytes. */
 8000afe:	68d9      	ldr	r1, [r3, #12]
 8000b00:	f003 f870 	bl	8003be4 <memcpy>
}
 8000b04:	bd10      	pop	{r4, pc}
 8000b06:	4770      	bx	lr

08000b08 <xQueueGenericSend>:
{
 8000b08:	b5f0      	push	{r4, r5, r6, r7, lr}
 8000b0a:	b085      	sub	sp, #20
 8000b0c:	9201      	str	r2, [sp, #4]
	configASSERT( pxQueue );
 8000b0e:	b188      	cbz	r0, 8000b34 <xQueueGenericSend+0x2c>
 8000b10:	460f      	mov	r7, r1
 8000b12:	461d      	mov	r5, r3
 8000b14:	4604      	mov	r4, r0
	configASSERT( !( ( pvItemToQueue == NULL ) && ( pxQueue->uxItemSize != ( UBaseType_t ) 0U ) ) );
 8000b16:	b1b1      	cbz	r1, 8000b46 <xQueueGenericSend+0x3e>
	configASSERT( !( ( xCopyPosition == queueOVERWRITE ) && ( pxQueue->uxLength != 1 ) ) );
 8000b18:	2d02      	cmp	r5, #2
 8000b1a:	d120      	bne.n	8000b5e <xQueueGenericSend+0x56>
 8000b1c:	6be3      	ldr	r3, [r4, #60]	@ 0x3c
 8000b1e:	2b01      	cmp	r3, #1
 8000b20:	d01d      	beq.n	8000b5e <xQueueGenericSend+0x56>
 8000b22:	f04f 0350 	mov.w	r3, #80	@ 0x50
 8000b26:	f383 8811 	msr	BASEPRI, r3
 8000b2a:	f3bf 8f6f 	isb	sy
 8000b2e:	f3bf 8f4f 	dsb	sy
 8000b32:	e7fe      	b.n	8000b32 <xQueueGenericSend+0x2a>
 8000b34:	f04f 0350 	mov.w	r3, #80	@ 0x50
 8000b38:	f383 8811 	msr	BASEPRI, r3
 8000b3c:	f3bf 8f6f 	isb	sy
 8000b40:	f3bf 8f4f 	dsb	sy
	configASSERT( pxQueue );
 8000b44:	e7fe      	b.n	8000b44 <xQueueGenericSend+0x3c>
	configASSERT( !( ( pvItemToQueue == NULL ) && ( pxQueue->uxItemSize != ( UBaseType_t ) 0U ) ) );
 8000b46:	6c03      	ldr	r3, [r0, #64]	@ 0x40
 8000b48:	2b00      	cmp	r3, #0
 8000b4a:	d0e5      	beq.n	8000b18 <xQueueGenericSend+0x10>
 8000b4c:	f04f 0350 	mov.w	r3, #80	@ 0x50
 8000b50:	f383 8811 	msr	BASEPRI, r3
 8000b54:	f3bf 8f6f 	isb	sy
 8000b58:	f3bf 8f4f 	dsb	sy
 8000b5c:	e7fe      	b.n	8000b5c <xQueueGenericSend+0x54>
		configASSERT( !( ( xTaskGetSchedulerState() == taskSCHEDULER_SUSPENDED ) && ( xTicksToWait != 0 ) ) );
 8000b5e:	f002 fae5 	bl	800312c <xTaskGetSchedulerState>
 8000b62:	4606      	mov	r6, r0
 8000b64:	b958      	cbnz	r0, 8000b7e <xQueueGenericSend+0x76>
 8000b66:	9b01      	ldr	r3, [sp, #4]
 8000b68:	2b00      	cmp	r3, #0
 8000b6a:	d048      	beq.n	8000bfe <xQueueGenericSend+0xf6>
 8000b6c:	f04f 0350 	mov.w	r3, #80	@ 0x50
 8000b70:	f383 8811 	msr	BASEPRI, r3
 8000b74:	f3bf 8f6f 	isb	sy
 8000b78:	f3bf 8f4f 	dsb	sy
 8000b7c:	e7fe      	b.n	8000b7c <xQueueGenericSend+0x74>
 8000b7e:	2600      	movs	r6, #0
 8000b80:	e03d      	b.n	8000bfe <xQueueGenericSend+0xf6>
					xYieldRequired = prvCopyDataToQueue( pxQueue, pvItemToQueue, xCopyPosition );
 8000b82:	462a      	mov	r2, r5
 8000b84:	4639      	mov	r1, r7
 8000b86:	4620      	mov	r0, r4
 8000b88:	f7ff ff71 	bl	8000a6e <prvCopyDataToQueue>
					if( listLIST_IS_EMPTY( &( pxQueue->xTasksWaitingToReceive ) ) == pdFALSE )
 8000b8c:	6a63      	ldr	r3, [r4, #36]	@ 0x24
 8000b8e:	b97b      	cbnz	r3, 8000bb0 <xQueueGenericSend+0xa8>
					else if( xYieldRequired != pdFALSE )
 8000b90:	b148      	cbz	r0, 8000ba6 <xQueueGenericSend+0x9e>
						queueYIELD_IF_USING_PREEMPTION();
 8000b92:	f04f 23e0 	mov.w	r3, #3758153728	@ 0xe000e000
 8000b96:	f04f 5280 	mov.w	r2, #268435456	@ 0x10000000
 8000b9a:	f8c3 2d04 	str.w	r2, [r3, #3332]	@ 0xd04
 8000b9e:	f3bf 8f4f 	dsb	sy
 8000ba2:	f3bf 8f6f 	isb	sy
				taskEXIT_CRITICAL();
 8000ba6:	f003 fca7 	bl	80044f8 <vPortExitCritical>
				return pdPASS;
 8000baa:	2001      	movs	r0, #1
}
 8000bac:	b005      	add	sp, #20
 8000bae:	bdf0      	pop	{r4, r5, r6, r7, pc}
						if( xTaskRemoveFromEventList( &( pxQueue->xTasksWaitingToReceive ) ) != pdFALSE )
 8000bb0:	f104 0024 	add.w	r0, r4, #36	@ 0x24
 8000bb4:	f002 f954 	bl	8002e60 <xTaskRemoveFromEventList>
 8000bb8:	2800      	cmp	r0, #0
 8000bba:	d0f4      	beq.n	8000ba6 <xQueueGenericSend+0x9e>
							queueYIELD_IF_USING_PREEMPTION();
 8000bbc:	f04f 23e0 	mov.w	r3, #3758153728	@ 0xe000e000
 8000bc0:	f04f 5280 	mov.w	r2, #268435456	@ 0x10000000
 8000bc4:	f8c3 2d04 	str.w	r2, [r3, #3332]	@ 0xd04
 8000bc8:	f3bf 8f4f 	dsb	sy
 8000bcc:	f3bf 8f6f 	isb	sy
 8000bd0:	e7e9      	b.n	8000ba6 <xQueueGenericSend+0x9e>
					taskEXIT_CRITICAL();
 8000bd2:	f003 fc91 	bl	80044f8 <vPortExitCritical>
					return errQUEUE_FULL;
 8000bd6:	2000      	movs	r0, #0
 8000bd8:	e7e8      	b.n	8000bac <xQueueGenericSend+0xa4>
					vTaskInternalSetTimeOutState( &xTimeOut );
 8000bda:	a802      	add	r0, sp, #8
 8000bdc:	f002 fbea 	bl	80033b4 <vTaskInternalSetTimeOutState>
					xEntryTimeSet = pdTRUE;
 8000be0:	2601      	movs	r6, #1
 8000be2:	e019      	b.n	8000c18 <xQueueGenericSend+0x110>
		prvLockQueue( pxQueue );
 8000be4:	2300      	movs	r3, #0
 8000be6:	f884 3044 	strb.w	r3, [r4, #68]	@ 0x44
 8000bea:	e021      	b.n	8000c30 <xQueueGenericSend+0x128>
 8000bec:	2300      	movs	r3, #0
 8000bee:	f884 3045 	strb.w	r3, [r4, #69]	@ 0x45
 8000bf2:	e023      	b.n	8000c3c <xQueueGenericSend+0x134>
				prvUnlockQueue( pxQueue );
 8000bf4:	4620      	mov	r0, r4
 8000bf6:	f7ff fef6 	bl	80009e6 <prvUnlockQueue>
				( void ) xTaskResumeAll();
 8000bfa:	f001 fff9 	bl	8002bf0 <xTaskResumeAll>
		taskENTER_CRITICAL();
 8000bfe:	f003 fc67 	bl	80044d0 <vPortEnterCritical>
			if( ( pxQueue->uxMessagesWaiting < pxQueue->uxLength ) || ( xCopyPosition == queueOVERWRITE ) )
 8000c02:	6ba2      	ldr	r2, [r4, #56]	@ 0x38
 8000c04:	6be3      	ldr	r3, [r4, #60]	@ 0x3c
 8000c06:	429a      	cmp	r2, r3
 8000c08:	d3bb      	bcc.n	8000b82 <xQueueGenericSend+0x7a>
 8000c0a:	2d02      	cmp	r5, #2
 8000c0c:	d0b9      	beq.n	8000b82 <xQueueGenericSend+0x7a>
				if( xTicksToWait == ( TickType_t ) 0 )
 8000c0e:	9b01      	ldr	r3, [sp, #4]
 8000c10:	2b00      	cmp	r3, #0
 8000c12:	d0de      	beq.n	8000bd2 <xQueueGenericSend+0xca>
				else if( xEntryTimeSet == pdFALSE )
 8000c14:	2e00      	cmp	r6, #0
 8000c16:	d0e0      	beq.n	8000bda <xQueueGenericSend+0xd2>
		taskEXIT_CRITICAL();
 8000c18:	f003 fc6e 	bl	80044f8 <vPortExitCritical>
		vTaskSuspendAll();
 8000c1c:	f001 fcf2 	bl	8002604 <vTaskSuspendAll>
		prvLockQueue( pxQueue );
 8000c20:	f003 fc56 	bl	80044d0 <vPortEnterCritical>
 8000c24:	f894 2044 	ldrb.w	r2, [r4, #68]	@ 0x44
 8000c28:	b252      	sxtb	r2, r2
 8000c2a:	f1b2 3fff 	cmp.w	r2, #4294967295	@ 0xffffffff
 8000c2e:	d0d9      	beq.n	8000be4 <xQueueGenericSend+0xdc>
 8000c30:	f894 2045 	ldrb.w	r2, [r4, #69]	@ 0x45
 8000c34:	b252      	sxtb	r2, r2
 8000c36:	f1b2 3fff 	cmp.w	r2, #4294967295	@ 0xffffffff
 8000c3a:	d0d7      	beq.n	8000bec <xQueueGenericSend+0xe4>
 8000c3c:	f003 fc5c 	bl	80044f8 <vPortExitCritical>
		if( xTaskCheckForTimeOut( &xTimeOut, &xTicksToWait ) == pdFALSE )
 8000c40:	a901      	add	r1, sp, #4
 8000c42:	a802      	add	r0, sp, #8
 8000c44:	f002 fbc2 	bl	80033cc <xTaskCheckForTimeOut>
 8000c48:	b9d8      	cbnz	r0, 8000c82 <xQueueGenericSend+0x17a>
			if( prvIsQueueFull( pxQueue ) != pdFALSE )
 8000c4a:	4620      	mov	r0, r4
 8000c4c:	f7ff febc 	bl	80009c8 <prvIsQueueFull>
 8000c50:	2800      	cmp	r0, #0
 8000c52:	d0cf      	beq.n	8000bf4 <xQueueGenericSend+0xec>
				vTaskPlaceOnEventList( &( pxQueue->xTasksWaitingToSend ), xTicksToWait );
 8000c54:	9901      	ldr	r1, [sp, #4]
 8000c56:	f104 0010 	add.w	r0, r4, #16
 8000c5a:	f002 f8bd 	bl	8002dd8 <vTaskPlaceOnEventList>
				prvUnlockQueue( pxQueue );
 8000c5e:	4620      	mov	r0, r4
 8000c60:	f7ff fec1 	bl	80009e6 <prvUnlockQueue>
				if( xTaskResumeAll() == pdFALSE )
 8000c64:	f001 ffc4 	bl	8002bf0 <xTaskResumeAll>
 8000c68:	2800      	cmp	r0, #0
 8000c6a:	d1c8      	bne.n	8000bfe <xQueueGenericSend+0xf6>
					portYIELD_WITHIN_API();
 8000c6c:	f04f 23e0 	mov.w	r3, #3758153728	@ 0xe000e000
 8000c70:	f04f 5280 	mov.w	r2, #268435456	@ 0x10000000
 8000c74:	f8c3 2d04 	str.w	r2, [r3, #3332]	@ 0xd04
 8000c78:	f3bf 8f4f 	dsb	sy
 8000c7c:	f3bf 8f6f 	isb	sy
 8000c80:	e7bd      	b.n	8000bfe <xQueueGenericSend+0xf6>
			prvUnlockQueue( pxQueue );
 8000c82:	4620      	mov	r0, r4
 8000c84:	f7ff feaf 	bl	80009e6 <prvUnlockQueue>
			( void ) xTaskResumeAll();
 8000c88:	f001 ffb2 	bl	8002bf0 <xTaskResumeAll>
			return errQUEUE_FULL;
 8000c8c:	2000      	movs	r0, #0
 8000c8e:	e78d      	b.n	8000bac <xQueueGenericSend+0xa4>

08000c90 <prvInitialiseMutex>:
		if( pxNewQueue != NULL )
 8000c90:	b148      	cbz	r0, 8000ca6 <prvInitialiseMutex+0x16>
	{
 8000c92:	b508      	push	{r3, lr}
			pxNewQueue->u.xSemaphore.xMutexHolder = NULL;
 8000c94:	2100      	movs	r1, #0
 8000c96:	6081      	str	r1, [r0, #8]
			pxNewQueue->uxQueueType = queueQUEUE_IS_MUTEX;
 8000c98:	6001      	str	r1, [r0, #0]
			pxNewQueue->u.xSemaphore.uxRecursiveCallCount = 0;
 8000c9a:	60c1      	str	r1, [r0, #12]
			( void ) xQueueGenericSend( pxNewQueue, NULL, ( TickType_t ) 0U, queueSEND_TO_BACK );
 8000c9c:	460b      	mov	r3, r1
 8000c9e:	460a      	mov	r2, r1
 8000ca0:	f7ff ff32 	bl	8000b08 <xQueueGenericSend>
	}
 8000ca4:	bd08      	pop	{r3, pc}
 8000ca6:	4770      	bx	lr

08000ca8 <xQueuePeek>:
{
 8000ca8:	b570      	push	{r4, r5, r6, lr}
 8000caa:	b084      	sub	sp, #16
 8000cac:	9201      	str	r2, [sp, #4]
	configASSERT( ( pxQueue ) );
 8000cae:	b190      	cbz	r0, 8000cd6 <xQueuePeek+0x2e>
 8000cb0:	460e      	mov	r6, r1
 8000cb2:	4604      	mov	r4, r0
	configASSERT( !( ( ( pvBuffer ) == NULL ) && ( ( pxQueue )->uxItemSize != ( UBaseType_t ) 0U ) ) );
 8000cb4:	b1c1      	cbz	r1, 8000ce8 <xQueuePeek+0x40>
		configASSERT( !( ( xTaskGetSchedulerState() == taskSCHEDULER_SUSPENDED ) && ( xTicksToWait != 0 ) ) );
 8000cb6:	f002 fa39 	bl	800312c <xTaskGetSchedulerState>
 8000cba:	4605      	mov	r5, r0
 8000cbc:	bb00      	cbnz	r0, 8000d00 <xQueuePeek+0x58>
 8000cbe:	9b01      	ldr	r3, [sp, #4]
 8000cc0:	2b00      	cmp	r3, #0
 8000cc2:	d05e      	beq.n	8000d82 <xQueuePeek+0xda>
 8000cc4:	f04f 0350 	mov.w	r3, #80	@ 0x50
 8000cc8:	f383 8811 	msr	BASEPRI, r3
 8000ccc:	f3bf 8f6f 	isb	sy
 8000cd0:	f3bf 8f4f 	dsb	sy
 8000cd4:	e7fe      	b.n	8000cd4 <xQueuePeek+0x2c>
 8000cd6:	f04f 0350 	mov.w	r3, #80	@ 0x50
 8000cda:	f383 8811 	msr	BASEPRI, r3
 8000cde:	f3bf 8f6f 	isb	sy
 8000ce2:	f3bf 8f4f 	dsb	sy
	configASSERT( ( pxQueue ) );
 8000ce6:	e7fe      	b.n	8000ce6 <xQueuePeek+0x3e>
	configASSERT( !( ( ( pvBuffer ) == NULL ) && ( ( pxQueue )->uxItemSize != ( UBaseType_t ) 0U ) ) );
 8000ce8:	6c03      	ldr	r3, [r0, #64]	@ 0x40
 8000cea:	2b00      	cmp	r3, #0
 8000cec:	d0e3      	beq.n	8000cb6 <xQueuePeek+0xe>
 8000cee:	f04f 0350 	mov.w	r3, #80	@ 0x50
 8000cf2:	f383 8811 	msr	BASEPRI, r3
 8000cf6:	f3bf 8f6f 	isb	sy
 8000cfa:	f3bf 8f4f 	dsb	sy
 8000cfe:	e7fe      	b.n	8000cfe <xQueuePeek+0x56>
 8000d00:	2500      	movs	r5, #0
 8000d02:	e03e      	b.n	8000d82 <xQueuePeek+0xda>
				pcOriginalReadPosition = pxQueue->u.xQueue.pcReadFrom;
 8000d04:	68e5      	ldr	r5, [r4, #12]
				prvCopyDataFromQueue( pxQueue, pvBuffer );
 8000d06:	4631      	mov	r1, r6
 8000d08:	4620      	mov	r0, r4
 8000d0a:	f7ff feeb 	bl	8000ae4 <prvCopyDataFromQueue>
				pxQueue->u.xQueue.pcReadFrom = pcOriginalReadPosition;
 8000d0e:	60e5      	str	r5, [r4, #12]
				if( listLIST_IS_EMPTY( &( pxQueue->xTasksWaitingToReceive ) ) == pdFALSE )
 8000d10:	6a63      	ldr	r3, [r4, #36]	@ 0x24
 8000d12:	b923      	cbnz	r3, 8000d1e <xQueuePeek+0x76>
				taskEXIT_CRITICAL();
 8000d14:	f003 fbf0 	bl	80044f8 <vPortExitCritical>
				return pdPASS;
 8000d18:	2001      	movs	r0, #1
}
 8000d1a:	b004      	add	sp, #16
 8000d1c:	bd70      	pop	{r4, r5, r6, pc}
					if( xTaskRemoveFromEventList( &( pxQueue->xTasksWaitingToReceive ) ) != pdFALSE )
 8000d1e:	f104 0024 	add.w	r0, r4, #36	@ 0x24
 8000d22:	f002 f89d 	bl	8002e60 <xTaskRemoveFromEventList>
 8000d26:	2800      	cmp	r0, #0
 8000d28:	d0f4      	beq.n	8000d14 <xQueuePeek+0x6c>
						queueYIELD_IF_USING_PREEMPTION();
 8000d2a:	f04f 23e0 	mov.w	r3, #3758153728	@ 0xe000e000
 8000d2e:	f04f 5280 	mov.w	r2, #268435456	@ 0x10000000
 8000d32:	f8c3 2d04 	str.w	r2, [r3, #3332]	@ 0xd04
 8000d36:	f3bf 8f4f 	dsb	sy
 8000d3a:	f3bf 8f6f 	isb	sy
 8000d3e:	e7e9      	b.n	8000d14 <xQueuePeek+0x6c>
					taskEXIT_CRITICAL();
 8000d40:	f003 fbda 	bl	80044f8 <vPortExitCritical>
					return errQUEUE_EMPTY;
 8000d44:	2000      	movs	r0, #0
 8000d46:	e7e8      	b.n	8000d1a <xQueuePeek+0x72>
					vTaskInternalSetTimeOutState( &xTimeOut );
 8000d48:	a802      	add	r0, sp, #8
 8000d4a:	f002 fb33 	bl	80033b4 <vTaskInternalSetTimeOutState>
					xEntryTimeSet = pdTRUE;
 8000d4e:	2501      	movs	r5, #1
 8000d50:	e021      	b.n	8000d96 <xQueuePeek+0xee>
		prvLockQueue( pxQueue );
 8000d52:	2300      	movs	r3, #0
 8000d54:	f884 3044 	strb.w	r3, [r4, #68]	@ 0x44
 8000d58:	e029      	b.n	8000dae <xQueuePeek+0x106>
 8000d5a:	2300      	movs	r3, #0
 8000d5c:	f884 3045 	strb.w	r3, [r4, #69]	@ 0x45
 8000d60:	e02b      	b.n	8000dba <xQueuePeek+0x112>
				prvUnlockQueue( pxQueue );
 8000d62:	4620      	mov	r0, r4
 8000d64:	f7ff fe3f 	bl	80009e6 <prvUnlockQueue>
				( void ) xTaskResumeAll();
 8000d68:	f001 ff42 	bl	8002bf0 <xTaskResumeAll>
 8000d6c:	e009      	b.n	8000d82 <xQueuePeek+0xda>
			prvUnlockQueue( pxQueue );
 8000d6e:	4620      	mov	r0, r4
 8000d70:	f7ff fe39 	bl	80009e6 <prvUnlockQueue>
			( void ) xTaskResumeAll();
 8000d74:	f001 ff3c 	bl	8002bf0 <xTaskResumeAll>
			if( prvIsQueueEmpty( pxQueue ) != pdFALSE )
 8000d78:	4620      	mov	r0, r4
 8000d7a:	f7ff fe6b 	bl	8000a54 <prvIsQueueEmpty>
 8000d7e:	2800      	cmp	r0, #0
 8000d80:	d13f      	bne.n	8000e02 <xQueuePeek+0x15a>
		taskENTER_CRITICAL();
 8000d82:	f003 fba5 	bl	80044d0 <vPortEnterCritical>
			const UBaseType_t uxMessagesWaiting = pxQueue->uxMessagesWaiting;
 8000d86:	6ba3      	ldr	r3, [r4, #56]	@ 0x38
			if( uxMessagesWaiting > ( UBaseType_t ) 0 )
 8000d88:	2b00      	cmp	r3, #0
 8000d8a:	d1bb      	bne.n	8000d04 <xQueuePeek+0x5c>
				if( xTicksToWait == ( TickType_t ) 0 )
 8000d8c:	9b01      	ldr	r3, [sp, #4]
 8000d8e:	2b00      	cmp	r3, #0
 8000d90:	d0d6      	beq.n	8000d40 <xQueuePeek+0x98>
				else if( xEntryTimeSet == pdFALSE )
 8000d92:	2d00      	cmp	r5, #0
 8000d94:	d0d8      	beq.n	8000d48 <xQueuePeek+0xa0>
		taskEXIT_CRITICAL();
 8000d96:	f003 fbaf 	bl	80044f8 <vPortExitCritical>
		vTaskSuspendAll();
 8000d9a:	f001 fc33 	bl	8002604 <vTaskSuspendAll>
		prvLockQueue( pxQueue );
 8000d9e:	f003 fb97 	bl	80044d0 <vPortEnterCritical>
 8000da2:	f894 3044 	ldrb.w	r3, [r4, #68]	@ 0x44
 8000da6:	b25b      	sxtb	r3, r3
 8000da8:	f1b3 3fff 	cmp.w	r3, #4294967295	@ 0xffffffff
 8000dac:	d0d1      	beq.n	8000d52 <xQueuePeek+0xaa>
 8000dae:	f894 3045 	ldrb.w	r3, [r4, #69]	@ 0x45
 8000db2:	b25b      	sxtb	r3, r3
 8000db4:	f1b3 3fff 	cmp.w	r3, #4294967295	@ 0xffffffff
 8000db8:	d0cf      	beq.n	8000d5a <xQueuePeek+0xb2>
 8000dba:	f003 fb9d 	bl	80044f8 <vPortExitCritical>
		if( xTaskCheckForTimeOut( &xTimeOut, &xTicksToWait ) == pdFALSE )
 8000dbe:	a901      	add	r1, sp, #4
 8000dc0:	a802      	add	r0, sp, #8
 8000dc2:	f002 fb03 	bl	80033cc <xTaskCheckForTimeOut>
 8000dc6:	2800      	cmp	r0, #0
 8000dc8:	d1d1      	bne.n	8000d6e <xQueuePeek+0xc6>
			if( prvIsQueueEmpty( pxQueue ) != pdFALSE )
 8000dca:	4620      	mov	r0, r4
 8000dcc:	f7ff fe42 	bl	8000a54 <prvIsQueueEmpty>
 8000dd0:	2800      	cmp	r0, #0
 8000dd2:	d0c6      	beq.n	8000d62 <xQueuePeek+0xba>
				vTaskPlaceOnEventList( &( pxQueue->xTasksWaitingToReceive ), xTicksToWait );
 8000dd4:	9901      	ldr	r1, [sp, #4]
 8000dd6:	f104 0024 	add.w	r0, r4, #36	@ 0x24
 8000dda:	f001 fffd 	bl	8002dd8 <vTaskPlaceOnEventList>
				prvUnlockQueue( pxQueue );
 8000dde:	4620      	mov	r0, r4
 8000de0:	f7ff fe01 	bl	80009e6 <prvUnlockQueue>
				if( xTaskResumeAll() == pdFALSE )
 8000de4:	f001 ff04 	bl	8002bf0 <xTaskResumeAll>
 8000de8:	2800      	cmp	r0, #0
 8000dea:	d1ca      	bne.n	8000d82 <xQueuePeek+0xda>
					portYIELD_WITHIN_API();
 8000dec:	f04f 23e0 	mov.w	r3, #3758153728	@ 0xe000e000
 8000df0:	f04f 5280 	mov.w	r2, #268435456	@ 0x10000000
 8000df4:	f8c3 2d04 	str.w	r2, [r3, #3332]	@ 0xd04
 8000df8:	f3bf 8f4f 	dsb	sy
 8000dfc:	f3bf 8f6f 	isb	sy
 8000e00:	e7bf      	b.n	8000d82 <xQueuePeek+0xda>
				return errQUEUE_EMPTY;
 8000e02:	2000      	movs	r0, #0
 8000e04:	e789      	b.n	8000d1a <xQueuePeek+0x72>

08000e06 <xQueuePeekFromISR>:
{
 8000e06:	b5f8      	push	{r3, r4, r5, r6, r7, lr}
	configASSERT( pxQueue );
 8000e08:	b168      	cbz	r0, 8000e26 <xQueuePeekFromISR+0x20>
 8000e0a:	460d      	mov	r5, r1
 8000e0c:	4604      	mov	r4, r0
	configASSERT( !( ( pvBuffer == NULL ) && ( pxQueue->uxItemSize != ( UBaseType_t ) 0U ) ) );
 8000e0e:	b199      	cbz	r1, 8000e38 <xQueuePeekFromISR+0x32>
	configASSERT( pxQueue->uxItemSize != 0 ); /* Can't peek a semaphore. */
 8000e10:	6c23      	ldr	r3, [r4, #64]	@ 0x40
 8000e12:	b9eb      	cbnz	r3, 8000e50 <xQueuePeekFromISR+0x4a>
 8000e14:	f04f 0350 	mov.w	r3, #80	@ 0x50
 8000e18:	f383 8811 	msr	BASEPRI, r3
 8000e1c:	f3bf 8f6f 	isb	sy
 8000e20:	f3bf 8f4f 	dsb	sy
 8000e24:	e7fe      	b.n	8000e24 <xQueuePeekFromISR+0x1e>
 8000e26:	f04f 0350 	mov.w	r3, #80	@ 0x50
 8000e2a:	f383 8811 	msr	BASEPRI, r3
 8000e2e:	f3bf 8f6f 	isb	sy
 8000e32:	f3bf 8f4f 	dsb	sy
	configASSERT( pxQueue );
 8000e36:	e7fe      	b.n	8000e36 <xQueuePeekFromISR+0x30>
	configASSERT( !( ( pvBuffer == NULL ) && ( pxQueue->uxItemSize != ( UBaseType_t ) 0U ) ) );
 8000e38:	6c03      	ldr	r3, [r0, #64]	@ 0x40
 8000e3a:	2b00      	cmp	r3, #0
 8000e3c:	d0e8      	beq.n	8000e10 <xQueuePeekFromISR+0xa>
 8000e3e:	f04f 0350 	mov.w	r3, #80	@ 0x50
 8000e42:	f383 8811 	msr	BASEPRI, r3
 8000e46:	f3bf 8f6f 	isb	sy
 8000e4a:	f3bf 8f4f 	dsb	sy
 8000e4e:	e7fe      	b.n	8000e4e <xQueuePeekFromISR+0x48>
	portASSERT_IF_INTERRUPT_PRIORITY_INVALID();
 8000e50:	f003 fb96 	bl	8004580 <vPortValidateInterruptPriority>
	__asm volatile
 8000e54:	f3ef 8611 	mrs	r6, BASEPRI
 8000e58:	f04f 0350 	mov.w	r3, #80	@ 0x50
 8000e5c:	f383 8811 	msr	BASEPRI, r3
 8000e60:	f3bf 8f6f 	isb	sy
 8000e64:	f3bf 8f4f 	dsb	sy
		if( pxQueue->uxMessagesWaiting > ( UBaseType_t ) 0 )
 8000e68:	6ba3      	ldr	r3, [r4, #56]	@ 0x38
 8000e6a:	b91b      	cbnz	r3, 8000e74 <xQueuePeekFromISR+0x6e>
			xReturn = pdFAIL;
 8000e6c:	2000      	movs	r0, #0
	__asm volatile
 8000e6e:	f386 8811 	msr	BASEPRI, r6
}
 8000e72:	bdf8      	pop	{r3, r4, r5, r6, r7, pc}
			pcOriginalReadPosition = pxQueue->u.xQueue.pcReadFrom;
 8000e74:	68e7      	ldr	r7, [r4, #12]
			prvCopyDataFromQueue( pxQueue, pvBuffer );
 8000e76:	4629      	mov	r1, r5
 8000e78:	4620      	mov	r0, r4
 8000e7a:	f7ff fe33 	bl	8000ae4 <prvCopyDataFromQueue>
			pxQueue->u.xQueue.pcReadFrom = pcOriginalReadPosition;
 8000e7e:	60e7      	str	r7, [r4, #12]
			xReturn = pdPASS;
 8000e80:	2001      	movs	r0, #1
 8000e82:	e7f4      	b.n	8000e6e <xQueuePeekFromISR+0x68>

08000e84 <xQueueReceive>:
{
 8000e84:	b5f0      	push	{r4, r5, r6, r7, lr}
 8000e86:	b085      	sub	sp, #20
 8000e88:	9201      	str	r2, [sp, #4]
	configASSERT( ( pxQueue ) );
 8000e8a:	b190      	cbz	r0, 8000eb2 <xQueueReceive+0x2e>
 8000e8c:	460f      	mov	r7, r1
 8000e8e:	4604      	mov	r4, r0
	configASSERT( !( ( ( pvBuffer ) == NULL ) && ( ( pxQueue )->uxItemSize != ( UBaseType_t ) 0U ) ) );
 8000e90:	b1c1      	cbz	r1, 8000ec4 <xQueueReceive+0x40>
		configASSERT( !( ( xTaskGetSchedulerState() == taskSCHEDULER_SUSPENDED ) && ( xTicksToWait != 0 ) ) );
 8000e92:	f002 f94b 	bl	800312c <xTaskGetSchedulerState>
 8000e96:	4606      	mov	r6, r0
 8000e98:	bb00      	cbnz	r0, 8000edc <xQueueReceive+0x58>
 8000e9a:	9b01      	ldr	r3, [sp, #4]
 8000e9c:	2b00      	cmp	r3, #0
 8000e9e:	d05e      	beq.n	8000f5e <xQueueReceive+0xda>
	__asm volatile
 8000ea0:	f04f 0350 	mov.w	r3, #80	@ 0x50
 8000ea4:	f383 8811 	msr	BASEPRI, r3
 8000ea8:	f3bf 8f6f 	isb	sy
 8000eac:	f3bf 8f4f 	dsb	sy
 8000eb0:	e7fe      	b.n	8000eb0 <xQueueReceive+0x2c>
 8000eb2:	f04f 0350 	mov.w	r3, #80	@ 0x50
 8000eb6:	f383 8811 	msr	BASEPRI, r3
 8000eba:	f3bf 8f6f 	isb	sy
 8000ebe:	f3bf 8f4f 	dsb	sy
	configASSERT( ( pxQueue ) );
 8000ec2:	e7fe      	b.n	8000ec2 <xQueueReceive+0x3e>
	configASSERT( !( ( ( pvBuffer ) == NULL ) && ( ( pxQueue )->uxItemSize != ( UBaseType_t ) 0U ) ) );
 8000ec4:	6c03      	ldr	r3, [r0, #64]	@ 0x40
 8000ec6:	2b00      	cmp	r3, #0
 8000ec8:	d0e3      	beq.n	8000e92 <xQueueReceive+0xe>
 8000eca:	f04f 0350 	mov.w	r3, #80	@ 0x50
 8000ece:	f383 8811 	msr	BASEPRI, r3
 8000ed2:	f3bf 8f6f 	isb	sy
 8000ed6:	f3bf 8f4f 	dsb	sy
 8000eda:	e7fe      	b.n	8000eda <xQueueReceive+0x56>
 8000edc:	2600      	movs	r6, #0
 8000ede:	e03e      	b.n	8000f5e <xQueueReceive+0xda>
				prvCopyDataFromQueue( pxQueue, pvBuffer );
 8000ee0:	4639      	mov	r1, r7
 8000ee2:	4620      	mov	r0, r4
 8000ee4:	f7ff fdfe 	bl	8000ae4 <prvCopyDataFromQueue>
				pxQueue->uxMessagesWaiting = uxMessagesWaiting - ( UBaseType_t ) 1;
 8000ee8:	3d01      	subs	r5, #1
 8000eea:	63a5      	str	r5, [r4, #56]	@ 0x38
				if( listLIST_IS_EMPTY( &( pxQueue->xTasksWaitingToSend ) ) == pdFALSE )
 8000eec:	6923      	ldr	r3, [r4, #16]
 8000eee:	b923      	cbnz	r3, 8000efa <xQueueReceive+0x76>
				taskEXIT_CRITICAL();
 8000ef0:	f003 fb02 	bl	80044f8 <vPortExitCritical>
				return pdPASS;
 8000ef4:	2001      	movs	r0, #1
}
 8000ef6:	b005      	add	sp, #20
 8000ef8:	bdf0      	pop	{r4, r5, r6, r7, pc}
					if( xTaskRemoveFromEventList( &( pxQueue->xTasksWaitingToSend ) ) != pdFALSE )
 8000efa:	f104 0010 	add.w	r0, r4, #16
 8000efe:	f001 ffaf 	bl	8002e60 <xTaskRemoveFromEventList>
 8000f02:	2800      	cmp	r0, #0
 8000f04:	d0f4      	beq.n	8000ef0 <xQueueReceive+0x6c>
						queueYIELD_IF_USING_PREEMPTION();
 8000f06:	f04f 23e0 	mov.w	r3, #3758153728	@ 0xe000e000
 8000f0a:	f04f 5280 	mov.w	r2, #268435456	@ 0x10000000
 8000f0e:	f8c3 2d04 	str.w	r2, [r3, #3332]	@ 0xd04
 8000f12:	f3bf 8f4f 	dsb	sy
 8000f16:	f3bf 8f6f 	isb	sy
 8000f1a:	e7e9      	b.n	8000ef0 <xQueueReceive+0x6c>
					taskEXIT_CRITICAL();
 8000f1c:	f003 faec 	bl	80044f8 <vPortExitCritical>
					return errQUEUE_EMPTY;
 8000f20:	2000      	movs	r0, #0
 8000f22:	e7e8      	b.n	8000ef6 <xQueueReceive+0x72>
					vTaskInternalSetTimeOutState( &xTimeOut );
 8000f24:	a802      	add	r0, sp, #8
 8000f26:	f002 fa45 	bl	80033b4 <vTaskInternalSetTimeOutState>
					xEntryTimeSet = pdTRUE;
 8000f2a:	2601      	movs	r6, #1
 8000f2c:	e021      	b.n	8000f72 <xQueueReceive+0xee>
		prvLockQueue( pxQueue );
 8000f2e:	2300      	movs	r3, #0
 8000f30:	f884 3044 	strb.w	r3, [r4, #68]	@ 0x44
 8000f34:	e029      	b.n	8000f8a <xQueueReceive+0x106>
 8000f36:	2300      	movs	r3, #0
 8000f38:	f884 3045 	strb.w	r3, [r4, #69]	@ 0x45
 8000f3c:	e02b      	b.n	8000f96 <xQueueReceive+0x112>
				prvUnlockQueue( pxQueue );
 8000f3e:	4620      	mov	r0, r4
 8000f40:	f7ff fd51 	bl	80009e6 <prvUnlockQueue>
				( void ) xTaskResumeAll();
 8000f44:	f001 fe54 	bl	8002bf0 <xTaskResumeAll>
 8000f48:	e009      	b.n	8000f5e <xQueueReceive+0xda>
			prvUnlockQueue( pxQueue );
 8000f4a:	4620      	mov	r0, r4
 8000f4c:	f7ff fd4b 	bl	80009e6 <prvUnlockQueue>
			( void ) xTaskResumeAll();
 8000f50:	f001 fe4e 	bl	8002bf0 <xTaskResumeAll>
			if( prvIsQueueEmpty( pxQueue ) != pdFALSE )
 8000f54:	4620      	mov	r0, r4
 8000f56:	f7ff fd7d 	bl	8000a54 <prvIsQueueEmpty>
 8000f5a:	2800      	cmp	r0, #0
 8000f5c:	d13f      	bne.n	8000fde <xQueueReceive+0x15a>
		taskENTER_CRITICAL();
 8000f5e:	f003 fab7 	bl	80044d0 <vPortEnterCritical>
			const UBaseType_t uxMessagesWaiting = pxQueue->uxMessagesWaiting;
 8000f62:	6ba5      	ldr	r5, [r4, #56]	@ 0x38
			if( uxMessagesWaiting > ( UBaseType_t ) 0 )
 8000f64:	2d00      	cmp	r5, #0
 8000f66:	d1bb      	bne.n	8000ee0 <xQueueReceive+0x5c>
				if( xTicksToWait == ( TickType_t ) 0 )
 8000f68:	9b01      	ldr	r3, [sp, #4]
 8000f6a:	2b00      	cmp	r3, #0
 8000f6c:	d0d6      	beq.n	8000f1c <xQueueReceive+0x98>
				else if( xEntryTimeSet == pdFALSE )
 8000f6e:	2e00      	cmp	r6, #0
 8000f70:	d0d8      	beq.n	8000f24 <xQueueReceive+0xa0>
		taskEXIT_CRITICAL();
 8000f72:	f003 fac1 	bl	80044f8 <vPortExitCritical>
		vTaskSuspendAll();
 8000f76:	f001 fb45 	bl	8002604 <vTaskSuspendAll>
		prvLockQueue( pxQueue );
 8000f7a:	f003 faa9 	bl	80044d0 <vPortEnterCritical>
 8000f7e:	f894 3044 	ldrb.w	r3, [r4, #68]	@ 0x44
 8000f82:	b25b      	sxtb	r3, r3
 8000f84:	f1b3 3fff 	cmp.w	r3, #4294967295	@ 0xffffffff
 8000f88:	d0d1      	beq.n	8000f2e <xQueueReceive+0xaa>
 8000f8a:	f894 3045 	ldrb.w	r3, [r4, #69]	@ 0x45
 8000f8e:	b25b      	sxtb	r3, r3
 8000f90:	f1b3 3fff 	cmp.w	r3, #4294967295	@ 0xffffffff
 8000f94:	d0cf      	beq.n	8000f36 <xQueueReceive+0xb2>
 8000f96:	f003 faaf 	bl	80044f8 <vPortExitCritical>
		if( xTaskCheckForTimeOut( &xTimeOut, &xTicksToWait ) == pdFALSE )
 8000f9a:	a901      	add	r1, sp, #4
 8000f9c:	a802      	add	r0, sp, #8
 8000f9e:	f002 fa15 	bl	80033cc <xTaskCheckForTimeOut>
 8000fa2:	2800      	cmp	r0, #0
 8000fa4:	d1d1      	bne.n	8000f4a <xQueueReceive+0xc6>
			if( prvIsQueueEmpty( pxQueue ) != pdFALSE )
 8000fa6:	4620      	mov	r0, r4
 8000fa8:	f7ff fd54 	bl	8000a54 <prvIsQueueEmpty>
 8000fac:	2800      	cmp	r0, #0
 8000fae:	d0c6      	beq.n	8000f3e <xQueueReceive+0xba>
				vTaskPlaceOnEventList( &( pxQueue->xTasksWaitingToReceive ), xTicksToWait );
 8000fb0:	9901      	ldr	r1, [sp, #4]
 8000fb2:	f104 0024 	add.w	r0, r4, #36	@ 0x24
 8000fb6:	f001 ff0f 	bl	8002dd8 <vTaskPlaceOnEventList>
				prvUnlockQueue( pxQueue );
 8000fba:	4620      	mov	r0, r4
 8000fbc:	f7ff fd13 	bl	80009e6 <prvUnlockQueue>
				if( xTaskResumeAll() == pdFALSE )
 8000fc0:	f001 fe16 	bl	8002bf0 <xTaskResumeAll>
 8000fc4:	2800      	cmp	r0, #0
 8000fc6:	d1ca      	bne.n	8000f5e <xQueueReceive+0xda>
					portYIELD_WITHIN_API();
 8000fc8:	f04f 23e0 	mov.w	r3, #3758153728	@ 0xe000e000
 8000fcc:	f04f 5280 	mov.w	r2, #268435456	@ 0x10000000
 8000fd0:	f8c3 2d04 	str.w	r2, [r3, #3332]	@ 0xd04
 8000fd4:	f3bf 8f4f 	dsb	sy
 8000fd8:	f3bf 8f6f 	isb	sy
 8000fdc:	e7bf      	b.n	8000f5e <xQueueReceive+0xda>
				return errQUEUE_EMPTY;
 8000fde:	2000      	movs	r0, #0
 8000fe0:	e789      	b.n	8000ef6 <xQueueReceive+0x72>

08000fe2 <uxQueueMessagesWaiting>:
	configASSERT( xQueue );
 8000fe2:	b140      	cbz	r0, 8000ff6 <uxQueueMessagesWaiting+0x14>
{
 8000fe4:	b510      	push	{r4, lr}
 8000fe6:	4604      	mov	r4, r0
	taskENTER_CRITICAL();
 8000fe8:	f003 fa72 	bl	80044d0 <vPortEnterCritical>
		uxReturn = ( ( Queue_t * ) xQueue )->uxMessagesWaiting;
 8000fec:	6ba4      	ldr	r4, [r4, #56]	@ 0x38
	taskEXIT_CRITICAL();
 8000fee:	f003 fa83 	bl	80044f8 <vPortExitCritical>
} /*lint !e818 Pointer cannot be declared const as xQueue is a typedef not pointer. */
 8000ff2:	4620      	mov	r0, r4
 8000ff4:	bd10      	pop	{r4, pc}
 8000ff6:	f04f 0350 	mov.w	r3, #80	@ 0x50
 8000ffa:	f383 8811 	msr	BASEPRI, r3
 8000ffe:	f3bf 8f6f 	isb	sy
 8001002:	f3bf 8f4f 	dsb	sy
	configASSERT( xQueue );
 8001006:	e7fe      	b.n	8001006 <uxQueueMessagesWaiting+0x24>

08001008 <uxQueueSpacesAvailable>:
{
 8001008:	b538      	push	{r3, r4, r5, lr}
	configASSERT( pxQueue );
 800100a:	b148      	cbz	r0, 8001020 <uxQueueSpacesAvailable+0x18>
 800100c:	4605      	mov	r5, r0
	taskENTER_CRITICAL();
 800100e:	f003 fa5f 	bl	80044d0 <vPortEnterCritical>
		uxReturn = pxQueue->uxLength - pxQueue->uxMessagesWaiting;
 8001012:	6bec      	ldr	r4, [r5, #60]	@ 0x3c
 8001014:	6bab      	ldr	r3, [r5, #56]	@ 0x38
 8001016:	1ae4      	subs	r4, r4, r3
	taskEXIT_CRITICAL();
 8001018:	f003 fa6e 	bl	80044f8 <vPortExitCritical>
} /*lint !e818 Pointer cannot be declared const as xQueue is a typedef not pointer. */
 800101c:	4620      	mov	r0, r4
 800101e:	bd38      	pop	{r3, r4, r5, pc}
 8001020:	f04f 0350 	mov.w	r3, #80	@ 0x50
 8001024:	f383 8811 	msr	BASEPRI, r3
 8001028:	f3bf 8f6f 	isb	sy
 800102c:	f3bf 8f4f 	dsb	sy
	configASSERT( pxQueue );
 8001030:	e7fe      	b.n	8001030 <uxQueueSpacesAvailable+0x28>

08001032 <xQueueGenericSendFromISR>:
{
 8001032:	e92d 43f8 	stmdb	sp!, {r3, r4, r5, r6, r7, r8, r9, lr}
	configASSERT( pxQueue );
 8001036:	b190      	cbz	r0, 800105e <xQueueGenericSendFromISR+0x2c>
 8001038:	460f      	mov	r7, r1
 800103a:	4616      	mov	r6, r2
 800103c:	461c      	mov	r4, r3
 800103e:	4605      	mov	r5, r0
	configASSERT( !( ( pvItemToQueue == NULL ) && ( pxQueue->uxItemSize != ( UBaseType_t ) 0U ) ) );
 8001040:	b1b1      	cbz	r1, 8001070 <xQueueGenericSendFromISR+0x3e>
	configASSERT( !( ( xCopyPosition == queueOVERWRITE ) && ( pxQueue->uxLength != 1 ) ) );
 8001042:	2c02      	cmp	r4, #2
 8001044:	d120      	bne.n	8001088 <xQueueGenericSendFromISR+0x56>
 8001046:	6beb      	ldr	r3, [r5, #60]	@ 0x3c
 8001048:	2b01      	cmp	r3, #1
 800104a:	d01d      	beq.n	8001088 <xQueueGenericSendFromISR+0x56>
 800104c:	f04f 0350 	mov.w	r3, #80	@ 0x50
 8001050:	f383 8811 	msr	BASEPRI, r3
 8001054:	f3bf 8f6f 	isb	sy
 8001058:	f3bf 8f4f 	dsb	sy
 800105c:	e7fe      	b.n	800105c <xQueueGenericSendFromISR+0x2a>
 800105e:	f04f 0350 	mov.w	r3, #80	@ 0x50
 8001062:	f383 8811 	msr	BASEPRI, r3
 8001066:	f3bf 8f6f 	isb	sy
 800106a:	f3bf 8f4f 	dsb	sy
	configASSERT( pxQueue );
 800106e:	e7fe      	b.n	800106e <xQueueGenericSendFromISR+0x3c>
	configASSERT( !( ( pvItemToQueue == NULL ) && ( pxQueue->uxItemSize != ( UBaseType_t ) 0U ) ) );
 8001070:	6c03      	ldr	r3, [r0, #64]	@ 0x40
 8001072:	2b00      	cmp	r3, #0
 8001074:	d0e5      	beq.n	8001042 <xQueueGenericSendFromISR+0x10>
 8001076:	f04f 0350 	mov.w	r3, #80	@ 0x50
 800107a:	f383 8811 	msr	BASEPRI, r3
 800107e:	f3bf 8f6f 	isb	sy
 8001082:	f3bf 8f4f 	dsb	sy
 8001086:	e7fe      	b.n	8001086 <xQueueGenericSendFromISR+0x54>
	portASSERT_IF_INTERRUPT_PRIORITY_INVALID();
 8001088:	f003 fa7a 	bl	8004580 <vPortValidateInterruptPriority>
	__asm volatile
 800108c:	f3ef 8811 	mrs	r8, BASEPRI
 8001090:	f04f 0350 	mov.w	r3, #80	@ 0x50
 8001094:	f383 8811 	msr	BASEPRI, r3
 8001098:	f3bf 8f6f 	isb	sy
 800109c:	f3bf 8f4f 	dsb	sy
		if( ( pxQueue->uxMessagesWaiting < pxQueue->uxLength ) || ( xCopyPosition == queueOVERWRITE ) )
 80010a0:	6baa      	ldr	r2, [r5, #56]	@ 0x38
 80010a2:	6beb      	ldr	r3, [r5, #60]	@ 0x3c
 80010a4:	429a      	cmp	r2, r3
 80010a6:	d306      	bcc.n	80010b6 <xQueueGenericSendFromISR+0x84>
 80010a8:	2c02      	cmp	r4, #2
 80010aa:	d004      	beq.n	80010b6 <xQueueGenericSendFromISR+0x84>
			xReturn = errQUEUE_FULL;
 80010ac:	2000      	movs	r0, #0
	__asm volatile
 80010ae:	f388 8811 	msr	BASEPRI, r8
}
 80010b2:	e8bd 83f8 	ldmia.w	sp!, {r3, r4, r5, r6, r7, r8, r9, pc}
			const int8_t cTxLock = pxQueue->cTxLock;
 80010b6:	f895 9045 	ldrb.w	r9, [r5, #69]	@ 0x45
 80010ba:	fa4f f989 	sxtb.w	r9, r9
			const UBaseType_t uxPreviousMessagesWaiting = pxQueue->uxMessagesWaiting;
 80010be:	6bab      	ldr	r3, [r5, #56]	@ 0x38
			( void ) prvCopyDataToQueue( pxQueue, pvItemToQueue, xCopyPosition );
 80010c0:	4622      	mov	r2, r4
 80010c2:	4639      	mov	r1, r7
 80010c4:	4628      	mov	r0, r5
 80010c6:	f7ff fcd2 	bl	8000a6e <prvCopyDataToQueue>
			if( cTxLock == queueUNLOCKED )
 80010ca:	f1b9 3fff 	cmp.w	r9, #4294967295	@ 0xffffffff
 80010ce:	d006      	beq.n	80010de <xQueueGenericSendFromISR+0xac>
				pxQueue->cTxLock = ( int8_t ) ( cTxLock + 1 );
 80010d0:	f109 0301 	add.w	r3, r9, #1
 80010d4:	b25b      	sxtb	r3, r3
 80010d6:	f885 3045 	strb.w	r3, [r5, #69]	@ 0x45
			xReturn = pdPASS;
 80010da:	2001      	movs	r0, #1
 80010dc:	e7e7      	b.n	80010ae <xQueueGenericSendFromISR+0x7c>
					if( listLIST_IS_EMPTY( &( pxQueue->xTasksWaitingToReceive ) ) == pdFALSE )
 80010de:	6a6b      	ldr	r3, [r5, #36]	@ 0x24
 80010e0:	b90b      	cbnz	r3, 80010e6 <xQueueGenericSendFromISR+0xb4>
			xReturn = pdPASS;
 80010e2:	2001      	movs	r0, #1
 80010e4:	e7e3      	b.n	80010ae <xQueueGenericSendFromISR+0x7c>
						if( xTaskRemoveFromEventList( &( pxQueue->xTasksWaitingToReceive ) ) != pdFALSE )
 80010e6:	f105 0024 	add.w	r0, r5, #36	@ 0x24
 80010ea:	f001 feb9 	bl	8002e60 <xTaskRemoveFromEventList>
 80010ee:	b118      	cbz	r0, 80010f8 <xQueueGenericSendFromISR+0xc6>
							if( pxHigherPriorityTaskWoken != NULL )
 80010f0:	b126      	cbz	r6, 80010fc <xQueueGenericSendFromISR+0xca>
								*pxHigherPriorityTaskWoken = pdTRUE;
 80010f2:	2001      	movs	r0, #1
 80010f4:	6030      	str	r0, [r6, #0]
 80010f6:	e7da      	b.n	80010ae <xQueueGenericSendFromISR+0x7c>
			xReturn = pdPASS;
 80010f8:	2001      	movs	r0, #1
 80010fa:	e7d8      	b.n	80010ae <xQueueGenericSendFromISR+0x7c>
 80010fc:	2001      	movs	r0, #1
 80010fe:	e7d6      	b.n	80010ae <xQueueGenericSendFromISR+0x7c>

08001100 <xQueueGiveFromISR>:
	configASSERT( pxQueue );
 8001100:	b168      	cbz	r0, 800111e <xQueueGiveFromISR+0x1e>
{
 8001102:	b570      	push	{r4, r5, r6, lr}
 8001104:	460c      	mov	r4, r1
 8001106:	4605      	mov	r5, r0
	configASSERT( pxQueue->uxItemSize == 0 );
 8001108:	6c03      	ldr	r3, [r0, #64]	@ 0x40
 800110a:	b18b      	cbz	r3, 8001130 <xQueueGiveFromISR+0x30>
	__asm volatile
 800110c:	f04f 0350 	mov.w	r3, #80	@ 0x50
 8001110:	f383 8811 	msr	BASEPRI, r3
 8001114:	f3bf 8f6f 	isb	sy
 8001118:	f3bf 8f4f 	dsb	sy
 800111c:	e7fe      	b.n	800111c <xQueueGiveFromISR+0x1c>
 800111e:	f04f 0350 	mov.w	r3, #80	@ 0x50
 8001122:	f383 8811 	msr	BASEPRI, r3
 8001126:	f3bf 8f6f 	isb	sy
 800112a:	f3bf 8f4f 	dsb	sy
	configASSERT( pxQueue );
 800112e:	e7fe      	b.n	800112e <xQueueGiveFromISR+0x2e>
	configASSERT( !( ( pxQueue->uxQueueType == queueQUEUE_IS_MUTEX ) && ( pxQueue->u.xSemaphore.xMutexHolder != NULL ) ) );
 8001130:	6803      	ldr	r3, [r0, #0]
 8001132:	b1eb      	cbz	r3, 8001170 <xQueueGiveFromISR+0x70>
	portASSERT_IF_INTERRUPT_PRIORITY_INVALID();
 8001134:	f003 fa24 	bl	8004580 <vPortValidateInterruptPriority>
	__asm volatile
 8001138:	f3ef 8611 	mrs	r6, BASEPRI
 800113c:	f04f 0350 	mov.w	r3, #80	@ 0x50
 8001140:	f383 8811 	msr	BASEPRI, r3
 8001144:	f3bf 8f6f 	isb	sy
 8001148:	f3bf 8f4f 	dsb	sy
		const UBaseType_t uxMessagesWaiting = pxQueue->uxMessagesWaiting;
 800114c:	6baa      	ldr	r2, [r5, #56]	@ 0x38
		if( uxMessagesWaiting < pxQueue->uxLength )
 800114e:	6beb      	ldr	r3, [r5, #60]	@ 0x3c
 8001150:	4293      	cmp	r3, r2
 8001152:	d926      	bls.n	80011a2 <xQueueGiveFromISR+0xa2>
			const int8_t cTxLock = pxQueue->cTxLock;
 8001154:	f895 3045 	ldrb.w	r3, [r5, #69]	@ 0x45
 8001158:	b25b      	sxtb	r3, r3
			pxQueue->uxMessagesWaiting = uxMessagesWaiting + ( UBaseType_t ) 1;
 800115a:	3201      	adds	r2, #1
 800115c:	63aa      	str	r2, [r5, #56]	@ 0x38
			if( cTxLock == queueUNLOCKED )
 800115e:	f1b3 3fff 	cmp.w	r3, #4294967295	@ 0xffffffff
 8001162:	d011      	beq.n	8001188 <xQueueGiveFromISR+0x88>
				pxQueue->cTxLock = ( int8_t ) ( cTxLock + 1 );
 8001164:	3301      	adds	r3, #1
 8001166:	b25b      	sxtb	r3, r3
 8001168:	f885 3045 	strb.w	r3, [r5, #69]	@ 0x45
			xReturn = pdPASS;
 800116c:	2001      	movs	r0, #1
 800116e:	e019      	b.n	80011a4 <xQueueGiveFromISR+0xa4>
	configASSERT( !( ( pxQueue->uxQueueType == queueQUEUE_IS_MUTEX ) && ( pxQueue->u.xSemaphore.xMutexHolder != NULL ) ) );
 8001170:	6883      	ldr	r3, [r0, #8]
 8001172:	2b00      	cmp	r3, #0
 8001174:	d0de      	beq.n	8001134 <xQueueGiveFromISR+0x34>
	__asm volatile
 8001176:	f04f 0350 	mov.w	r3, #80	@ 0x50
 800117a:	f383 8811 	msr	BASEPRI, r3
 800117e:	f3bf 8f6f 	isb	sy
 8001182:	f3bf 8f4f 	dsb	sy
 8001186:	e7fe      	b.n	8001186 <xQueueGiveFromISR+0x86>
					if( listLIST_IS_EMPTY( &( pxQueue->xTasksWaitingToReceive ) ) == pdFALSE )
 8001188:	6a6b      	ldr	r3, [r5, #36]	@ 0x24
 800118a:	b90b      	cbnz	r3, 8001190 <xQueueGiveFromISR+0x90>
			xReturn = pdPASS;
 800118c:	2001      	movs	r0, #1
 800118e:	e009      	b.n	80011a4 <xQueueGiveFromISR+0xa4>
						if( xTaskRemoveFromEventList( &( pxQueue->xTasksWaitingToReceive ) ) != pdFALSE )
 8001190:	f105 0024 	add.w	r0, r5, #36	@ 0x24
 8001194:	f001 fe64 	bl	8002e60 <xTaskRemoveFromEventList>
 8001198:	b138      	cbz	r0, 80011aa <xQueueGiveFromISR+0xaa>
							if( pxHigherPriorityTaskWoken != NULL )
 800119a:	b144      	cbz	r4, 80011ae <xQueueGiveFromISR+0xae>
								*pxHigherPriorityTaskWoken = pdTRUE;
 800119c:	2001      	movs	r0, #1
 800119e:	6020      	str	r0, [r4, #0]
 80011a0:	e000      	b.n	80011a4 <xQueueGiveFromISR+0xa4>
			xReturn = errQUEUE_FULL;
 80011a2:	2000      	movs	r0, #0
	__asm volatile
 80011a4:	f386 8811 	msr	BASEPRI, r6
}
 80011a8:	bd70      	pop	{r4, r5, r6, pc}
			xReturn = pdPASS;
 80011aa:	2001      	movs	r0, #1
 80011ac:	e7fa      	b.n	80011a4 <xQueueGiveFromISR+0xa4>
 80011ae:	2001      	movs	r0, #1
 80011b0:	e7f8      	b.n	80011a4 <xQueueGiveFromISR+0xa4>

080011b2 <xQueueReceiveFromISR>:
{
 80011b2:	e92d 43f8 	stmdb	sp!, {r3, r4, r5, r6, r7, r8, r9, lr}
	configASSERT( pxQueue );
 80011b6:	b1b0      	cbz	r0, 80011e6 <xQueueReceiveFromISR+0x34>
 80011b8:	460d      	mov	r5, r1
 80011ba:	4690      	mov	r8, r2
 80011bc:	4604      	mov	r4, r0
	configASSERT( !( ( pvBuffer == NULL ) && ( pxQueue->uxItemSize != ( UBaseType_t ) 0U ) ) );
 80011be:	b1d9      	cbz	r1, 80011f8 <xQueueReceiveFromISR+0x46>
	portASSERT_IF_INTERRUPT_PRIORITY_INVALID();
 80011c0:	f003 f9de 	bl	8004580 <vPortValidateInterruptPriority>
	__asm volatile
 80011c4:	f3ef 8711 	mrs	r7, BASEPRI
 80011c8:	f04f 0350 	mov.w	r3, #80	@ 0x50
 80011cc:	f383 8811 	msr	BASEPRI, r3
 80011d0:	f3bf 8f6f 	isb	sy
 80011d4:	f3bf 8f4f 	dsb	sy
		const UBaseType_t uxMessagesWaiting = pxQueue->uxMessagesWaiting;
 80011d8:	6ba6      	ldr	r6, [r4, #56]	@ 0x38
		if( uxMessagesWaiting > ( UBaseType_t ) 0 )
 80011da:	b9ce      	cbnz	r6, 8001210 <xQueueReceiveFromISR+0x5e>
			xReturn = pdFAIL;
 80011dc:	2000      	movs	r0, #0
	__asm volatile
 80011de:	f387 8811 	msr	BASEPRI, r7
}
 80011e2:	e8bd 83f8 	ldmia.w	sp!, {r3, r4, r5, r6, r7, r8, r9, pc}
	__asm volatile
 80011e6:	f04f 0350 	mov.w	r3, #80	@ 0x50
 80011ea:	f383 8811 	msr	BASEPRI, r3
 80011ee:	f3bf 8f6f 	isb	sy
 80011f2:	f3bf 8f4f 	dsb	sy
	configASSERT( pxQueue );
 80011f6:	e7fe      	b.n	80011f6 <xQueueReceiveFromISR+0x44>
	configASSERT( !( ( pvBuffer == NULL ) && ( pxQueue->uxItemSize != ( UBaseType_t ) 0U ) ) );
 80011f8:	6c03      	ldr	r3, [r0, #64]	@ 0x40
 80011fa:	2b00      	cmp	r3, #0
 80011fc:	d0e0      	beq.n	80011c0 <xQueueReceiveFromISR+0xe>
 80011fe:	f04f 0350 	mov.w	r3, #80	@ 0x50
 8001202:	f383 8811 	msr	BASEPRI, r3
 8001206:	f3bf 8f6f 	isb	sy
 800120a:	f3bf 8f4f 	dsb	sy
 800120e:	e7fe      	b.n	800120e <xQueueReceiveFromISR+0x5c>
			const int8_t cRxLock = pxQueue->cRxLock;
 8001210:	f894 9044 	ldrb.w	r9, [r4, #68]	@ 0x44
 8001214:	fa4f f989 	sxtb.w	r9, r9
			prvCopyDataFromQueue( pxQueue, pvBuffer );
 8001218:	4629      	mov	r1, r5
 800121a:	4620      	mov	r0, r4
 800121c:	f7ff fc62 	bl	8000ae4 <prvCopyDataFromQueue>
			pxQueue->uxMessagesWaiting = uxMessagesWaiting - ( UBaseType_t ) 1;
 8001220:	1e73      	subs	r3, r6, #1
 8001222:	63a3      	str	r3, [r4, #56]	@ 0x38
			if( cRxLock == queueUNLOCKED )
 8001224:	f1b9 3fff 	cmp.w	r9, #4294967295	@ 0xffffffff
 8001228:	d006      	beq.n	8001238 <xQueueReceiveFromISR+0x86>
				pxQueue->cRxLock = ( int8_t ) ( cRxLock + 1 );
 800122a:	f109 0301 	add.w	r3, r9, #1
 800122e:	b25b      	sxtb	r3, r3
 8001230:	f884 3044 	strb.w	r3, [r4, #68]	@ 0x44
			xReturn = pdPASS;
 8001234:	2001      	movs	r0, #1
 8001236:	e7d2      	b.n	80011de <xQueueReceiveFromISR+0x2c>
				if( listLIST_IS_EMPTY( &( pxQueue->xTasksWaitingToSend ) ) == pdFALSE )
 8001238:	6923      	ldr	r3, [r4, #16]
 800123a:	b90b      	cbnz	r3, 8001240 <xQueueReceiveFromISR+0x8e>
			xReturn = pdPASS;
 800123c:	2001      	movs	r0, #1
 800123e:	e7ce      	b.n	80011de <xQueueReceiveFromISR+0x2c>
					if( xTaskRemoveFromEventList( &( pxQueue->xTasksWaitingToSend ) ) != pdFALSE )
 8001240:	f104 0010 	add.w	r0, r4, #16
 8001244:	f001 fe0c 	bl	8002e60 <xTaskRemoveFromEventList>
 8001248:	b130      	cbz	r0, 8001258 <xQueueReceiveFromISR+0xa6>
						if( pxHigherPriorityTaskWoken != NULL )
 800124a:	f1b8 0f00 	cmp.w	r8, #0
 800124e:	d005      	beq.n	800125c <xQueueReceiveFromISR+0xaa>
							*pxHigherPriorityTaskWoken = pdTRUE;
 8001250:	2001      	movs	r0, #1
 8001252:	f8c8 0000 	str.w	r0, [r8]
 8001256:	e7c2      	b.n	80011de <xQueueReceiveFromISR+0x2c>
			xReturn = pdPASS;
 8001258:	2001      	movs	r0, #1
 800125a:	e7c0      	b.n	80011de <xQueueReceiveFromISR+0x2c>
 800125c:	2001      	movs	r0, #1
 800125e:	e7be      	b.n	80011de <xQueueReceiveFromISR+0x2c>

08001260 <xQueueIsQueueEmptyFromISR>:
	configASSERT( pxQueue );
 8001260:	b118      	cbz	r0, 800126a <xQueueIsQueueEmptyFromISR+0xa>
	if( pxQueue->uxMessagesWaiting == ( UBaseType_t ) 0 )
 8001262:	6b83      	ldr	r3, [r0, #56]	@ 0x38
 8001264:	b953      	cbnz	r3, 800127c <xQueueIsQueueEmptyFromISR+0x1c>
		xReturn = pdTRUE;
 8001266:	2001      	movs	r0, #1
 8001268:	4770      	bx	lr
 800126a:	f04f 0350 	mov.w	r3, #80	@ 0x50
 800126e:	f383 8811 	msr	BASEPRI, r3
 8001272:	f3bf 8f6f 	isb	sy
 8001276:	f3bf 8f4f 	dsb	sy
	configASSERT( pxQueue );
 800127a:	e7fe      	b.n	800127a <xQueueIsQueueEmptyFromISR+0x1a>
		xReturn = pdFALSE;
 800127c:	2000      	movs	r0, #0
} /*lint !e818 xQueue could not be pointer to const because it is a typedef. */
 800127e:	4770      	bx	lr

08001280 <xQueueIsQueueFullFromISR>:
BaseType_t xQueueIsQueueFullFromISR( const QueueHandle_t xQueue )
{
BaseType_t xReturn;
Queue_t * const pxQueue = xQueue;

	configASSERT( pxQueue );
 8001280:	b128      	cbz	r0, 800128e <xQueueIsQueueFullFromISR+0xe>
	if( pxQueue->uxMessagesWaiting == pxQueue->uxLength )
 8001282:	6b82      	ldr	r2, [r0, #56]	@ 0x38
 8001284:	6bc3      	ldr	r3, [r0, #60]	@ 0x3c
 8001286:	429a      	cmp	r2, r3
 8001288:	d00a      	beq.n	80012a0 <xQueueIsQueueFullFromISR+0x20>
	{
		xReturn = pdTRUE;
	}
	else
	{
		xReturn = pdFALSE;
 800128a:	2000      	movs	r0, #0
	}

	return xReturn;
} /*lint !e818 xQueue could not be pointer to const because it is a typedef. */
 800128c:	4770      	bx	lr
 800128e:	f04f 0350 	mov.w	r3, #80	@ 0x50
 8001292:	f383 8811 	msr	BASEPRI, r3
 8001296:	f3bf 8f6f 	isb	sy
 800129a:	f3bf 8f4f 	dsb	sy
	configASSERT( pxQueue );
 800129e:	e7fe      	b.n	800129e <xQueueIsQueueFullFromISR+0x1e>
		xReturn = pdTRUE;
 80012a0:	2001      	movs	r0, #1
 80012a2:	4770      	bx	lr

080012a4 <uxQueueMessagesWaitingFromISR>:
	configASSERT( pxQueue );
 80012a4:	b108      	cbz	r0, 80012aa <uxQueueMessagesWaitingFromISR+0x6>
	uxReturn = pxQueue->uxMessagesWaiting;
 80012a6:	6b80      	ldr	r0, [r0, #56]	@ 0x38
} /*lint !e818 Pointer cannot be declared const as xQueue is a typedef not pointer. */
 80012a8:	4770      	bx	lr
 80012aa:	f04f 0350 	mov.w	r3, #80	@ 0x50
 80012ae:	f383 8811 	msr	BASEPRI, r3
 80012b2:	f3bf 8f6f 	isb	sy
 80012b6:	f3bf 8f4f 	dsb	sy
	configASSERT( pxQueue );
 80012ba:	e7fe      	b.n	80012ba <uxQueueMessagesWaitingFromISR+0x16>

080012bc <xQueueSemaphoreTake>:
{
 80012bc:	b570      	push	{r4, r5, r6, lr}
 80012be:	b084      	sub	sp, #16
 80012c0:	9101      	str	r1, [sp, #4]
	configASSERT( ( pxQueue ) );
 80012c2:	b158      	cbz	r0, 80012dc <xQueueSemaphoreTake+0x20>
 80012c4:	4604      	mov	r4, r0
	configASSERT( pxQueue->uxItemSize == 0 );
 80012c6:	6c03      	ldr	r3, [r0, #64]	@ 0x40
 80012c8:	b18b      	cbz	r3, 80012ee <xQueueSemaphoreTake+0x32>
 80012ca:	f04f 0350 	mov.w	r3, #80	@ 0x50
 80012ce:	f383 8811 	msr	BASEPRI, r3
 80012d2:	f3bf 8f6f 	isb	sy
 80012d6:	f3bf 8f4f 	dsb	sy
 80012da:	e7fe      	b.n	80012da <xQueueSemaphoreTake+0x1e>
 80012dc:	f04f 0350 	mov.w	r3, #80	@ 0x50
 80012e0:	f383 8811 	msr	BASEPRI, r3
 80012e4:	f3bf 8f6f 	isb	sy
 80012e8:	f3bf 8f4f 	dsb	sy
	configASSERT( ( pxQueue ) );
 80012ec:	e7fe      	b.n	80012ec <xQueueSemaphoreTake+0x30>
		configASSERT( !( ( xTaskGetSchedulerState() == taskSCHEDULER_SUSPENDED ) && ( xTicksToWait != 0 ) ) );
 80012ee:	f001 ff1d 	bl	800312c <xTaskGetSchedulerState>
 80012f2:	4605      	mov	r5, r0
 80012f4:	b950      	cbnz	r0, 800130c <xQueueSemaphoreTake+0x50>
 80012f6:	9b01      	ldr	r3, [sp, #4]
 80012f8:	b15b      	cbz	r3, 8001312 <xQueueSemaphoreTake+0x56>
 80012fa:	f04f 0350 	mov.w	r3, #80	@ 0x50
 80012fe:	f383 8811 	msr	BASEPRI, r3
 8001302:	f3bf 8f6f 	isb	sy
 8001306:	f3bf 8f4f 	dsb	sy
 800130a:	e7fe      	b.n	800130a <xQueueSemaphoreTake+0x4e>
 800130c:	2600      	movs	r6, #0
 800130e:	4635      	mov	r5, r6
 8001310:	e055      	b.n	80013be <xQueueSemaphoreTake+0x102>
 8001312:	4606      	mov	r6, r0
 8001314:	e053      	b.n	80013be <xQueueSemaphoreTake+0x102>
				pxQueue->uxMessagesWaiting = uxSemaphoreCount - ( UBaseType_t ) 1;
 8001316:	3b01      	subs	r3, #1
 8001318:	63a3      	str	r3, [r4, #56]	@ 0x38
					if( pxQueue->uxQueueType == queueQUEUE_IS_MUTEX )
 800131a:	6823      	ldr	r3, [r4, #0]
 800131c:	b13b      	cbz	r3, 800132e <xQueueSemaphoreTake+0x72>
				if( listLIST_IS_EMPTY( &( pxQueue->xTasksWaitingToSend ) ) == pdFALSE )
 800131e:	6923      	ldr	r3, [r4, #16]
 8001320:	b94b      	cbnz	r3, 8001336 <xQueueSemaphoreTake+0x7a>
				taskEXIT_CRITICAL();
 8001322:	f003 f8e9 	bl	80044f8 <vPortExitCritical>
				return pdPASS;
 8001326:	2601      	movs	r6, #1
}
 8001328:	4630      	mov	r0, r6
 800132a:	b004      	add	sp, #16
 800132c:	bd70      	pop	{r4, r5, r6, pc}
						pxQueue->u.xSemaphore.xMutexHolder = pvTaskIncrementMutexHeldCount();
 800132e:	f002 f833 	bl	8003398 <pvTaskIncrementMutexHeldCount>
 8001332:	60a0      	str	r0, [r4, #8]
 8001334:	e7f3      	b.n	800131e <xQueueSemaphoreTake+0x62>
					if( xTaskRemoveFromEventList( &( pxQueue->xTasksWaitingToSend ) ) != pdFALSE )
 8001336:	f104 0010 	add.w	r0, r4, #16
 800133a:	f001 fd91 	bl	8002e60 <xTaskRemoveFromEventList>
 800133e:	2800      	cmp	r0, #0
 8001340:	d0ef      	beq.n	8001322 <xQueueSemaphoreTake+0x66>
						queueYIELD_IF_USING_PREEMPTION();
 8001342:	f04f 23e0 	mov.w	r3, #3758153728	@ 0xe000e000
 8001346:	f04f 5280 	mov.w	r2, #268435456	@ 0x10000000
 800134a:	f8c3 2d04 	str.w	r2, [r3, #3332]	@ 0xd04
 800134e:	f3bf 8f4f 	dsb	sy
 8001352:	f3bf 8f6f 	isb	sy
 8001356:	e7e4      	b.n	8001322 <xQueueSemaphoreTake+0x66>
						configASSERT( xInheritanceOccurred == pdFALSE );
 8001358:	b146      	cbz	r6, 800136c <xQueueSemaphoreTake+0xb0>
 800135a:	f04f 0350 	mov.w	r3, #80	@ 0x50
 800135e:	f383 8811 	msr	BASEPRI, r3
 8001362:	f3bf 8f6f 	isb	sy
 8001366:	f3bf 8f4f 	dsb	sy
 800136a:	e7fe      	b.n	800136a <xQueueSemaphoreTake+0xae>
					taskEXIT_CRITICAL();
 800136c:	f003 f8c4 	bl	80044f8 <vPortExitCritical>
					return errQUEUE_EMPTY;
 8001370:	e7da      	b.n	8001328 <xQueueSemaphoreTake+0x6c>
					vTaskInternalSetTimeOutState( &xTimeOut );
 8001372:	a802      	add	r0, sp, #8
 8001374:	f002 f81e 	bl	80033b4 <vTaskInternalSetTimeOutState>
					xEntryTimeSet = pdTRUE;
 8001378:	2501      	movs	r5, #1
 800137a:	e02a      	b.n	80013d2 <xQueueSemaphoreTake+0x116>
		prvLockQueue( pxQueue );
 800137c:	2300      	movs	r3, #0
 800137e:	f884 3044 	strb.w	r3, [r4, #68]	@ 0x44
 8001382:	e032      	b.n	80013ea <xQueueSemaphoreTake+0x12e>
 8001384:	2300      	movs	r3, #0
 8001386:	f884 3045 	strb.w	r3, [r4, #69]	@ 0x45
 800138a:	e034      	b.n	80013f6 <xQueueSemaphoreTake+0x13a>
						taskENTER_CRITICAL();
 800138c:	f003 f8a0 	bl	80044d0 <vPortEnterCritical>
							xInheritanceOccurred = xTaskPriorityInherit( pxQueue->u.xSemaphore.xMutexHolder );
 8001390:	68a0      	ldr	r0, [r4, #8]
 8001392:	f001 fedb 	bl	800314c <xTaskPriorityInherit>
 8001396:	4606      	mov	r6, r0
						taskEXIT_CRITICAL();
 8001398:	f003 f8ae 	bl	80044f8 <vPortExitCritical>
 800139c:	e03b      	b.n	8001416 <xQueueSemaphoreTake+0x15a>
				prvUnlockQueue( pxQueue );
 800139e:	4620      	mov	r0, r4
 80013a0:	f7ff fb21 	bl	80009e6 <prvUnlockQueue>
				( void ) xTaskResumeAll();
 80013a4:	f001 fc24 	bl	8002bf0 <xTaskResumeAll>
 80013a8:	e009      	b.n	80013be <xQueueSemaphoreTake+0x102>
			prvUnlockQueue( pxQueue );
 80013aa:	4620      	mov	r0, r4
 80013ac:	f7ff fb1b 	bl	80009e6 <prvUnlockQueue>
			( void ) xTaskResumeAll();
 80013b0:	f001 fc1e 	bl	8002bf0 <xTaskResumeAll>
			if( prvIsQueueEmpty( pxQueue ) != pdFALSE )
 80013b4:	4620      	mov	r0, r4
 80013b6:	f7ff fb4d 	bl	8000a54 <prvIsQueueEmpty>
 80013ba:	2800      	cmp	r0, #0
 80013bc:	d142      	bne.n	8001444 <xQueueSemaphoreTake+0x188>
		taskENTER_CRITICAL();
 80013be:	f003 f887 	bl	80044d0 <vPortEnterCritical>
			const UBaseType_t uxSemaphoreCount = pxQueue->uxMessagesWaiting;
 80013c2:	6ba3      	ldr	r3, [r4, #56]	@ 0x38
			if( uxSemaphoreCount > ( UBaseType_t ) 0 )
 80013c4:	2b00      	cmp	r3, #0
 80013c6:	d1a6      	bne.n	8001316 <xQueueSemaphoreTake+0x5a>
				if( xTicksToWait == ( TickType_t ) 0 )
 80013c8:	9b01      	ldr	r3, [sp, #4]
 80013ca:	2b00      	cmp	r3, #0
 80013cc:	d0c4      	beq.n	8001358 <xQueueSemaphoreTake+0x9c>
				else if( xEntryTimeSet == pdFALSE )
 80013ce:	2d00      	cmp	r5, #0
 80013d0:	d0cf      	beq.n	8001372 <xQueueSemaphoreTake+0xb6>
		taskEXIT_CRITICAL();
 80013d2:	f003 f891 	bl	80044f8 <vPortExitCritical>
		vTaskSuspendAll();
 80013d6:	f001 f915 	bl	8002604 <vTaskSuspendAll>
		prvLockQueue( pxQueue );
 80013da:	f003 f879 	bl	80044d0 <vPortEnterCritical>
 80013de:	f894 3044 	ldrb.w	r3, [r4, #68]	@ 0x44
 80013e2:	b25b      	sxtb	r3, r3
 80013e4:	f1b3 3fff 	cmp.w	r3, #4294967295	@ 0xffffffff
 80013e8:	d0c8      	beq.n	800137c <xQueueSemaphoreTake+0xc0>
 80013ea:	f894 3045 	ldrb.w	r3, [r4, #69]	@ 0x45
 80013ee:	b25b      	sxtb	r3, r3
 80013f0:	f1b3 3fff 	cmp.w	r3, #4294967295	@ 0xffffffff
 80013f4:	d0c6      	beq.n	8001384 <xQueueSemaphoreTake+0xc8>
 80013f6:	f003 f87f 	bl	80044f8 <vPortExitCritical>
		if( xTaskCheckForTimeOut( &xTimeOut, &xTicksToWait ) == pdFALSE )
 80013fa:	a901      	add	r1, sp, #4
 80013fc:	a802      	add	r0, sp, #8
 80013fe:	f001 ffe5 	bl	80033cc <xTaskCheckForTimeOut>
 8001402:	2800      	cmp	r0, #0
 8001404:	d1d1      	bne.n	80013aa <xQueueSemaphoreTake+0xee>
			if( prvIsQueueEmpty( pxQueue ) != pdFALSE )
 8001406:	4620      	mov	r0, r4
 8001408:	f7ff fb24 	bl	8000a54 <prvIsQueueEmpty>
 800140c:	2800      	cmp	r0, #0
 800140e:	d0c6      	beq.n	800139e <xQueueSemaphoreTake+0xe2>
					if( pxQueue->uxQueueType == queueQUEUE_IS_MUTEX )
 8001410:	6823      	ldr	r3, [r4, #0]
 8001412:	2b00      	cmp	r3, #0
 8001414:	d0ba      	beq.n	800138c <xQueueSemaphoreTake+0xd0>
				vTaskPlaceOnEventList( &( pxQueue->xTasksWaitingToReceive ), xTicksToWait );
 8001416:	9901      	ldr	r1, [sp, #4]
 8001418:	f104 0024 	add.w	r0, r4, #36	@ 0x24
 800141c:	f001 fcdc 	bl	8002dd8 <vTaskPlaceOnEventList>
				prvUnlockQueue( pxQueue );
 8001420:	4620      	mov	r0, r4
 8001422:	f7ff fae0 	bl	80009e6 <prvUnlockQueue>
				if( xTaskResumeAll() == pdFALSE )
 8001426:	f001 fbe3 	bl	8002bf0 <xTaskResumeAll>
 800142a:	2800      	cmp	r0, #0
 800142c:	d1c7      	bne.n	80013be <xQueueSemaphoreTake+0x102>
					portYIELD_WITHIN_API();
 800142e:	f04f 23e0 	mov.w	r3, #3758153728	@ 0xe000e000
 8001432:	f04f 5280 	mov.w	r2, #268435456	@ 0x10000000
 8001436:	f8c3 2d04 	str.w	r2, [r3, #3332]	@ 0xd04
 800143a:	f3bf 8f4f 	dsb	sy
 800143e:	f3bf 8f6f 	isb	sy
 8001442:	e7bc      	b.n	80013be <xQueueSemaphoreTake+0x102>
					if( xInheritanceOccurred != pdFALSE )
 8001444:	b90e      	cbnz	r6, 800144a <xQueueSemaphoreTake+0x18e>
				return errQUEUE_EMPTY;
 8001446:	2600      	movs	r6, #0
 8001448:	e76e      	b.n	8001328 <xQueueSemaphoreTake+0x6c>
						taskENTER_CRITICAL();
 800144a:	f003 f841 	bl	80044d0 <vPortEnterCritical>
							uxHighestWaitingPriority = prvGetDisinheritPriorityAfterTimeout( pxQueue );
 800144e:	4620      	mov	r0, r4
 8001450:	f7ff fab2 	bl	80009b8 <prvGetDisinheritPriorityAfterTimeout>
 8001454:	4601      	mov	r1, r0
							vTaskPriorityDisinheritAfterTimeout( pxQueue->u.xSemaphore.xMutexHolder, uxHighestWaitingPriority );
 8001456:	68a0      	ldr	r0, [r4, #8]
 8001458:	f001 ff28 	bl	80032ac <vTaskPriorityDisinheritAfterTimeout>
						taskEXIT_CRITICAL();
 800145c:	f003 f84c 	bl	80044f8 <vPortExitCritical>
 8001460:	e7f1      	b.n	8001446 <xQueueSemaphoreTake+0x18a>

08001462 <vQueueAddToRegistry>:
	{
	UBaseType_t ux;

		/* See if there is an empty space in the registry.  A NULL name denotes
		a free slot. */
		for( ux = ( UBaseType_t ) 0U; ux < ( UBaseType_t ) configQUEUE_REGISTRY_SIZE; ux++ )
 8001462:	2300      	movs	r3, #0
 8001464:	2b07      	cmp	r3, #7
 8001466:	d80c      	bhi.n	8001482 <vQueueAddToRegistry+0x20>
		{
			if( xQueueRegistry[ ux ].pcQueueName == NULL )
 8001468:	4a06      	ldr	r2, [pc, #24]	@ (8001484 <vQueueAddToRegistry+0x22>)
 800146a:	f852 2033 	ldr.w	r2, [r2, r3, lsl #3]
 800146e:	b10a      	cbz	r2, 8001474 <vQueueAddToRegistry+0x12>
		for( ux = ( UBaseType_t ) 0U; ux < ( UBaseType_t ) configQUEUE_REGISTRY_SIZE; ux++ )
 8001470:	3301      	adds	r3, #1
 8001472:	e7f7      	b.n	8001464 <vQueueAddToRegistry+0x2>
			{
				/* Store the information on this queue. */
				xQueueRegistry[ ux ].pcQueueName = pcQueueName;
 8001474:	4a03      	ldr	r2, [pc, #12]	@ (8001484 <vQueueAddToRegistry+0x22>)
 8001476:	f842 1033 	str.w	r1, [r2, r3, lsl #3]
				xQueueRegistry[ ux ].xHandle = xQueue;
 800147a:	eb02 02c3 	add.w	r2, r2, r3, lsl #3
 800147e:	6050      	str	r0, [r2, #4]

				traceQUEUE_REGISTRY_ADD( xQueue, pcQueueName );
				break;
 8001480:	4770      	bx	lr
			else
			{
				mtCOVERAGE_TEST_MARKER();
			}
		}
	}
 8001482:	4770      	bx	lr
 8001484:	20000000 	.word	0x20000000

08001488 <vQueueUnregisterQueue>:
	{
	UBaseType_t ux;

		/* See if the handle of the queue being unregistered in actually in the
		registry. */
		for( ux = ( UBaseType_t ) 0U; ux < ( UBaseType_t ) configQUEUE_REGISTRY_SIZE; ux++ )
 8001488:	2300      	movs	r3, #0
 800148a:	2b07      	cmp	r3, #7
 800148c:	d80f      	bhi.n	80014ae <vQueueUnregisterQueue+0x26>
		{
			if( xQueueRegistry[ ux ].xHandle == xQueue )
 800148e:	4a08      	ldr	r2, [pc, #32]	@ (80014b0 <vQueueUnregisterQueue+0x28>)
 8001490:	eb02 02c3 	add.w	r2, r2, r3, lsl #3
 8001494:	6852      	ldr	r2, [r2, #4]
 8001496:	4282      	cmp	r2, r0
 8001498:	d001      	beq.n	800149e <vQueueUnregisterQueue+0x16>
		for( ux = ( UBaseType_t ) 0U; ux < ( UBaseType_t ) configQUEUE_REGISTRY_SIZE; ux++ )
 800149a:	3301      	adds	r3, #1
 800149c:	e7f5      	b.n	800148a <vQueueUnregisterQueue+0x2>
			{
				/* Set the name to NULL to show that this slot if free again. */
				xQueueRegistry[ ux ].pcQueueName = NULL;
 800149e:	4a04      	ldr	r2, [pc, #16]	@ (80014b0 <vQueueUnregisterQueue+0x28>)
 80014a0:	2100      	movs	r1, #0
 80014a2:	f842 1033 	str.w	r1, [r2, r3, lsl #3]

				/* Set the handle to NULL to ensure the same queue handle cannot
				appear in the registry twice if it is added, removed, then
				added again. */
				xQueueRegistry[ ux ].xHandle = ( QueueHandle_t ) 0;
 80014a6:	eb02 02c3 	add.w	r2, r2, r3, lsl #3
 80014aa:	6051      	str	r1, [r2, #4]
				break;
 80014ac:	4770      	bx	lr
			{
				mtCOVERAGE_TEST_MARKER();
			}
		}

	} /*lint !e818 xQueue could not be pointer to const because it is a typedef. */
 80014ae:	4770      	bx	lr
 80014b0:	20000000 	.word	0x20000000

080014b4 <vQueueDelete>:
{
 80014b4:	b508      	push	{r3, lr}
	configASSERT( pxQueue );
 80014b6:	b110      	cbz	r0, 80014be <vQueueDelete+0xa>
		vQueueUnregisterQueue( pxQueue );
 80014b8:	f7ff ffe6 	bl	8001488 <vQueueUnregisterQueue>
}
 80014bc:	bd08      	pop	{r3, pc}
 80014be:	f04f 0350 	mov.w	r3, #80	@ 0x50
 80014c2:	f383 8811 	msr	BASEPRI, r3
 80014c6:	f3bf 8f6f 	isb	sy
 80014ca:	f3bf 8f4f 	dsb	sy
	configASSERT( pxQueue );
 80014ce:	e7fe      	b.n	80014ce <vQueueDelete+0x1a>

080014d0 <pcQueueGetName>:
		for( ux = ( UBaseType_t ) 0U; ux < ( UBaseType_t ) configQUEUE_REGISTRY_SIZE; ux++ )
 80014d0:	2300      	movs	r3, #0
 80014d2:	2b07      	cmp	r3, #7
 80014d4:	d80b      	bhi.n	80014ee <pcQueueGetName+0x1e>
			if( xQueueRegistry[ ux ].xHandle == xQueue )
 80014d6:	4a07      	ldr	r2, [pc, #28]	@ (80014f4 <pcQueueGetName+0x24>)
 80014d8:	eb02 02c3 	add.w	r2, r2, r3, lsl #3
 80014dc:	6852      	ldr	r2, [r2, #4]
 80014de:	4282      	cmp	r2, r0
 80014e0:	d001      	beq.n	80014e6 <pcQueueGetName+0x16>
		for( ux = ( UBaseType_t ) 0U; ux < ( UBaseType_t ) configQUEUE_REGISTRY_SIZE; ux++ )
 80014e2:	3301      	adds	r3, #1
 80014e4:	e7f5      	b.n	80014d2 <pcQueueGetName+0x2>
				pcReturn = xQueueRegistry[ ux ].pcQueueName;
 80014e6:	4a03      	ldr	r2, [pc, #12]	@ (80014f4 <pcQueueGetName+0x24>)
 80014e8:	f852 0033 	ldr.w	r0, [r2, r3, lsl #3]
				break;
 80014ec:	4770      	bx	lr
	const char *pcReturn = NULL; /*lint !e971 Unqualified char types are allowed for strings and single characters only. */
 80014ee:	2000      	movs	r0, #0
	} /*lint !e818 xQueue cannot be a pointer to const because it is a typedef. */
 80014f0:	4770      	bx	lr
 80014f2:	bf00      	nop
 80014f4:	20000000 	.word	0x20000000

080014f8 <xQueueGenericReset>:
{
 80014f8:	b538      	push	{r3, r4, r5, lr}
	configASSERT( pxQueue );
 80014fa:	b1e0      	cbz	r0, 8001536 <xQueueGenericReset+0x3e>
 80014fc:	460d      	mov	r5, r1
 80014fe:	4604      	mov	r4, r0
	taskENTER_CRITICAL();
 8001500:	f002 ffe6 	bl	80044d0 <vPortEnterCritical>
		pxQueue->u.xQueue.pcTail = pxQueue->pcHead + ( pxQueue->uxLength * pxQueue->uxItemSize ); /*lint !e9016 Pointer arithmetic allowed on char types, especially when it assists conveying intent. */
 8001504:	6823      	ldr	r3, [r4, #0]
 8001506:	6be2      	ldr	r2, [r4, #60]	@ 0x3c
 8001508:	6c21      	ldr	r1, [r4, #64]	@ 0x40
 800150a:	fb01 3002 	mla	r0, r1, r2, r3
 800150e:	60a0      	str	r0, [r4, #8]
		pxQueue->uxMessagesWaiting = ( UBaseType_t ) 0U;
 8001510:	2000      	movs	r0, #0
 8001512:	63a0      	str	r0, [r4, #56]	@ 0x38
		pxQueue->pcWriteTo = pxQueue->pcHead;
 8001514:	6063      	str	r3, [r4, #4]
		pxQueue->u.xQueue.pcReadFrom = pxQueue->pcHead + ( ( pxQueue->uxLength - 1U ) * pxQueue->uxItemSize ); /*lint !e9016 Pointer arithmetic allowed on char types, especially when it assists conveying intent. */
 8001516:	3a01      	subs	r2, #1
 8001518:	fb02 3301 	mla	r3, r2, r1, r3
 800151c:	60e3      	str	r3, [r4, #12]
		pxQueue->cRxLock = queueUNLOCKED;
 800151e:	23ff      	movs	r3, #255	@ 0xff
 8001520:	f884 3044 	strb.w	r3, [r4, #68]	@ 0x44
		pxQueue->cTxLock = queueUNLOCKED;
 8001524:	f884 3045 	strb.w	r3, [r4, #69]	@ 0x45
		if( xNewQueue == pdFALSE )
 8001528:	b9fd      	cbnz	r5, 800156a <xQueueGenericReset+0x72>
			if( listLIST_IS_EMPTY( &( pxQueue->xTasksWaitingToSend ) ) == pdFALSE )
 800152a:	6923      	ldr	r3, [r4, #16]
 800152c:	b963      	cbnz	r3, 8001548 <xQueueGenericReset+0x50>
	taskEXIT_CRITICAL();
 800152e:	f002 ffe3 	bl	80044f8 <vPortExitCritical>
}
 8001532:	2001      	movs	r0, #1
 8001534:	bd38      	pop	{r3, r4, r5, pc}
 8001536:	f04f 0350 	mov.w	r3, #80	@ 0x50
 800153a:	f383 8811 	msr	BASEPRI, r3
 800153e:	f3bf 8f6f 	isb	sy
 8001542:	f3bf 8f4f 	dsb	sy
	configASSERT( pxQueue );
 8001546:	e7fe      	b.n	8001546 <xQueueGenericReset+0x4e>
				if( xTaskRemoveFromEventList( &( pxQueue->xTasksWaitingToSend ) ) != pdFALSE )
 8001548:	f104 0010 	add.w	r0, r4, #16
 800154c:	f001 fc88 	bl	8002e60 <xTaskRemoveFromEventList>
 8001550:	2800      	cmp	r0, #0
 8001552:	d0ec      	beq.n	800152e <xQueueGenericReset+0x36>
					queueYIELD_IF_USING_PREEMPTION();
 8001554:	f04f 23e0 	mov.w	r3, #3758153728	@ 0xe000e000
 8001558:	f04f 5280 	mov.w	r2, #268435456	@ 0x10000000
 800155c:	f8c3 2d04 	str.w	r2, [r3, #3332]	@ 0xd04
 8001560:	f3bf 8f4f 	dsb	sy
 8001564:	f3bf 8f6f 	isb	sy
 8001568:	e7e1      	b.n	800152e <xQueueGenericReset+0x36>
			vListInitialise( &( pxQueue->xTasksWaitingToSend ) );
 800156a:	f104 0010 	add.w	r0, r4, #16
 800156e:	f002 feb7 	bl	80042e0 <vListInitialise>
			vListInitialise( &( pxQueue->xTasksWaitingToReceive ) );
 8001572:	f104 0024 	add.w	r0, r4, #36	@ 0x24
 8001576:	f002 feb3 	bl	80042e0 <vListInitialise>
 800157a:	e7d8      	b.n	800152e <xQueueGenericReset+0x36>

0800157c <prvInitialiseNewQueue>:
{
 800157c:	b510      	push	{r4, lr}
 800157e:	4603      	mov	r3, r0
 8001580:	9802      	ldr	r0, [sp, #8]
	if( uxItemSize == ( UBaseType_t ) 0 )
 8001582:	460c      	mov	r4, r1
 8001584:	b931      	cbnz	r1, 8001594 <prvInitialiseNewQueue+0x18>
		pxNewQueue->pcHead = ( int8_t * ) pxNewQueue;
 8001586:	6000      	str	r0, [r0, #0]
	pxNewQueue->uxLength = uxQueueLength;
 8001588:	63c3      	str	r3, [r0, #60]	@ 0x3c
	pxNewQueue->uxItemSize = uxItemSize;
 800158a:	6404      	str	r4, [r0, #64]	@ 0x40
	( void ) xQueueGenericReset( pxNewQueue, pdTRUE );
 800158c:	2101      	movs	r1, #1
 800158e:	f7ff ffb3 	bl	80014f8 <xQueueGenericReset>
}
 8001592:	bd10      	pop	{r4, pc}
		pxNewQueue->pcHead = ( int8_t * ) pucQueueStorage;
 8001594:	6002      	str	r2, [r0, #0]
 8001596:	e7f7      	b.n	8001588 <prvInitialiseNewQueue+0xc>

08001598 <xQueueGenericCreateStatic>:
		configASSERT( uxQueueLength > ( UBaseType_t ) 0 );
 8001598:	b940      	cbnz	r0, 80015ac <xQueueGenericCreateStatic+0x14>
 800159a:	f04f 0350 	mov.w	r3, #80	@ 0x50
 800159e:	f383 8811 	msr	BASEPRI, r3
 80015a2:	f3bf 8f6f 	isb	sy
 80015a6:	f3bf 8f4f 	dsb	sy
 80015aa:	e7fe      	b.n	80015aa <xQueueGenericCreateStatic+0x12>
	{
 80015ac:	b510      	push	{r4, lr}
 80015ae:	b084      	sub	sp, #16
 80015b0:	461c      	mov	r4, r3
 80015b2:	4684      	mov	ip, r0
		configASSERT( pxStaticQueue != NULL );
 80015b4:	b153      	cbz	r3, 80015cc <xQueueGenericCreateStatic+0x34>
		configASSERT( !( ( pucQueueStorage != NULL ) && ( uxItemSize == 0 ) ) );
 80015b6:	b192      	cbz	r2, 80015de <xQueueGenericCreateStatic+0x46>
 80015b8:	b989      	cbnz	r1, 80015de <xQueueGenericCreateStatic+0x46>
 80015ba:	f04f 0350 	mov.w	r3, #80	@ 0x50
 80015be:	f383 8811 	msr	BASEPRI, r3
 80015c2:	f3bf 8f6f 	isb	sy
 80015c6:	f3bf 8f4f 	dsb	sy
 80015ca:	e7fe      	b.n	80015ca <xQueueGenericCreateStatic+0x32>
 80015cc:	f04f 0350 	mov.w	r3, #80	@ 0x50
 80015d0:	f383 8811 	msr	BASEPRI, r3
 80015d4:	f3bf 8f6f 	isb	sy
 80015d8:	f3bf 8f4f 	dsb	sy
		configASSERT( pxStaticQueue != NULL );
 80015dc:	e7fe      	b.n	80015dc <xQueueGenericCreateStatic+0x44>
		configASSERT( !( ( pucQueueStorage == NULL ) && ( uxItemSize != 0 ) ) );
 80015de:	b16a      	cbz	r2, 80015fc <xQueueGenericCreateStatic+0x64>
			volatile size_t xSize = sizeof( StaticQueue_t );
 80015e0:	2348      	movs	r3, #72	@ 0x48
 80015e2:	9303      	str	r3, [sp, #12]
			configASSERT( xSize == sizeof( Queue_t ) );
 80015e4:	9b03      	ldr	r3, [sp, #12]
 80015e6:	2b48      	cmp	r3, #72	@ 0x48
 80015e8:	d013      	beq.n	8001612 <xQueueGenericCreateStatic+0x7a>
 80015ea:	f04f 0350 	mov.w	r3, #80	@ 0x50
 80015ee:	f383 8811 	msr	BASEPRI, r3
 80015f2:	f3bf 8f6f 	isb	sy
 80015f6:	f3bf 8f4f 	dsb	sy
 80015fa:	e7fe      	b.n	80015fa <xQueueGenericCreateStatic+0x62>
		configASSERT( !( ( pucQueueStorage == NULL ) && ( uxItemSize != 0 ) ) );
 80015fc:	2900      	cmp	r1, #0
 80015fe:	d0ef      	beq.n	80015e0 <xQueueGenericCreateStatic+0x48>
 8001600:	f04f 0350 	mov.w	r3, #80	@ 0x50
 8001604:	f383 8811 	msr	BASEPRI, r3
 8001608:	f3bf 8f6f 	isb	sy
 800160c:	f3bf 8f4f 	dsb	sy
 8001610:	e7fe      	b.n	8001610 <xQueueGenericCreateStatic+0x78>
			( void ) xSize; /* Keeps lint quiet when configASSERT() is not defined. */
 8001612:	9b03      	ldr	r3, [sp, #12]
			prvInitialiseNewQueue( uxQueueLength, uxItemSize, pucQueueStorage, ucQueueType, pxNewQueue );
 8001614:	9400      	str	r4, [sp, #0]
 8001616:	f89d 3018 	ldrb.w	r3, [sp, #24]
 800161a:	4660      	mov	r0, ip
 800161c:	f7ff ffae 	bl	800157c <prvInitialiseNewQueue>
	}
 8001620:	4620      	mov	r0, r4
 8001622:	b004      	add	sp, #16
 8001624:	bd10      	pop	{r4, pc}

08001626 <xQueueCreateMutexStatic>:
	{
 8001626:	b510      	push	{r4, lr}
 8001628:	b082      	sub	sp, #8
 800162a:	460b      	mov	r3, r1
		xNewQueue = xQueueGenericCreateStatic( uxMutexLength, uxMutexSize, NULL, pxStaticQueue, ucQueueType );
 800162c:	9000      	str	r0, [sp, #0]
 800162e:	2200      	movs	r2, #0
 8001630:	4611      	mov	r1, r2
 8001632:	2001      	movs	r0, #1
 8001634:	f7ff ffb0 	bl	8001598 <xQueueGenericCreateStatic>
 8001638:	4604      	mov	r4, r0
		prvInitialiseMutex( ( Queue_t * ) xNewQueue );
 800163a:	f7ff fb29 	bl	8000c90 <prvInitialiseMutex>
	}
 800163e:	4620      	mov	r0, r4
 8001640:	b002      	add	sp, #8
 8001642:	bd10      	pop	{r4, pc}

08001644 <prvBytesInBuffer>:
static size_t prvBytesInBuffer( const StreamBuffer_t * const pxStreamBuffer )
{
/* Returns the distance between xTail and xHead. */
size_t xCount;

	xCount = pxStreamBuffer->xLength + pxStreamBuffer->xHead;
 8001644:	6882      	ldr	r2, [r0, #8]
 8001646:	6843      	ldr	r3, [r0, #4]
 8001648:	4413      	add	r3, r2
	xCount -= pxStreamBuffer->xTail;
 800164a:	6800      	ldr	r0, [r0, #0]
 800164c:	1a18      	subs	r0, r3, r0
	if ( xCount >= pxStreamBuffer->xLength )
 800164e:	4282      	cmp	r2, r0
 8001650:	d800      	bhi.n	8001654 <prvBytesInBuffer+0x10>
	{
		xCount -= pxStreamBuffer->xLength;
 8001652:	1a80      	subs	r0, r0, r2
	{
		mtCOVERAGE_TEST_MARKER();
	}

	return xCount;
}
 8001654:	4770      	bx	lr

08001656 <prvWriteBytesToBuffer>:
	configASSERT( xCount > ( size_t ) 0 );
 8001656:	b942      	cbnz	r2, 800166a <prvWriteBytesToBuffer+0x14>
 8001658:	f04f 0350 	mov.w	r3, #80	@ 0x50
 800165c:	f383 8811 	msr	BASEPRI, r3
 8001660:	f3bf 8f6f 	isb	sy
 8001664:	f3bf 8f4f 	dsb	sy
 8001668:	e7fe      	b.n	8001668 <prvWriteBytesToBuffer+0x12>
{
 800166a:	e92d 41f0 	stmdb	sp!, {r4, r5, r6, r7, r8, lr}
 800166e:	4604      	mov	r4, r0
 8001670:	460e      	mov	r6, r1
 8001672:	4617      	mov	r7, r2
	xNextHead = pxStreamBuffer->xHead;
 8001674:	f8d0 8004 	ldr.w	r8, [r0, #4]
	xFirstLength = configMIN( pxStreamBuffer->xLength - xNextHead, xCount );
 8001678:	6883      	ldr	r3, [r0, #8]
 800167a:	eba3 0508 	sub.w	r5, r3, r8
 800167e:	4295      	cmp	r5, r2
 8001680:	bf28      	it	cs
 8001682:	4615      	movcs	r5, r2
	configASSERT( ( xNextHead + xFirstLength ) <= pxStreamBuffer->xLength );
 8001684:	eb08 0205 	add.w	r2, r8, r5
 8001688:	4293      	cmp	r3, r2
 800168a:	d208      	bcs.n	800169e <prvWriteBytesToBuffer+0x48>
 800168c:	f04f 0350 	mov.w	r3, #80	@ 0x50
 8001690:	f383 8811 	msr	BASEPRI, r3
 8001694:	f3bf 8f6f 	isb	sy
 8001698:	f3bf 8f4f 	dsb	sy
 800169c:	e7fe      	b.n	800169c <prvWriteBytesToBuffer+0x46>
	( void ) memcpy( ( void* ) ( &( pxStreamBuffer->pucBuffer[ xNextHead ] ) ), ( const void * ) pucData, xFirstLength ); /*lint !e9087 memcpy() requires void *. */
 800169e:	6980      	ldr	r0, [r0, #24]
 80016a0:	462a      	mov	r2, r5
 80016a2:	4440      	add	r0, r8
 80016a4:	f002 fa9e 	bl	8003be4 <memcpy>
	if( xCount > xFirstLength )
 80016a8:	42af      	cmp	r7, r5
 80016aa:	d910      	bls.n	80016ce <prvWriteBytesToBuffer+0x78>
		configASSERT( ( xCount - xFirstLength ) <= pxStreamBuffer->xLength );
 80016ac:	1b7a      	subs	r2, r7, r5
 80016ae:	68a3      	ldr	r3, [r4, #8]
 80016b0:	429a      	cmp	r2, r3
 80016b2:	d908      	bls.n	80016c6 <prvWriteBytesToBuffer+0x70>
 80016b4:	f04f 0350 	mov.w	r3, #80	@ 0x50
 80016b8:	f383 8811 	msr	BASEPRI, r3
 80016bc:	f3bf 8f6f 	isb	sy
 80016c0:	f3bf 8f4f 	dsb	sy
 80016c4:	e7fe      	b.n	80016c4 <prvWriteBytesToBuffer+0x6e>
		( void ) memcpy( ( void * ) pxStreamBuffer->pucBuffer, ( const void * ) &( pucData[ xFirstLength ] ), xCount - xFirstLength ); /*lint !e9087 memcpy() requires void *. */
 80016c6:	1971      	adds	r1, r6, r5
 80016c8:	69a0      	ldr	r0, [r4, #24]
 80016ca:	f002 fa8b 	bl	8003be4 <memcpy>
	xNextHead += xCount;
 80016ce:	eb07 0308 	add.w	r3, r7, r8
	if( xNextHead >= pxStreamBuffer->xLength )
 80016d2:	68a2      	ldr	r2, [r4, #8]
 80016d4:	429a      	cmp	r2, r3
 80016d6:	d800      	bhi.n	80016da <prvWriteBytesToBuffer+0x84>
		xNextHead -= pxStreamBuffer->xLength;
 80016d8:	1a9b      	subs	r3, r3, r2
	pxStreamBuffer->xHead = xNextHead;
 80016da:	6063      	str	r3, [r4, #4]
}
 80016dc:	4638      	mov	r0, r7
 80016de:	e8bd 81f0 	ldmia.w	sp!, {r4, r5, r6, r7, r8, pc}

080016e2 <prvWriteMessageToBuffer>:
{
 80016e2:	b530      	push	{r4, r5, lr}
 80016e4:	b083      	sub	sp, #12
 80016e6:	4605      	mov	r5, r0
 80016e8:	9201      	str	r2, [sp, #4]
	if( xSpace == ( size_t ) 0 )
 80016ea:	4618      	mov	r0, r3
 80016ec:	b16b      	cbz	r3, 800170a <prvWriteMessageToBuffer+0x28>
 80016ee:	460c      	mov	r4, r1
	else if( ( pxStreamBuffer->ucFlags & sbFLAGS_IS_MESSAGE_BUFFER ) == ( uint8_t ) 0 )
 80016f0:	7f2b      	ldrb	r3, [r5, #28]
 80016f2:	f013 0f01 	tst.w	r3, #1
 80016f6:	d10a      	bne.n	800170e <prvWriteMessageToBuffer+0x2c>
		xDataLengthBytes = configMIN( xDataLengthBytes, xSpace );
 80016f8:	4290      	cmp	r0, r2
 80016fa:	bf28      	it	cs
 80016fc:	4610      	movcs	r0, r2
 80016fe:	9001      	str	r0, [sp, #4]
		xReturn = prvWriteBytesToBuffer( pxStreamBuffer, ( const uint8_t * ) pvTxData, xDataLengthBytes ); /*lint !e9079 Storage buffer is implemented as uint8_t for ease of sizing, alighment and access. */
 8001700:	9a01      	ldr	r2, [sp, #4]
 8001702:	4621      	mov	r1, r4
 8001704:	4628      	mov	r0, r5
 8001706:	f7ff ffa6 	bl	8001656 <prvWriteBytesToBuffer>
}
 800170a:	b003      	add	sp, #12
 800170c:	bd30      	pop	{r4, r5, pc}
	else if( xSpace >= xRequiredSpace )
 800170e:	9b06      	ldr	r3, [sp, #24]
 8001710:	4298      	cmp	r0, r3
 8001712:	d201      	bcs.n	8001718 <prvWriteMessageToBuffer+0x36>
		xReturn = 0;
 8001714:	2000      	movs	r0, #0
 8001716:	e7f8      	b.n	800170a <prvWriteMessageToBuffer+0x28>
		( void ) prvWriteBytesToBuffer( pxStreamBuffer, ( const uint8_t * ) &( xDataLengthBytes ), sbBYTES_TO_STORE_MESSAGE_LENGTH );
 8001718:	2204      	movs	r2, #4
 800171a:	eb0d 0102 	add.w	r1, sp, r2
 800171e:	4628      	mov	r0, r5
 8001720:	f7ff ff99 	bl	8001656 <prvWriteBytesToBuffer>
	if( xShouldWrite != pdFALSE )
 8001724:	e7ec      	b.n	8001700 <prvWriteMessageToBuffer+0x1e>

08001726 <prvReadBytesFromBuffer>:
{
 8001726:	e92d 41f0 	stmdb	sp!, {r4, r5, r6, r7, r8, lr}
	xCount = configMIN( xBytesAvailable, xMaxCount );
 800172a:	4293      	cmp	r3, r2
 800172c:	bf28      	it	cs
 800172e:	4613      	movcs	r3, r2
 8001730:	461c      	mov	r4, r3
	if( xCount > ( size_t ) 0 )
 8001732:	b383      	cbz	r3, 8001796 <prvReadBytesFromBuffer+0x70>
 8001734:	4606      	mov	r6, r0
 8001736:	460f      	mov	r7, r1
		xNextTail = pxStreamBuffer->xTail;
 8001738:	f8d0 8000 	ldr.w	r8, [r0]
		xFirstLength = configMIN( pxStreamBuffer->xLength - xNextTail, xCount );
 800173c:	6883      	ldr	r3, [r0, #8]
 800173e:	eba3 0508 	sub.w	r5, r3, r8
 8001742:	42a5      	cmp	r5, r4
 8001744:	bf28      	it	cs
 8001746:	4625      	movcs	r5, r4
		configASSERT( xFirstLength <= xMaxCount );
 8001748:	42aa      	cmp	r2, r5
 800174a:	d208      	bcs.n	800175e <prvReadBytesFromBuffer+0x38>
 800174c:	f04f 0350 	mov.w	r3, #80	@ 0x50
 8001750:	f383 8811 	msr	BASEPRI, r3
 8001754:	f3bf 8f6f 	isb	sy
 8001758:	f3bf 8f4f 	dsb	sy
 800175c:	e7fe      	b.n	800175c <prvReadBytesFromBuffer+0x36>
		configASSERT( ( xNextTail + xFirstLength ) <= pxStreamBuffer->xLength );
 800175e:	eb08 0205 	add.w	r2, r8, r5
 8001762:	4293      	cmp	r3, r2
 8001764:	d208      	bcs.n	8001778 <prvReadBytesFromBuffer+0x52>
 8001766:	f04f 0350 	mov.w	r3, #80	@ 0x50
 800176a:	f383 8811 	msr	BASEPRI, r3
 800176e:	f3bf 8f6f 	isb	sy
 8001772:	f3bf 8f4f 	dsb	sy
 8001776:	e7fe      	b.n	8001776 <prvReadBytesFromBuffer+0x50>
		( void ) memcpy( ( void * ) pucData, ( const void * ) &( pxStreamBuffer->pucBuffer[ xNextTail ] ), xFirstLength ); /*lint !e9087 memcpy() requires void *. */
 8001778:	6981      	ldr	r1, [r0, #24]
 800177a:	462a      	mov	r2, r5
 800177c:	4441      	add	r1, r8
 800177e:	4638      	mov	r0, r7
 8001780:	f002 fa30 	bl	8003be4 <memcpy>
		if( xCount > xFirstLength )
 8001784:	42ac      	cmp	r4, r5
 8001786:	d809      	bhi.n	800179c <prvReadBytesFromBuffer+0x76>
		xNextTail += xCount;
 8001788:	eb04 0308 	add.w	r3, r4, r8
		if( xNextTail >= pxStreamBuffer->xLength )
 800178c:	68b2      	ldr	r2, [r6, #8]
 800178e:	429a      	cmp	r2, r3
 8001790:	d800      	bhi.n	8001794 <prvReadBytesFromBuffer+0x6e>
			xNextTail -= pxStreamBuffer->xLength;
 8001792:	1a9b      	subs	r3, r3, r2
		pxStreamBuffer->xTail = xNextTail;
 8001794:	6033      	str	r3, [r6, #0]
}
 8001796:	4620      	mov	r0, r4
 8001798:	e8bd 81f0 	ldmia.w	sp!, {r4, r5, r6, r7, r8, pc}
			( void ) memcpy( ( void * ) &( pucData[ xFirstLength ] ), ( void * ) ( pxStreamBuffer->pucBuffer ), xCount - xFirstLength ); /*lint !e9087 memcpy() requires void *. */
 800179c:	1b62      	subs	r2, r4, r5
 800179e:	69b1      	ldr	r1, [r6, #24]
 80017a0:	1978      	adds	r0, r7, r5
 80017a2:	f002 fa1f 	bl	8003be4 <memcpy>
 80017a6:	e7ef      	b.n	8001788 <prvReadBytesFromBuffer+0x62>

080017a8 <prvReadMessageFromBuffer>:
{
 80017a8:	e92d 43f0 	stmdb	sp!, {r4, r5, r6, r7, r8, r9, lr}
 80017ac:	b083      	sub	sp, #12
 80017ae:	4605      	mov	r5, r0
 80017b0:	460f      	mov	r7, r1
 80017b2:	4616      	mov	r6, r2
 80017b4:	461c      	mov	r4, r3
 80017b6:	f8dd 8028 	ldr.w	r8, [sp, #40]	@ 0x28
	if( xBytesToStoreMessageLength != ( size_t ) 0 )
 80017ba:	f1b8 0f00 	cmp.w	r8, #0
 80017be:	d108      	bne.n	80017d2 <prvReadMessageFromBuffer+0x2a>
	xReceivedLength = prvReadBytesFromBuffer( pxStreamBuffer, ( uint8_t * ) pvRxData, xNextMessageLength, xBytesAvailable ); /*lint !e9079 Data storage area is implemented as uint8_t array for ease of sizing, indexing and alignment. */
 80017c0:	4623      	mov	r3, r4
 80017c2:	4632      	mov	r2, r6
 80017c4:	4639      	mov	r1, r7
 80017c6:	4628      	mov	r0, r5
 80017c8:	f7ff ffad 	bl	8001726 <prvReadBytesFromBuffer>
}
 80017cc:	b003      	add	sp, #12
 80017ce:	e8bd 83f0 	ldmia.w	sp!, {r4, r5, r6, r7, r8, r9, pc}
		xOriginalTail = pxStreamBuffer->xTail;
 80017d2:	f8d0 9000 	ldr.w	r9, [r0]
		( void ) prvReadBytesFromBuffer( pxStreamBuffer, ( uint8_t * ) &xTempNextMessageLength, xBytesToStoreMessageLength, xBytesAvailable );
 80017d6:	4642      	mov	r2, r8
 80017d8:	a901      	add	r1, sp, #4
 80017da:	f7ff ffa4 	bl	8001726 <prvReadBytesFromBuffer>
		xNextMessageLength = ( size_t ) xTempNextMessageLength;
 80017de:	9b01      	ldr	r3, [sp, #4]
		xBytesAvailable -= xBytesToStoreMessageLength;
 80017e0:	eba4 0408 	sub.w	r4, r4, r8
		if( xNextMessageLength > xBufferLengthBytes )
 80017e4:	429e      	cmp	r6, r3
 80017e6:	d203      	bcs.n	80017f0 <prvReadMessageFromBuffer+0x48>
			pxStreamBuffer->xTail = xOriginalTail;
 80017e8:	f8c5 9000 	str.w	r9, [r5]
			xNextMessageLength = 0;
 80017ec:	2600      	movs	r6, #0
 80017ee:	e7e7      	b.n	80017c0 <prvReadMessageFromBuffer+0x18>
		xNextMessageLength = ( size_t ) xTempNextMessageLength;
 80017f0:	461e      	mov	r6, r3
 80017f2:	e7e5      	b.n	80017c0 <prvReadMessageFromBuffer+0x18>

080017f4 <prvInitialiseNewStreamBuffer>:
static void prvInitialiseNewStreamBuffer( StreamBuffer_t * const pxStreamBuffer,
										  uint8_t * const pucBuffer,
										  size_t xBufferSizeBytes,
										  size_t xTriggerLevelBytes,
										  uint8_t ucFlags )
{
 80017f4:	b5f8      	push	{r3, r4, r5, r6, r7, lr}
 80017f6:	4607      	mov	r7, r0
 80017f8:	460c      	mov	r4, r1
 80017fa:	4616      	mov	r6, r2
 80017fc:	461d      	mov	r5, r3
	{
		/* The value written just has to be identifiable when looking at the
		memory.  Don't use 0xA5 as that is the stack fill value and could
		result in confusion as to what is actually being observed. */
		const BaseType_t xWriteValue = 0x55;
		configASSERT( memset( pucBuffer, ( int ) xWriteValue, xBufferSizeBytes ) == pucBuffer );
 80017fe:	2155      	movs	r1, #85	@ 0x55
 8001800:	4620      	mov	r0, r4
 8001802:	f002 fa89 	bl	8003d18 <memset>
 8001806:	4284      	cmp	r4, r0
 8001808:	d008      	beq.n	800181c <prvInitialiseNewStreamBuffer+0x28>
 800180a:	f04f 0350 	mov.w	r3, #80	@ 0x50
 800180e:	f383 8811 	msr	BASEPRI, r3
 8001812:	f3bf 8f6f 	isb	sy
 8001816:	f3bf 8f4f 	dsb	sy
 800181a:	e7fe      	b.n	800181a <prvInitialiseNewStreamBuffer+0x26>
	} /*lint !e529 !e438 xWriteValue is only used if configASSERT() is defined. */
	#endif

	( void ) memset( ( void * ) pxStreamBuffer, 0x00, sizeof( StreamBuffer_t ) ); /*lint !e9087 memset() requires void *. */
 800181c:	2220      	movs	r2, #32
 800181e:	2100      	movs	r1, #0
 8001820:	4638      	mov	r0, r7
 8001822:	f002 fa79 	bl	8003d18 <memset>
	pxStreamBuffer->pucBuffer = pucBuffer;
 8001826:	61bc      	str	r4, [r7, #24]
	pxStreamBuffer->xLength = xBufferSizeBytes;
 8001828:	60be      	str	r6, [r7, #8]
	pxStreamBuffer->xTriggerLevelBytes = xTriggerLevelBytes;
 800182a:	60fd      	str	r5, [r7, #12]
	pxStreamBuffer->ucFlags = ucFlags;
 800182c:	f89d 3018 	ldrb.w	r3, [sp, #24]
 8001830:	773b      	strb	r3, [r7, #28]
}
 8001832:	bdf8      	pop	{r3, r4, r5, r6, r7, pc}

08001834 <xStreamBufferReceive>:
	configASSERT( pvRxData );
 8001834:	b329      	cbz	r1, 8001882 <xStreamBufferReceive+0x4e>
{
 8001836:	e92d 43f0 	stmdb	sp!, {r4, r5, r6, r7, r8, r9, lr}
 800183a:	b083      	sub	sp, #12
 800183c:	4604      	mov	r4, r0
 800183e:	4617      	mov	r7, r2
 8001840:	461e      	mov	r6, r3
 8001842:	4688      	mov	r8, r1
	configASSERT( pxStreamBuffer );
 8001844:	b330      	cbz	r0, 8001894 <xStreamBufferReceive+0x60>
	if( ( pxStreamBuffer->ucFlags & sbFLAGS_IS_MESSAGE_BUFFER ) != ( uint8_t ) 0 )
 8001846:	7f03      	ldrb	r3, [r0, #28]
 8001848:	f013 0f01 	tst.w	r3, #1
 800184c:	d02b      	beq.n	80018a6 <xStreamBufferReceive+0x72>
		xBytesToStoreMessageLength = sbBYTES_TO_STORE_MESSAGE_LENGTH;
 800184e:	f04f 0904 	mov.w	r9, #4
	if( xTicksToWait != ( TickType_t ) 0 )
 8001852:	2e00      	cmp	r6, #0
 8001854:	d03e      	beq.n	80018d4 <xStreamBufferReceive+0xa0>
		taskENTER_CRITICAL();
 8001856:	f002 fe3b 	bl	80044d0 <vPortEnterCritical>
			xBytesAvailable = prvBytesInBuffer( pxStreamBuffer );
 800185a:	4620      	mov	r0, r4
 800185c:	f7ff fef2 	bl	8001644 <prvBytesInBuffer>
 8001860:	4605      	mov	r5, r0
			if( xBytesAvailable <= xBytesToStoreMessageLength )
 8001862:	4581      	cmp	r9, r0
 8001864:	d325      	bcc.n	80018b2 <xStreamBufferReceive+0x7e>
				( void ) xTaskNotifyStateClear( NULL );
 8001866:	2000      	movs	r0, #0
 8001868:	f004 f9f8 	bl	8005c5c <xTaskNotifyStateClear>
				configASSERT( pxStreamBuffer->xTaskWaitingToReceive == NULL );
 800186c:	6923      	ldr	r3, [r4, #16]
 800186e:	b1eb      	cbz	r3, 80018ac <xStreamBufferReceive+0x78>
 8001870:	f04f 0350 	mov.w	r3, #80	@ 0x50
 8001874:	f383 8811 	msr	BASEPRI, r3
 8001878:	f3bf 8f6f 	isb	sy
 800187c:	f3bf 8f4f 	dsb	sy
 8001880:	e7fe      	b.n	8001880 <xStreamBufferReceive+0x4c>
 8001882:	f04f 0350 	mov.w	r3, #80	@ 0x50
 8001886:	f383 8811 	msr	BASEPRI, r3
 800188a:	f3bf 8f6f 	isb	sy
 800188e:	f3bf 8f4f 	dsb	sy
	configASSERT( pvRxData );
 8001892:	e7fe      	b.n	8001892 <xStreamBufferReceive+0x5e>
 8001894:	f04f 0350 	mov.w	r3, #80	@ 0x50
 8001898:	f383 8811 	msr	BASEPRI, r3
 800189c:	f3bf 8f6f 	isb	sy
 80018a0:	f3bf 8f4f 	dsb	sy
	configASSERT( pxStreamBuffer );
 80018a4:	e7fe      	b.n	80018a4 <xStreamBufferReceive+0x70>
		xBytesToStoreMessageLength = 0;
 80018a6:	f04f 0900 	mov.w	r9, #0
 80018aa:	e7d2      	b.n	8001852 <xStreamBufferReceive+0x1e>
				pxStreamBuffer->xTaskWaitingToReceive = xTaskGetCurrentTaskHandle();
 80018ac:	f001 fc32 	bl	8003114 <xTaskGetCurrentTaskHandle>
 80018b0:	6120      	str	r0, [r4, #16]
		taskEXIT_CRITICAL();
 80018b2:	f002 fe21 	bl	80044f8 <vPortExitCritical>
		if( xBytesAvailable <= xBytesToStoreMessageLength )
 80018b6:	45a9      	cmp	r9, r5
 80018b8:	d310      	bcc.n	80018dc <xStreamBufferReceive+0xa8>
			( void ) xTaskNotifyWait( ( uint32_t ) 0, ( uint32_t ) 0, NULL, xTicksToWait );
 80018ba:	4633      	mov	r3, r6
 80018bc:	2200      	movs	r2, #0
 80018be:	4611      	mov	r1, r2
 80018c0:	4610      	mov	r0, r2
 80018c2:	f000 ffe3 	bl	800288c <xTaskNotifyWait>
			pxStreamBuffer->xTaskWaitingToReceive = NULL;
 80018c6:	2300      	movs	r3, #0
 80018c8:	6123      	str	r3, [r4, #16]
			xBytesAvailable = prvBytesInBuffer( pxStreamBuffer );
 80018ca:	4620      	mov	r0, r4
 80018cc:	f7ff feba 	bl	8001644 <prvBytesInBuffer>
 80018d0:	4605      	mov	r5, r0
 80018d2:	e003      	b.n	80018dc <xStreamBufferReceive+0xa8>
		xBytesAvailable = prvBytesInBuffer( pxStreamBuffer );
 80018d4:	4620      	mov	r0, r4
 80018d6:	f7ff feb5 	bl	8001644 <prvBytesInBuffer>
 80018da:	4605      	mov	r5, r0
	if( xBytesAvailable > xBytesToStoreMessageLength )
 80018dc:	454d      	cmp	r5, r9
 80018de:	d804      	bhi.n	80018ea <xStreamBufferReceive+0xb6>
size_t xReceivedLength = 0, xBytesAvailable, xBytesToStoreMessageLength;
 80018e0:	2500      	movs	r5, #0
}
 80018e2:	4628      	mov	r0, r5
 80018e4:	b003      	add	sp, #12
 80018e6:	e8bd 83f0 	ldmia.w	sp!, {r4, r5, r6, r7, r8, r9, pc}
		xReceivedLength = prvReadMessageFromBuffer( pxStreamBuffer, pvRxData, xBufferLengthBytes, xBytesAvailable, xBytesToStoreMessageLength );
 80018ea:	f8cd 9000 	str.w	r9, [sp]
 80018ee:	462b      	mov	r3, r5
 80018f0:	463a      	mov	r2, r7
 80018f2:	4641      	mov	r1, r8
 80018f4:	4620      	mov	r0, r4
 80018f6:	f7ff ff57 	bl	80017a8 <prvReadMessageFromBuffer>
		if( xReceivedLength != ( size_t ) 0 )
 80018fa:	4605      	mov	r5, r0
 80018fc:	2800      	cmp	r0, #0
 80018fe:	d0f0      	beq.n	80018e2 <xStreamBufferReceive+0xae>
			sbRECEIVE_COMPLETED( pxStreamBuffer );
 8001900:	f000 fe80 	bl	8002604 <vTaskSuspendAll>
 8001904:	6963      	ldr	r3, [r4, #20]
 8001906:	b13b      	cbz	r3, 8001918 <xStreamBufferReceive+0xe4>
 8001908:	6960      	ldr	r0, [r4, #20]
 800190a:	2300      	movs	r3, #0
 800190c:	461a      	mov	r2, r3
 800190e:	4619      	mov	r1, r3
 8001910:	f000 fea8 	bl	8002664 <xTaskGenericNotify>
 8001914:	2300      	movs	r3, #0
 8001916:	6163      	str	r3, [r4, #20]
 8001918:	f001 f96a 	bl	8002bf0 <xTaskResumeAll>
 800191c:	e7e1      	b.n	80018e2 <xStreamBufferReceive+0xae>

0800191e <xStreamBufferReceiveFromISR>:
	configASSERT( pvRxData );
 800191e:	b1b9      	cbz	r1, 8001950 <xStreamBufferReceiveFromISR+0x32>
{
 8001920:	e92d 41f0 	stmdb	sp!, {r4, r5, r6, r7, r8, lr}
 8001924:	b082      	sub	sp, #8
 8001926:	4604      	mov	r4, r0
 8001928:	4616      	mov	r6, r2
 800192a:	461d      	mov	r5, r3
 800192c:	460f      	mov	r7, r1
	configASSERT( pxStreamBuffer );
 800192e:	b1c0      	cbz	r0, 8001962 <xStreamBufferReceiveFromISR+0x44>
	if( ( pxStreamBuffer->ucFlags & sbFLAGS_IS_MESSAGE_BUFFER ) != ( uint8_t ) 0 )
 8001930:	7f03      	ldrb	r3, [r0, #28]
 8001932:	f013 0f01 	tst.w	r3, #1
 8001936:	d01d      	beq.n	8001974 <xStreamBufferReceiveFromISR+0x56>
		xBytesToStoreMessageLength = sbBYTES_TO_STORE_MESSAGE_LENGTH;
 8001938:	f04f 0804 	mov.w	r8, #4
	xBytesAvailable = prvBytesInBuffer( pxStreamBuffer );
 800193c:	4620      	mov	r0, r4
 800193e:	f7ff fe81 	bl	8001644 <prvBytesInBuffer>
	if( xBytesAvailable > xBytesToStoreMessageLength )
 8001942:	4580      	cmp	r8, r0
 8001944:	d319      	bcc.n	800197a <xStreamBufferReceiveFromISR+0x5c>
size_t xReceivedLength = 0, xBytesAvailable, xBytesToStoreMessageLength;
 8001946:	2600      	movs	r6, #0
}
 8001948:	4630      	mov	r0, r6
 800194a:	b002      	add	sp, #8
 800194c:	e8bd 81f0 	ldmia.w	sp!, {r4, r5, r6, r7, r8, pc}
 8001950:	f04f 0350 	mov.w	r3, #80	@ 0x50
 8001954:	f383 8811 	msr	BASEPRI, r3
 8001958:	f3bf 8f6f 	isb	sy
 800195c:	f3bf 8f4f 	dsb	sy
	configASSERT( pvRxData );
 8001960:	e7fe      	b.n	8001960 <xStreamBufferReceiveFromISR+0x42>
 8001962:	f04f 0350 	mov.w	r3, #80	@ 0x50
 8001966:	f383 8811 	msr	BASEPRI, r3
 800196a:	f3bf 8f6f 	isb	sy
 800196e:	f3bf 8f4f 	dsb	sy
	configASSERT( pxStreamBuffer );
 8001972:	e7fe      	b.n	8001972 <xStreamBufferReceiveFromISR+0x54>
		xBytesToStoreMessageLength = 0;
 8001974:	f04f 0800 	mov.w	r8, #0
 8001978:	e7e0      	b.n	800193c <xStreamBufferReceiveFromISR+0x1e>
		xReceivedLength = prvReadMessageFromBuffer( pxStreamBuffer, pvRxData, xBufferLengthBytes, xBytesAvailable, xBytesToStoreMessageLength );
 800197a:	f8cd 8000 	str.w	r8, [sp]
 800197e:	4603      	mov	r3, r0
 8001980:	4632      	mov	r2, r6
 8001982:	4639      	mov	r1, r7
 8001984:	4620      	mov	r0, r4
 8001986:	f7ff ff0f 	bl	80017a8 <prvReadMessageFromBuffer>
		if( xReceivedLength != ( size_t ) 0 )
 800198a:	4606      	mov	r6, r0
 800198c:	2800      	cmp	r0, #0
 800198e:	d0db      	beq.n	8001948 <xStreamBufferReceiveFromISR+0x2a>
	__asm volatile
 8001990:	f3ef 8711 	mrs	r7, BASEPRI
 8001994:	f04f 0350 	mov.w	r3, #80	@ 0x50
 8001998:	f383 8811 	msr	BASEPRI, r3
 800199c:	f3bf 8f6f 	isb	sy
 80019a0:	f3bf 8f4f 	dsb	sy
			sbRECEIVE_COMPLETED_FROM_ISR( pxStreamBuffer, pxHigherPriorityTaskWoken );
 80019a4:	6963      	ldr	r3, [r4, #20]
 80019a6:	b143      	cbz	r3, 80019ba <xStreamBufferReceiveFromISR+0x9c>
 80019a8:	6960      	ldr	r0, [r4, #20]
 80019aa:	9500      	str	r5, [sp, #0]
 80019ac:	2300      	movs	r3, #0
 80019ae:	461a      	mov	r2, r3
 80019b0:	4619      	mov	r1, r3
 80019b2:	f000 fed5 	bl	8002760 <xTaskGenericNotifyFromISR>
 80019b6:	2300      	movs	r3, #0
 80019b8:	6163      	str	r3, [r4, #20]
	__asm volatile
 80019ba:	f387 8811 	msr	BASEPRI, r7
	(
		"	msr basepri, %0	" :: "r" ( ulNewMaskValue ) : "memory"
	);
}
 80019be:	e7c3      	b.n	8001948 <xStreamBufferReceiveFromISR+0x2a>

080019c0 <vStreamBufferDelete>:
{
 80019c0:	b508      	push	{r3, lr}
	configASSERT( pxStreamBuffer );
 80019c2:	b178      	cbz	r0, 80019e4 <vStreamBufferDelete+0x24>
	if( ( pxStreamBuffer->ucFlags & sbFLAGS_IS_STATICALLY_ALLOCATED ) == ( uint8_t ) pdFALSE )
 80019c4:	7f02      	ldrb	r2, [r0, #28]
 80019c6:	f012 0f02 	tst.w	r2, #2
 80019ca:	d114      	bne.n	80019f6 <vStreamBufferDelete+0x36>
			configASSERT( xStreamBuffer == ( StreamBufferHandle_t ) ~0 );
 80019cc:	f1b0 3fff 	cmp.w	r0, #4294967295	@ 0xffffffff
 80019d0:	d015      	beq.n	80019fe <vStreamBufferDelete+0x3e>
	__asm volatile
 80019d2:	f04f 0350 	mov.w	r3, #80	@ 0x50
 80019d6:	f383 8811 	msr	BASEPRI, r3
 80019da:	f3bf 8f6f 	isb	sy
 80019de:	f3bf 8f4f 	dsb	sy
 80019e2:	e7fe      	b.n	80019e2 <vStreamBufferDelete+0x22>
 80019e4:	f04f 0350 	mov.w	r3, #80	@ 0x50
 80019e8:	f383 8811 	msr	BASEPRI, r3
 80019ec:	f3bf 8f6f 	isb	sy
 80019f0:	f3bf 8f4f 	dsb	sy
	configASSERT( pxStreamBuffer );
 80019f4:	e7fe      	b.n	80019f4 <vStreamBufferDelete+0x34>
		( void ) memset( pxStreamBuffer, 0x00, sizeof( StreamBuffer_t ) );
 80019f6:	2220      	movs	r2, #32
 80019f8:	2100      	movs	r1, #0
 80019fa:	f002 f98d 	bl	8003d18 <memset>
}
 80019fe:	bd08      	pop	{r3, pc}

08001a00 <xStreamBufferIsEmpty>:
	configASSERT( pxStreamBuffer );
 8001a00:	b128      	cbz	r0, 8001a0e <xStreamBufferIsEmpty+0xe>
	xTail = pxStreamBuffer->xTail;
 8001a02:	6802      	ldr	r2, [r0, #0]
	if( pxStreamBuffer->xHead == xTail )
 8001a04:	6843      	ldr	r3, [r0, #4]
 8001a06:	4293      	cmp	r3, r2
 8001a08:	d00a      	beq.n	8001a20 <xStreamBufferIsEmpty+0x20>
		xReturn = pdFALSE;
 8001a0a:	2000      	movs	r0, #0
}
 8001a0c:	4770      	bx	lr
 8001a0e:	f04f 0350 	mov.w	r3, #80	@ 0x50
 8001a12:	f383 8811 	msr	BASEPRI, r3
 8001a16:	f3bf 8f6f 	isb	sy
 8001a1a:	f3bf 8f4f 	dsb	sy
	configASSERT( pxStreamBuffer );
 8001a1e:	e7fe      	b.n	8001a1e <xStreamBufferIsEmpty+0x1e>
		xReturn = pdTRUE;
 8001a20:	2001      	movs	r0, #1
 8001a22:	4770      	bx	lr

08001a24 <xStreamBufferReset>:
	configASSERT( pxStreamBuffer );
 8001a24:	b160      	cbz	r0, 8001a40 <xStreamBufferReset+0x1c>
{
 8001a26:	b510      	push	{r4, lr}
 8001a28:	b082      	sub	sp, #8
 8001a2a:	4604      	mov	r4, r0
	taskENTER_CRITICAL();
 8001a2c:	f002 fd50 	bl	80044d0 <vPortEnterCritical>
		if( pxStreamBuffer->xTaskWaitingToReceive == NULL )
 8001a30:	6923      	ldr	r3, [r4, #16]
 8001a32:	b173      	cbz	r3, 8001a52 <xStreamBufferReset+0x2e>
BaseType_t xReturn = pdFAIL;
 8001a34:	2400      	movs	r4, #0
	taskEXIT_CRITICAL();
 8001a36:	f002 fd5f 	bl	80044f8 <vPortExitCritical>
}
 8001a3a:	4620      	mov	r0, r4
 8001a3c:	b002      	add	sp, #8
 8001a3e:	bd10      	pop	{r4, pc}
 8001a40:	f04f 0350 	mov.w	r3, #80	@ 0x50
 8001a44:	f383 8811 	msr	BASEPRI, r3
 8001a48:	f3bf 8f6f 	isb	sy
 8001a4c:	f3bf 8f4f 	dsb	sy
	configASSERT( pxStreamBuffer );
 8001a50:	e7fe      	b.n	8001a50 <xStreamBufferReset+0x2c>
			if( pxStreamBuffer->xTaskWaitingToSend == NULL )
 8001a52:	6963      	ldr	r3, [r4, #20]
 8001a54:	b10b      	cbz	r3, 8001a5a <xStreamBufferReset+0x36>
BaseType_t xReturn = pdFAIL;
 8001a56:	2400      	movs	r4, #0
 8001a58:	e7ed      	b.n	8001a36 <xStreamBufferReset+0x12>
				prvInitialiseNewStreamBuffer( pxStreamBuffer,
 8001a5a:	7f23      	ldrb	r3, [r4, #28]
 8001a5c:	9300      	str	r3, [sp, #0]
 8001a5e:	68e3      	ldr	r3, [r4, #12]
 8001a60:	68a2      	ldr	r2, [r4, #8]
 8001a62:	69a1      	ldr	r1, [r4, #24]
 8001a64:	4620      	mov	r0, r4
 8001a66:	f7ff fec5 	bl	80017f4 <prvInitialiseNewStreamBuffer>
				xReturn = pdPASS;
 8001a6a:	2401      	movs	r4, #1
 8001a6c:	e7e3      	b.n	8001a36 <xStreamBufferReset+0x12>

08001a6e <xStreamBufferSpacesAvailable>:
	configASSERT( pxStreamBuffer );
 8001a6e:	4603      	mov	r3, r0
 8001a70:	b148      	cbz	r0, 8001a86 <xStreamBufferSpacesAvailable+0x18>
	xSpace = pxStreamBuffer->xLength + pxStreamBuffer->xTail;
 8001a72:	6882      	ldr	r2, [r0, #8]
 8001a74:	6800      	ldr	r0, [r0, #0]
 8001a76:	4410      	add	r0, r2
	xSpace -= pxStreamBuffer->xHead;
 8001a78:	685b      	ldr	r3, [r3, #4]
 8001a7a:	1ac0      	subs	r0, r0, r3
	xSpace -= ( size_t ) 1;
 8001a7c:	3801      	subs	r0, #1
	if( xSpace >= pxStreamBuffer->xLength )
 8001a7e:	4282      	cmp	r2, r0
 8001a80:	d800      	bhi.n	8001a84 <xStreamBufferSpacesAvailable+0x16>
		xSpace -= pxStreamBuffer->xLength;
 8001a82:	1a80      	subs	r0, r0, r2
}
 8001a84:	4770      	bx	lr
 8001a86:	f04f 0350 	mov.w	r3, #80	@ 0x50
 8001a8a:	f383 8811 	msr	BASEPRI, r3
 8001a8e:	f3bf 8f6f 	isb	sy
 8001a92:	f3bf 8f4f 	dsb	sy
	configASSERT( pxStreamBuffer );
 8001a96:	e7fe      	b.n	8001a96 <xStreamBufferSpacesAvailable+0x28>

08001a98 <xStreamBufferSend>:
{
 8001a98:	e92d 41f0 	stmdb	sp!, {r4, r5, r6, r7, r8, lr}
 8001a9c:	b086      	sub	sp, #24
 8001a9e:	9303      	str	r3, [sp, #12]
	configASSERT( pvTxData );
 8001aa0:	b199      	cbz	r1, 8001aca <xStreamBufferSend+0x32>
 8001aa2:	4604      	mov	r4, r0
 8001aa4:	4616      	mov	r6, r2
 8001aa6:	4688      	mov	r8, r1
	configASSERT( pxStreamBuffer );
 8001aa8:	b1c0      	cbz	r0, 8001adc <xStreamBufferSend+0x44>
	if( ( pxStreamBuffer->ucFlags & sbFLAGS_IS_MESSAGE_BUFFER ) != ( uint8_t ) 0 )
 8001aaa:	7f03      	ldrb	r3, [r0, #28]
 8001aac:	f013 0f01 	tst.w	r3, #1
 8001ab0:	d01d      	beq.n	8001aee <xStreamBufferSend+0x56>
		xRequiredSpace += sbBYTES_TO_STORE_MESSAGE_LENGTH;
 8001ab2:	1d17      	adds	r7, r2, #4
		configASSERT( xRequiredSpace > xDataLengthBytes );
 8001ab4:	42ba      	cmp	r2, r7
 8001ab6:	d31b      	bcc.n	8001af0 <xStreamBufferSend+0x58>
 8001ab8:	f04f 0350 	mov.w	r3, #80	@ 0x50
 8001abc:	f383 8811 	msr	BASEPRI, r3
 8001ac0:	f3bf 8f6f 	isb	sy
 8001ac4:	f3bf 8f4f 	dsb	sy
 8001ac8:	e7fe      	b.n	8001ac8 <xStreamBufferSend+0x30>
 8001aca:	f04f 0350 	mov.w	r3, #80	@ 0x50
 8001ace:	f383 8811 	msr	BASEPRI, r3
 8001ad2:	f3bf 8f6f 	isb	sy
 8001ad6:	f3bf 8f4f 	dsb	sy
	configASSERT( pvTxData );
 8001ada:	e7fe      	b.n	8001ada <xStreamBufferSend+0x42>
 8001adc:	f04f 0350 	mov.w	r3, #80	@ 0x50
 8001ae0:	f383 8811 	msr	BASEPRI, r3
 8001ae4:	f3bf 8f6f 	isb	sy
 8001ae8:	f3bf 8f4f 	dsb	sy
	configASSERT( pxStreamBuffer );
 8001aec:	e7fe      	b.n	8001aec <xStreamBufferSend+0x54>
size_t xRequiredSpace = xDataLengthBytes;
 8001aee:	4617      	mov	r7, r2
	if( xTicksToWait != ( TickType_t ) 0 )
 8001af0:	9b03      	ldr	r3, [sp, #12]
 8001af2:	b37b      	cbz	r3, 8001b54 <xStreamBufferSend+0xbc>
		vTaskSetTimeOutState( &xTimeOut );
 8001af4:	a804      	add	r0, sp, #16
 8001af6:	f000 ffd1 	bl	8002a9c <vTaskSetTimeOutState>
			taskENTER_CRITICAL();
 8001afa:	f002 fce9 	bl	80044d0 <vPortEnterCritical>
				xSpace = xStreamBufferSpacesAvailable( pxStreamBuffer );
 8001afe:	4620      	mov	r0, r4
 8001b00:	f7ff ffb5 	bl	8001a6e <xStreamBufferSpacesAvailable>
 8001b04:	4605      	mov	r5, r0
				if( xSpace < xRequiredSpace )
 8001b06:	4287      	cmp	r7, r0
 8001b08:	d921      	bls.n	8001b4e <xStreamBufferSend+0xb6>
					( void ) xTaskNotifyStateClear( NULL );
 8001b0a:	2000      	movs	r0, #0
 8001b0c:	f004 f8a6 	bl	8005c5c <xTaskNotifyStateClear>
					configASSERT( pxStreamBuffer->xTaskWaitingToSend == NULL );
 8001b10:	6963      	ldr	r3, [r4, #20]
 8001b12:	b99b      	cbnz	r3, 8001b3c <xStreamBufferSend+0xa4>
					pxStreamBuffer->xTaskWaitingToSend = xTaskGetCurrentTaskHandle();
 8001b14:	f001 fafe 	bl	8003114 <xTaskGetCurrentTaskHandle>
 8001b18:	6160      	str	r0, [r4, #20]
			taskEXIT_CRITICAL();
 8001b1a:	f002 fced 	bl	80044f8 <vPortExitCritical>
			( void ) xTaskNotifyWait( ( uint32_t ) 0, ( uint32_t ) 0, NULL, xTicksToWait );
 8001b1e:	9b03      	ldr	r3, [sp, #12]
 8001b20:	2200      	movs	r2, #0
 8001b22:	4611      	mov	r1, r2
 8001b24:	4610      	mov	r0, r2
 8001b26:	f000 feb1 	bl	800288c <xTaskNotifyWait>
			pxStreamBuffer->xTaskWaitingToSend = NULL;
 8001b2a:	2300      	movs	r3, #0
 8001b2c:	6163      	str	r3, [r4, #20]
		} while( xTaskCheckForTimeOut( &xTimeOut, &xTicksToWait ) == pdFALSE );
 8001b2e:	a903      	add	r1, sp, #12
 8001b30:	a804      	add	r0, sp, #16
 8001b32:	f001 fc4b 	bl	80033cc <xTaskCheckForTimeOut>
 8001b36:	2800      	cmp	r0, #0
 8001b38:	d0df      	beq.n	8001afa <xStreamBufferSend+0x62>
 8001b3a:	e00a      	b.n	8001b52 <xStreamBufferSend+0xba>
 8001b3c:	f04f 0350 	mov.w	r3, #80	@ 0x50
 8001b40:	f383 8811 	msr	BASEPRI, r3
 8001b44:	f3bf 8f6f 	isb	sy
 8001b48:	f3bf 8f4f 	dsb	sy
					configASSERT( pxStreamBuffer->xTaskWaitingToSend == NULL );
 8001b4c:	e7fe      	b.n	8001b4c <xStreamBufferSend+0xb4>
					taskEXIT_CRITICAL();
 8001b4e:	f002 fcd3 	bl	80044f8 <vPortExitCritical>
	if( xSpace == ( size_t ) 0 )
 8001b52:	b91d      	cbnz	r5, 8001b5c <xStreamBufferSend+0xc4>
		xSpace = xStreamBufferSpacesAvailable( pxStreamBuffer );
 8001b54:	4620      	mov	r0, r4
 8001b56:	f7ff ff8a 	bl	8001a6e <xStreamBufferSpacesAvailable>
 8001b5a:	4605      	mov	r5, r0
	xReturn = prvWriteMessageToBuffer( pxStreamBuffer, pvTxData, xDataLengthBytes, xSpace, xRequiredSpace );
 8001b5c:	9700      	str	r7, [sp, #0]
 8001b5e:	462b      	mov	r3, r5
 8001b60:	4632      	mov	r2, r6
 8001b62:	4641      	mov	r1, r8
 8001b64:	4620      	mov	r0, r4
 8001b66:	f7ff fdbc 	bl	80016e2 <prvWriteMessageToBuffer>
	if( xReturn > ( size_t ) 0 )
 8001b6a:	4605      	mov	r5, r0
 8001b6c:	b918      	cbnz	r0, 8001b76 <xStreamBufferSend+0xde>
}
 8001b6e:	4628      	mov	r0, r5
 8001b70:	b006      	add	sp, #24
 8001b72:	e8bd 81f0 	ldmia.w	sp!, {r4, r5, r6, r7, r8, pc}
		if( prvBytesInBuffer( pxStreamBuffer ) >= pxStreamBuffer->xTriggerLevelBytes )
 8001b76:	4620      	mov	r0, r4
 8001b78:	f7ff fd64 	bl	8001644 <prvBytesInBuffer>
 8001b7c:	68e3      	ldr	r3, [r4, #12]
 8001b7e:	4298      	cmp	r0, r3
 8001b80:	d3f5      	bcc.n	8001b6e <xStreamBufferSend+0xd6>
			sbSEND_COMPLETED( pxStreamBuffer );
 8001b82:	f000 fd3f 	bl	8002604 <vTaskSuspendAll>
 8001b86:	6923      	ldr	r3, [r4, #16]
 8001b88:	b13b      	cbz	r3, 8001b9a <xStreamBufferSend+0x102>
 8001b8a:	6920      	ldr	r0, [r4, #16]
 8001b8c:	2300      	movs	r3, #0
 8001b8e:	461a      	mov	r2, r3
 8001b90:	4619      	mov	r1, r3
 8001b92:	f000 fd67 	bl	8002664 <xTaskGenericNotify>
 8001b96:	2300      	movs	r3, #0
 8001b98:	6123      	str	r3, [r4, #16]
 8001b9a:	f001 f829 	bl	8002bf0 <xTaskResumeAll>
	return xReturn;
 8001b9e:	e7e6      	b.n	8001b6e <xStreamBufferSend+0xd6>

08001ba0 <xStreamBufferSendFromISR>:
	configASSERT( pvTxData );
 8001ba0:	b1f1      	cbz	r1, 8001be0 <xStreamBufferSendFromISR+0x40>
{
 8001ba2:	e92d 41f0 	stmdb	sp!, {r4, r5, r6, r7, r8, lr}
 8001ba6:	b082      	sub	sp, #8
 8001ba8:	4604      	mov	r4, r0
 8001baa:	4615      	mov	r5, r2
 8001bac:	461e      	mov	r6, r3
 8001bae:	460f      	mov	r7, r1
	configASSERT( pxStreamBuffer );
 8001bb0:	b1f8      	cbz	r0, 8001bf2 <xStreamBufferSendFromISR+0x52>
	if( ( pxStreamBuffer->ucFlags & sbFLAGS_IS_MESSAGE_BUFFER ) != ( uint8_t ) 0 )
 8001bb2:	7f03      	ldrb	r3, [r0, #28]
 8001bb4:	f013 0f01 	tst.w	r3, #1
 8001bb8:	d024      	beq.n	8001c04 <xStreamBufferSendFromISR+0x64>
		xRequiredSpace += sbBYTES_TO_STORE_MESSAGE_LENGTH;
 8001bba:	f102 0804 	add.w	r8, r2, #4
	xSpace = xStreamBufferSpacesAvailable( pxStreamBuffer );
 8001bbe:	4620      	mov	r0, r4
 8001bc0:	f7ff ff55 	bl	8001a6e <xStreamBufferSpacesAvailable>
 8001bc4:	4603      	mov	r3, r0
	xReturn = prvWriteMessageToBuffer( pxStreamBuffer, pvTxData, xDataLengthBytes, xSpace, xRequiredSpace );
 8001bc6:	f8cd 8000 	str.w	r8, [sp]
 8001bca:	462a      	mov	r2, r5
 8001bcc:	4639      	mov	r1, r7
 8001bce:	4620      	mov	r0, r4
 8001bd0:	f7ff fd87 	bl	80016e2 <prvWriteMessageToBuffer>
	if( xReturn > ( size_t ) 0 )
 8001bd4:	4605      	mov	r5, r0
 8001bd6:	b9b8      	cbnz	r0, 8001c08 <xStreamBufferSendFromISR+0x68>
}
 8001bd8:	4628      	mov	r0, r5
 8001bda:	b002      	add	sp, #8
 8001bdc:	e8bd 81f0 	ldmia.w	sp!, {r4, r5, r6, r7, r8, pc}
 8001be0:	f04f 0350 	mov.w	r3, #80	@ 0x50
 8001be4:	f383 8811 	msr	BASEPRI, r3
 8001be8:	f3bf 8f6f 	isb	sy
 8001bec:	f3bf 8f4f 	dsb	sy
	configASSERT( pvTxData );
 8001bf0:	e7fe      	b.n	8001bf0 <xStreamBufferSendFromISR+0x50>
 8001bf2:	f04f 0350 	mov.w	r3, #80	@ 0x50
 8001bf6:	f383 8811 	msr	BASEPRI, r3
 8001bfa:	f3bf 8f6f 	isb	sy
 8001bfe:	f3bf 8f4f 	dsb	sy
	configASSERT( pxStreamBuffer );
 8001c02:	e7fe      	b.n	8001c02 <xStreamBufferSendFromISR+0x62>
size_t xRequiredSpace = xDataLengthBytes;
 8001c04:	4690      	mov	r8, r2
 8001c06:	e7da      	b.n	8001bbe <xStreamBufferSendFromISR+0x1e>
		if( prvBytesInBuffer( pxStreamBuffer ) >= pxStreamBuffer->xTriggerLevelBytes )
 8001c08:	4620      	mov	r0, r4
 8001c0a:	f7ff fd1b 	bl	8001644 <prvBytesInBuffer>
 8001c0e:	68e3      	ldr	r3, [r4, #12]
 8001c10:	4298      	cmp	r0, r3
 8001c12:	d3e1      	bcc.n	8001bd8 <xStreamBufferSendFromISR+0x38>
	__asm volatile
 8001c14:	f3ef 8711 	mrs	r7, BASEPRI
 8001c18:	f04f 0350 	mov.w	r3, #80	@ 0x50
 8001c1c:	f383 8811 	msr	BASEPRI, r3
 8001c20:	f3bf 8f6f 	isb	sy
 8001c24:	f3bf 8f4f 	dsb	sy
			sbSEND_COMPLETE_FROM_ISR( pxStreamBuffer, pxHigherPriorityTaskWoken );
 8001c28:	6923      	ldr	r3, [r4, #16]
 8001c2a:	b143      	cbz	r3, 8001c3e <xStreamBufferSendFromISR+0x9e>
 8001c2c:	6920      	ldr	r0, [r4, #16]
 8001c2e:	9600      	str	r6, [sp, #0]
 8001c30:	2300      	movs	r3, #0
 8001c32:	461a      	mov	r2, r3
 8001c34:	4619      	mov	r1, r3
 8001c36:	f000 fd93 	bl	8002760 <xTaskGenericNotifyFromISR>
 8001c3a:	2300      	movs	r3, #0
 8001c3c:	6123      	str	r3, [r4, #16]
	__asm volatile
 8001c3e:	f387 8811 	msr	BASEPRI, r7
	return xReturn;
 8001c42:	e7c9      	b.n	8001bd8 <xStreamBufferSendFromISR+0x38>

08001c44 <xStreamBufferIsFull>:
	configASSERT( pxStreamBuffer );
 8001c44:	b168      	cbz	r0, 8001c62 <xStreamBufferIsFull+0x1e>
{
 8001c46:	b510      	push	{r4, lr}
 8001c48:	4603      	mov	r3, r0
	if( ( pxStreamBuffer->ucFlags & sbFLAGS_IS_MESSAGE_BUFFER ) != ( uint8_t ) 0 )
 8001c4a:	7f02      	ldrb	r2, [r0, #28]
 8001c4c:	f012 0f01 	tst.w	r2, #1
 8001c50:	d010      	beq.n	8001c74 <xStreamBufferIsFull+0x30>
		xBytesToStoreMessageLength = sbBYTES_TO_STORE_MESSAGE_LENGTH;
 8001c52:	2404      	movs	r4, #4
	if( xStreamBufferSpacesAvailable( xStreamBuffer ) <= xBytesToStoreMessageLength )
 8001c54:	4618      	mov	r0, r3
 8001c56:	f7ff ff0a 	bl	8001a6e <xStreamBufferSpacesAvailable>
 8001c5a:	42a0      	cmp	r0, r4
 8001c5c:	d80c      	bhi.n	8001c78 <xStreamBufferIsFull+0x34>
		xReturn = pdTRUE;
 8001c5e:	2001      	movs	r0, #1
}
 8001c60:	bd10      	pop	{r4, pc}
	__asm volatile
 8001c62:	f04f 0350 	mov.w	r3, #80	@ 0x50
 8001c66:	f383 8811 	msr	BASEPRI, r3
 8001c6a:	f3bf 8f6f 	isb	sy
 8001c6e:	f3bf 8f4f 	dsb	sy
	configASSERT( pxStreamBuffer );
 8001c72:	e7fe      	b.n	8001c72 <xStreamBufferIsFull+0x2e>
		xBytesToStoreMessageLength = 0;
 8001c74:	2400      	movs	r4, #0
 8001c76:	e7ed      	b.n	8001c54 <xStreamBufferIsFull+0x10>
		xReturn = pdFALSE;
 8001c78:	2000      	movs	r0, #0
	return xReturn;
 8001c7a:	e7f1      	b.n	8001c60 <xStreamBufferIsFull+0x1c>

08001c7c <xStreamBufferBytesAvailable>:
{
 8001c7c:	b508      	push	{r3, lr}
	configASSERT( pxStreamBuffer );
 8001c7e:	b110      	cbz	r0, 8001c86 <xStreamBufferBytesAvailable+0xa>
	xReturn = prvBytesInBuffer( pxStreamBuffer );
 8001c80:	f7ff fce0 	bl	8001644 <prvBytesInBuffer>
}
 8001c84:	bd08      	pop	{r3, pc}
 8001c86:	f04f 0350 	mov.w	r3, #80	@ 0x50
 8001c8a:	f383 8811 	msr	BASEPRI, r3
 8001c8e:	f3bf 8f6f 	isb	sy
 8001c92:	f3bf 8f4f 	dsb	sy
	configASSERT( pxStreamBuffer );
 8001c96:	e7fe      	b.n	8001c96 <xStreamBufferBytesAvailable+0x1a>

08001c98 <xStreamBufferSetTriggerLevel>:
	configASSERT( pxStreamBuffer );
 8001c98:	4603      	mov	r3, r0
 8001c9a:	b138      	cbz	r0, 8001cac <xStreamBufferSetTriggerLevel+0x14>
	if( xTriggerLevel == ( size_t ) 0 )
 8001c9c:	b901      	cbnz	r1, 8001ca0 <xStreamBufferSetTriggerLevel+0x8>
		xTriggerLevel = ( size_t ) 1;
 8001c9e:	2101      	movs	r1, #1
	if( xTriggerLevel <= pxStreamBuffer->xLength )
 8001ca0:	689a      	ldr	r2, [r3, #8]
 8001ca2:	428a      	cmp	r2, r1
 8001ca4:	d30b      	bcc.n	8001cbe <xStreamBufferSetTriggerLevel+0x26>
		pxStreamBuffer->xTriggerLevelBytes = xTriggerLevel;
 8001ca6:	60d9      	str	r1, [r3, #12]
		xReturn = pdPASS;
 8001ca8:	2001      	movs	r0, #1
 8001caa:	4770      	bx	lr
 8001cac:	f04f 0350 	mov.w	r3, #80	@ 0x50
 8001cb0:	f383 8811 	msr	BASEPRI, r3
 8001cb4:	f3bf 8f6f 	isb	sy
 8001cb8:	f3bf 8f4f 	dsb	sy
	configASSERT( pxStreamBuffer );
 8001cbc:	e7fe      	b.n	8001cbc <xStreamBufferSetTriggerLevel+0x24>
		xReturn = pdFALSE;
 8001cbe:	2000      	movs	r0, #0
}
 8001cc0:	4770      	bx	lr

08001cc2 <xStreamBufferSendCompletedFromISR>:
	configASSERT( pxStreamBuffer );
 8001cc2:	b1e0      	cbz	r0, 8001cfe <xStreamBufferSendCompletedFromISR+0x3c>
{
 8001cc4:	b530      	push	{r4, r5, lr}
 8001cc6:	b083      	sub	sp, #12
 8001cc8:	4605      	mov	r5, r0
	__asm volatile
 8001cca:	f3ef 8411 	mrs	r4, BASEPRI
 8001cce:	f04f 0350 	mov.w	r3, #80	@ 0x50
 8001cd2:	f383 8811 	msr	BASEPRI, r3
 8001cd6:	f3bf 8f6f 	isb	sy
 8001cda:	f3bf 8f4f 	dsb	sy
		if( ( pxStreamBuffer )->xTaskWaitingToReceive != NULL )
 8001cde:	6903      	ldr	r3, [r0, #16]
 8001ce0:	b1b3      	cbz	r3, 8001d10 <xStreamBufferSendCompletedFromISR+0x4e>
			( void ) xTaskNotifyFromISR( ( pxStreamBuffer )->xTaskWaitingToReceive,
 8001ce2:	6900      	ldr	r0, [r0, #16]
 8001ce4:	9100      	str	r1, [sp, #0]
 8001ce6:	2300      	movs	r3, #0
 8001ce8:	461a      	mov	r2, r3
 8001cea:	4619      	mov	r1, r3
 8001cec:	f000 fd38 	bl	8002760 <xTaskGenericNotifyFromISR>
			( pxStreamBuffer )->xTaskWaitingToReceive = NULL;
 8001cf0:	2300      	movs	r3, #0
 8001cf2:	612b      	str	r3, [r5, #16]
			xReturn = pdTRUE;
 8001cf4:	2001      	movs	r0, #1
	__asm volatile
 8001cf6:	f384 8811 	msr	BASEPRI, r4
}
 8001cfa:	b003      	add	sp, #12
 8001cfc:	bd30      	pop	{r4, r5, pc}
	__asm volatile
 8001cfe:	f04f 0350 	mov.w	r3, #80	@ 0x50
 8001d02:	f383 8811 	msr	BASEPRI, r3
 8001d06:	f3bf 8f6f 	isb	sy
 8001d0a:	f3bf 8f4f 	dsb	sy
	configASSERT( pxStreamBuffer );
 8001d0e:	e7fe      	b.n	8001d0e <xStreamBufferSendCompletedFromISR+0x4c>
			xReturn = pdFALSE;
 8001d10:	2000      	movs	r0, #0
 8001d12:	e7f0      	b.n	8001cf6 <xStreamBufferSendCompletedFromISR+0x34>

08001d14 <xStreamBufferReceiveCompletedFromISR>:
	configASSERT( pxStreamBuffer );
 8001d14:	b1e0      	cbz	r0, 8001d50 <xStreamBufferReceiveCompletedFromISR+0x3c>
{
 8001d16:	b530      	push	{r4, r5, lr}
 8001d18:	b083      	sub	sp, #12
 8001d1a:	4605      	mov	r5, r0
	__asm volatile
 8001d1c:	f3ef 8411 	mrs	r4, BASEPRI
 8001d20:	f04f 0350 	mov.w	r3, #80	@ 0x50
 8001d24:	f383 8811 	msr	BASEPRI, r3
 8001d28:	f3bf 8f6f 	isb	sy
 8001d2c:	f3bf 8f4f 	dsb	sy
		if( ( pxStreamBuffer )->xTaskWaitingToSend != NULL )
 8001d30:	6943      	ldr	r3, [r0, #20]
 8001d32:	b1b3      	cbz	r3, 8001d62 <xStreamBufferReceiveCompletedFromISR+0x4e>
			( void ) xTaskNotifyFromISR( ( pxStreamBuffer )->xTaskWaitingToSend,
 8001d34:	6940      	ldr	r0, [r0, #20]
 8001d36:	9100      	str	r1, [sp, #0]
 8001d38:	2300      	movs	r3, #0
 8001d3a:	461a      	mov	r2, r3
 8001d3c:	4619      	mov	r1, r3
 8001d3e:	f000 fd0f 	bl	8002760 <xTaskGenericNotifyFromISR>
			( pxStreamBuffer )->xTaskWaitingToSend = NULL;
 8001d42:	2300      	movs	r3, #0
 8001d44:	616b      	str	r3, [r5, #20]
			xReturn = pdTRUE;
 8001d46:	2001      	movs	r0, #1
	__asm volatile
 8001d48:	f384 8811 	msr	BASEPRI, r4
}
 8001d4c:	b003      	add	sp, #12
 8001d4e:	bd30      	pop	{r4, r5, pc}
	__asm volatile
 8001d50:	f04f 0350 	mov.w	r3, #80	@ 0x50
 8001d54:	f383 8811 	msr	BASEPRI, r3
 8001d58:	f3bf 8f6f 	isb	sy
 8001d5c:	f3bf 8f4f 	dsb	sy
	configASSERT( pxStreamBuffer );
 8001d60:	e7fe      	b.n	8001d60 <xStreamBufferReceiveCompletedFromISR+0x4c>
			xReturn = pdFALSE;
 8001d62:	2000      	movs	r0, #0
 8001d64:	e7f0      	b.n	8001d48 <xStreamBufferReceiveCompletedFromISR+0x34>

08001d66 <xStreamBufferGenericCreateStatic>:
		configASSERT( pucStreamBufferStorageArea );
 8001d66:	b17b      	cbz	r3, 8001d88 <xStreamBufferGenericCreateStatic+0x22>
	{
 8001d68:	b500      	push	{lr}
 8001d6a:	b085      	sub	sp, #20
 8001d6c:	469c      	mov	ip, r3
		configASSERT( pxStaticStreamBuffer );
 8001d6e:	9b06      	ldr	r3, [sp, #24]
 8001d70:	b19b      	cbz	r3, 8001d9a <xStreamBufferGenericCreateStatic+0x34>
		configASSERT( xTriggerLevelBytes <= xBufferSizeBytes );
 8001d72:	4281      	cmp	r1, r0
 8001d74:	d91a      	bls.n	8001dac <xStreamBufferGenericCreateStatic+0x46>
 8001d76:	f04f 0350 	mov.w	r3, #80	@ 0x50
 8001d7a:	f383 8811 	msr	BASEPRI, r3
 8001d7e:	f3bf 8f6f 	isb	sy
 8001d82:	f3bf 8f4f 	dsb	sy
 8001d86:	e7fe      	b.n	8001d86 <xStreamBufferGenericCreateStatic+0x20>
 8001d88:	f04f 0350 	mov.w	r3, #80	@ 0x50
 8001d8c:	f383 8811 	msr	BASEPRI, r3
 8001d90:	f3bf 8f6f 	isb	sy
 8001d94:	f3bf 8f4f 	dsb	sy
		configASSERT( pucStreamBufferStorageArea );
 8001d98:	e7fe      	b.n	8001d98 <xStreamBufferGenericCreateStatic+0x32>
 8001d9a:	f04f 0350 	mov.w	r3, #80	@ 0x50
 8001d9e:	f383 8811 	msr	BASEPRI, r3
 8001da2:	f3bf 8f6f 	isb	sy
 8001da6:	f3bf 8f4f 	dsb	sy
		configASSERT( pxStaticStreamBuffer );
 8001daa:	e7fe      	b.n	8001daa <xStreamBufferGenericCreateStatic+0x44>
		if( xTriggerLevelBytes == ( size_t ) 0 )
 8001dac:	b901      	cbnz	r1, 8001db0 <xStreamBufferGenericCreateStatic+0x4a>
			xTriggerLevelBytes = ( size_t ) 1;
 8001dae:	2101      	movs	r1, #1
		if( xIsMessageBuffer != pdFALSE )
 8001db0:	b15a      	cbz	r2, 8001dca <xStreamBufferGenericCreateStatic+0x64>
			ucFlags = sbFLAGS_IS_MESSAGE_BUFFER | sbFLAGS_IS_STATICALLY_ALLOCATED;
 8001db2:	2303      	movs	r3, #3
		configASSERT( xBufferSizeBytes > sbBYTES_TO_STORE_MESSAGE_LENGTH );
 8001db4:	2804      	cmp	r0, #4
 8001db6:	d80a      	bhi.n	8001dce <xStreamBufferGenericCreateStatic+0x68>
 8001db8:	f04f 0350 	mov.w	r3, #80	@ 0x50
 8001dbc:	f383 8811 	msr	BASEPRI, r3
 8001dc0:	f3bf 8f6f 	isb	sy
 8001dc4:	f3bf 8f4f 	dsb	sy
 8001dc8:	e7fe      	b.n	8001dc8 <xStreamBufferGenericCreateStatic+0x62>
			ucFlags = sbFLAGS_IS_STATICALLY_ALLOCATED;
 8001dca:	2302      	movs	r3, #2
 8001dcc:	e7f2      	b.n	8001db4 <xStreamBufferGenericCreateStatic+0x4e>
			volatile size_t xSize = sizeof( StaticStreamBuffer_t );
 8001dce:	2220      	movs	r2, #32
 8001dd0:	9203      	str	r2, [sp, #12]
			configASSERT( xSize == sizeof( StreamBuffer_t ) );
 8001dd2:	9a03      	ldr	r2, [sp, #12]
 8001dd4:	2a20      	cmp	r2, #32
 8001dd6:	d008      	beq.n	8001dea <xStreamBufferGenericCreateStatic+0x84>
 8001dd8:	f04f 0350 	mov.w	r3, #80	@ 0x50
 8001ddc:	f383 8811 	msr	BASEPRI, r3
 8001de0:	f3bf 8f6f 	isb	sy
 8001de4:	f3bf 8f4f 	dsb	sy
 8001de8:	e7fe      	b.n	8001de8 <xStreamBufferGenericCreateStatic+0x82>
			prvInitialiseNewStreamBuffer( pxStreamBuffer,
 8001dea:	9300      	str	r3, [sp, #0]
 8001dec:	460b      	mov	r3, r1
 8001dee:	4602      	mov	r2, r0
 8001df0:	4661      	mov	r1, ip
 8001df2:	9806      	ldr	r0, [sp, #24]
 8001df4:	f7ff fcfe 	bl	80017f4 <prvInitialiseNewStreamBuffer>
			pxStreamBuffer->ucFlags |= sbFLAGS_IS_STATICALLY_ALLOCATED;
 8001df8:	9b06      	ldr	r3, [sp, #24]
 8001dfa:	7f1b      	ldrb	r3, [r3, #28]
 8001dfc:	f043 0302 	orr.w	r3, r3, #2
 8001e00:	9a06      	ldr	r2, [sp, #24]
 8001e02:	7713      	strb	r3, [r2, #28]
	}
 8001e04:	4610      	mov	r0, r2
 8001e06:	b005      	add	sp, #20
 8001e08:	f85d fb04 	ldr.w	pc, [sp], #4

08001e0c <xStreamBufferNextMessageLengthBytes>:
	configASSERT( pxStreamBuffer );
 8001e0c:	b148      	cbz	r0, 8001e22 <xStreamBufferNextMessageLengthBytes+0x16>
{
 8001e0e:	b530      	push	{r4, r5, lr}
 8001e10:	b083      	sub	sp, #12
 8001e12:	4604      	mov	r4, r0
	if( ( pxStreamBuffer->ucFlags & sbFLAGS_IS_MESSAGE_BUFFER ) != ( uint8_t ) 0 )
 8001e14:	7f03      	ldrb	r3, [r0, #28]
 8001e16:	f013 0f01 	tst.w	r3, #1
 8001e1a:	d10b      	bne.n	8001e34 <xStreamBufferNextMessageLengthBytes+0x28>
		xReturn = 0;
 8001e1c:	2000      	movs	r0, #0
}
 8001e1e:	b003      	add	sp, #12
 8001e20:	bd30      	pop	{r4, r5, pc}
 8001e22:	f04f 0350 	mov.w	r3, #80	@ 0x50
 8001e26:	f383 8811 	msr	BASEPRI, r3
 8001e2a:	f3bf 8f6f 	isb	sy
 8001e2e:	f3bf 8f4f 	dsb	sy
	configASSERT( pxStreamBuffer );
 8001e32:	e7fe      	b.n	8001e32 <xStreamBufferNextMessageLengthBytes+0x26>
		xBytesAvailable = prvBytesInBuffer( pxStreamBuffer );
 8001e34:	f7ff fc06 	bl	8001644 <prvBytesInBuffer>
		if( xBytesAvailable > sbBYTES_TO_STORE_MESSAGE_LENGTH )
 8001e38:	2804      	cmp	r0, #4
 8001e3a:	d80a      	bhi.n	8001e52 <xStreamBufferNextMessageLengthBytes+0x46>
			configASSERT( xBytesAvailable == 0 );
 8001e3c:	2800      	cmp	r0, #0
 8001e3e:	d0ee      	beq.n	8001e1e <xStreamBufferNextMessageLengthBytes+0x12>
 8001e40:	f04f 0350 	mov.w	r3, #80	@ 0x50
 8001e44:	f383 8811 	msr	BASEPRI, r3
 8001e48:	f3bf 8f6f 	isb	sy
 8001e4c:	f3bf 8f4f 	dsb	sy
 8001e50:	e7fe      	b.n	8001e50 <xStreamBufferNextMessageLengthBytes+0x44>
			xOriginalTail = pxStreamBuffer->xTail;
 8001e52:	6825      	ldr	r5, [r4, #0]
			( void ) prvReadBytesFromBuffer( pxStreamBuffer, ( uint8_t * ) &xTempReturn, sbBYTES_TO_STORE_MESSAGE_LENGTH, xBytesAvailable );
 8001e54:	4603      	mov	r3, r0
 8001e56:	2204      	movs	r2, #4
 8001e58:	eb0d 0102 	add.w	r1, sp, r2
 8001e5c:	4620      	mov	r0, r4
 8001e5e:	f7ff fc62 	bl	8001726 <prvReadBytesFromBuffer>
			xReturn = ( size_t ) xTempReturn;
 8001e62:	9801      	ldr	r0, [sp, #4]
			pxStreamBuffer->xTail = xOriginalTail;
 8001e64:	6025      	str	r5, [r4, #0]
 8001e66:	e7da      	b.n	8001e1e <xStreamBufferNextMessageLengthBytes+0x12>

08001e68 <prvTaskIsTaskSuspended>:

		/* Accesses xPendingReadyList so must be called from a critical
		section. */

		/* It does not make sense to check if the calling task is suspended. */
		configASSERT( xTask );
 8001e68:	b128      	cbz	r0, 8001e76 <prvTaskIsTaskSuspended+0xe>

		/* Is the task being resumed actually in the suspended list? */
		if( listIS_CONTAINED_WITHIN( &xSuspendedTaskList, &( pxTCB->xStateListItem ) ) != pdFALSE )
 8001e6a:	6b41      	ldr	r1, [r0, #52]	@ 0x34
 8001e6c:	4a0c      	ldr	r2, [pc, #48]	@ (8001ea0 <prvTaskIsTaskSuspended+0x38>)
 8001e6e:	4291      	cmp	r1, r2
 8001e70:	d00a      	beq.n	8001e88 <prvTaskIsTaskSuspended+0x20>
	BaseType_t xReturn = pdFALSE;
 8001e72:	2000      	movs	r0, #0
 8001e74:	4770      	bx	lr
 8001e76:	f04f 0350 	mov.w	r3, #80	@ 0x50
 8001e7a:	f383 8811 	msr	BASEPRI, r3
 8001e7e:	f3bf 8f6f 	isb	sy
 8001e82:	f3bf 8f4f 	dsb	sy
		configASSERT( xTask );
 8001e86:	e7fe      	b.n	8001e86 <prvTaskIsTaskSuspended+0x1e>
		{
			/* Has the task already been resumed from within an ISR? */
			if( listIS_CONTAINED_WITHIN( &xPendingReadyList, &( pxTCB->xEventListItem ) ) == pdFALSE )
 8001e88:	6c83      	ldr	r3, [r0, #72]	@ 0x48
 8001e8a:	4a06      	ldr	r2, [pc, #24]	@ (8001ea4 <prvTaskIsTaskSuspended+0x3c>)
 8001e8c:	4293      	cmp	r3, r2
 8001e8e:	d002      	beq.n	8001e96 <prvTaskIsTaskSuspended+0x2e>
			{
				/* Is it in the suspended list because it is in the	Suspended
				state, or because is is blocked with no timeout? */
				if( listIS_CONTAINED_WITHIN( NULL, &( pxTCB->xEventListItem ) ) != pdFALSE ) /*lint !e961.  The cast is only redundant when NULL is used. */
 8001e90:	b11b      	cbz	r3, 8001e9a <prvTaskIsTaskSuspended+0x32>
	BaseType_t xReturn = pdFALSE;
 8001e92:	2000      	movs	r0, #0
 8001e94:	4770      	bx	lr
 8001e96:	2000      	movs	r0, #0
 8001e98:	4770      	bx	lr
				{
					xReturn = pdTRUE;
 8001e9a:	2001      	movs	r0, #1
		{
			mtCOVERAGE_TEST_MARKER();
		}

		return xReturn;
	} /*lint !e818 xTask cannot be a pointer to const because it is a typedef. */
 8001e9c:	4770      	bx	lr
 8001e9e:	bf00      	nop
 8001ea0:	2000006c 	.word	0x2000006c
 8001ea4:	20000098 	.word	0x20000098

08001ea8 <prvInitialiseTaskLists>:

#endif /* portUSING_MPU_WRAPPERS */
/*-----------------------------------------------------------*/

static void prvInitialiseTaskLists( void )
{
 8001ea8:	b538      	push	{r3, r4, r5, lr}
UBaseType_t uxPriority;

	for( uxPriority = ( UBaseType_t ) 0U; uxPriority < ( UBaseType_t ) configMAX_PRIORITIES; uxPriority++ )
 8001eaa:	2400      	movs	r4, #0
 8001eac:	e007      	b.n	8001ebe <prvInitialiseTaskLists+0x16>
	{
		vListInitialise( &( pxReadyTasksLists[ uxPriority ] ) );
 8001eae:	eb04 0284 	add.w	r2, r4, r4, lsl #2
 8001eb2:	0093      	lsls	r3, r2, #2
 8001eb4:	480e      	ldr	r0, [pc, #56]	@ (8001ef0 <prvInitialiseTaskLists+0x48>)
 8001eb6:	4418      	add	r0, r3
 8001eb8:	f002 fa12 	bl	80042e0 <vListInitialise>
	for( uxPriority = ( UBaseType_t ) 0U; uxPriority < ( UBaseType_t ) configMAX_PRIORITIES; uxPriority++ )
 8001ebc:	3401      	adds	r4, #1
 8001ebe:	2c06      	cmp	r4, #6
 8001ec0:	d9f5      	bls.n	8001eae <prvInitialiseTaskLists+0x6>
	}

	vListInitialise( &xDelayedTaskList1 );
 8001ec2:	4d0c      	ldr	r5, [pc, #48]	@ (8001ef4 <prvInitialiseTaskLists+0x4c>)
 8001ec4:	4628      	mov	r0, r5
 8001ec6:	f002 fa0b 	bl	80042e0 <vListInitialise>
	vListInitialise( &xDelayedTaskList2 );
 8001eca:	4c0b      	ldr	r4, [pc, #44]	@ (8001ef8 <prvInitialiseTaskLists+0x50>)
 8001ecc:	4620      	mov	r0, r4
 8001ece:	f002 fa07 	bl	80042e0 <vListInitialise>
	vListInitialise( &xPendingReadyList );
 8001ed2:	480a      	ldr	r0, [pc, #40]	@ (8001efc <prvInitialiseTaskLists+0x54>)
 8001ed4:	f002 fa04 	bl	80042e0 <vListInitialise>

	#if ( INCLUDE_vTaskDelete == 1 )
	{
		vListInitialise( &xTasksWaitingTermination );
 8001ed8:	4809      	ldr	r0, [pc, #36]	@ (8001f00 <prvInitialiseTaskLists+0x58>)
 8001eda:	f002 fa01 	bl	80042e0 <vListInitialise>
	}
	#endif /* INCLUDE_vTaskDelete */

	#if ( INCLUDE_vTaskSuspend == 1 )
	{
		vListInitialise( &xSuspendedTaskList );
 8001ede:	4809      	ldr	r0, [pc, #36]	@ (8001f04 <prvInitialiseTaskLists+0x5c>)
 8001ee0:	f002 f9fe 	bl	80042e0 <vListInitialise>
	}
	#endif /* INCLUDE_vTaskSuspend */

	/* Start with pxDelayedTaskList using list1 and the pxOverflowDelayedTaskList
	using list2. */
	pxDelayedTaskList = &xDelayedTaskList1;
 8001ee4:	4b08      	ldr	r3, [pc, #32]	@ (8001f08 <prvInitialiseTaskLists+0x60>)
 8001ee6:	601d      	str	r5, [r3, #0]
	pxOverflowDelayedTaskList = &xDelayedTaskList2;
 8001ee8:	4b08      	ldr	r3, [pc, #32]	@ (8001f0c <prvInitialiseTaskLists+0x64>)
 8001eea:	601c      	str	r4, [r3, #0]
}
 8001eec:	bd38      	pop	{r3, r4, r5, pc}
 8001eee:	bf00      	nop
 8001ef0:	200000dc 	.word	0x200000dc
 8001ef4:	200000c8 	.word	0x200000c8
 8001ef8:	200000b4 	.word	0x200000b4
 8001efc:	20000098 	.word	0x20000098
 8001f00:	20000084 	.word	0x20000084
 8001f04:	2000006c 	.word	0x2000006c
 8001f08:	200000b0 	.word	0x200000b0
 8001f0c:	200000ac 	.word	0x200000ac

08001f10 <prvAddCurrentTaskToDelayedList>:

#endif
/*-----------------------------------------------------------*/

static void prvAddCurrentTaskToDelayedList( TickType_t xTicksToWait, const BaseType_t xCanBlockIndefinitely )
{
 8001f10:	b570      	push	{r4, r5, r6, lr}
 8001f12:	4604      	mov	r4, r0
 8001f14:	460d      	mov	r5, r1
TickType_t xTimeToWake;
const TickType_t xConstTickCount = xTickCount;
 8001f16:	4b1d      	ldr	r3, [pc, #116]	@ (8001f8c <prvAddCurrentTaskToDelayedList+0x7c>)
 8001f18:	681e      	ldr	r6, [r3, #0]
	}
	#endif

	/* Remove the task from the ready list before adding it to the blocked list
	as the same list item is used for both lists. */
	if( uxListRemove( &( pxCurrentTCB->xStateListItem ) ) == ( UBaseType_t ) 0 )
 8001f1a:	4b1d      	ldr	r3, [pc, #116]	@ (8001f90 <prvAddCurrentTaskToDelayedList+0x80>)
 8001f1c:	6818      	ldr	r0, [r3, #0]
 8001f1e:	3024      	adds	r0, #36	@ 0x24
 8001f20:	f002 fa10 	bl	8004344 <uxListRemove>
 8001f24:	b948      	cbnz	r0, 8001f3a <prvAddCurrentTaskToDelayedList+0x2a>
	{
		/* The current task must be in a ready list, so there is no need to
		check, and the port reset macro can be called directly. */
		portRESET_READY_PRIORITY( pxCurrentTCB->uxPriority, uxTopReadyPriority ); /*lint !e931 pxCurrentTCB cannot change as it is the calling task.  pxCurrentTCB->uxPriority and uxTopReadyPriority cannot change as called with scheduler suspended or in a critical section. */
 8001f26:	4b1a      	ldr	r3, [pc, #104]	@ (8001f90 <prvAddCurrentTaskToDelayedList+0x80>)
 8001f28:	681b      	ldr	r3, [r3, #0]
 8001f2a:	6cdb      	ldr	r3, [r3, #76]	@ 0x4c
 8001f2c:	2201      	movs	r2, #1
 8001f2e:	409a      	lsls	r2, r3
 8001f30:	4918      	ldr	r1, [pc, #96]	@ (8001f94 <prvAddCurrentTaskToDelayedList+0x84>)
 8001f32:	680b      	ldr	r3, [r1, #0]
 8001f34:	ea23 0302 	bic.w	r3, r3, r2
 8001f38:	600b      	str	r3, [r1, #0]
		mtCOVERAGE_TEST_MARKER();
	}

	#if ( INCLUDE_vTaskSuspend == 1 )
	{
		if( ( xTicksToWait == portMAX_DELAY ) && ( xCanBlockIndefinitely != pdFALSE ) )
 8001f3a:	f1b4 3fff 	cmp.w	r4, #4294967295	@ 0xffffffff
 8001f3e:	d00d      	beq.n	8001f5c <prvAddCurrentTaskToDelayedList+0x4c>
		else
		{
			/* Calculate the time at which the task should be woken if the event
			does not occur.  This may overflow but this doesn't matter, the
			kernel will manage it correctly. */
			xTimeToWake = xConstTickCount + xTicksToWait;
 8001f40:	4434      	add	r4, r6

			/* The list item will be inserted in wake time order. */
			listSET_LIST_ITEM_VALUE( &( pxCurrentTCB->xStateListItem ), xTimeToWake );
 8001f42:	4b13      	ldr	r3, [pc, #76]	@ (8001f90 <prvAddCurrentTaskToDelayedList+0x80>)
 8001f44:	681b      	ldr	r3, [r3, #0]
 8001f46:	625c      	str	r4, [r3, #36]	@ 0x24

			if( xTimeToWake < xConstTickCount )
 8001f48:	42a6      	cmp	r6, r4
 8001f4a:	d910      	bls.n	8001f6e <prvAddCurrentTaskToDelayedList+0x5e>
			{
				/* Wake time has overflowed.  Place this item in the overflow
				list. */
				vListInsert( pxOverflowDelayedTaskList, &( pxCurrentTCB->xStateListItem ) );
 8001f4c:	4b12      	ldr	r3, [pc, #72]	@ (8001f98 <prvAddCurrentTaskToDelayedList+0x88>)
 8001f4e:	6818      	ldr	r0, [r3, #0]
 8001f50:	4b0f      	ldr	r3, [pc, #60]	@ (8001f90 <prvAddCurrentTaskToDelayedList+0x80>)
 8001f52:	6819      	ldr	r1, [r3, #0]
 8001f54:	3124      	adds	r1, #36	@ 0x24
 8001f56:	f002 f9dc 	bl	8004312 <vListInsert>

		/* Avoid compiler warning when INCLUDE_vTaskSuspend is not 1. */
		( void ) xCanBlockIndefinitely;
	}
	#endif /* INCLUDE_vTaskSuspend */
}
 8001f5a:	bd70      	pop	{r4, r5, r6, pc}
		if( ( xTicksToWait == portMAX_DELAY ) && ( xCanBlockIndefinitely != pdFALSE ) )
 8001f5c:	2d00      	cmp	r5, #0
 8001f5e:	d0ef      	beq.n	8001f40 <prvAddCurrentTaskToDelayedList+0x30>
			vListInsertEnd( &xSuspendedTaskList, &( pxCurrentTCB->xStateListItem ) );
 8001f60:	4b0b      	ldr	r3, [pc, #44]	@ (8001f90 <prvAddCurrentTaskToDelayedList+0x80>)
 8001f62:	6819      	ldr	r1, [r3, #0]
 8001f64:	3124      	adds	r1, #36	@ 0x24
 8001f66:	480d      	ldr	r0, [pc, #52]	@ (8001f9c <prvAddCurrentTaskToDelayedList+0x8c>)
 8001f68:	f002 f9c8 	bl	80042fc <vListInsertEnd>
 8001f6c:	e7f5      	b.n	8001f5a <prvAddCurrentTaskToDelayedList+0x4a>
				vListInsert( pxDelayedTaskList, &( pxCurrentTCB->xStateListItem ) );
 8001f6e:	4b0c      	ldr	r3, [pc, #48]	@ (8001fa0 <prvAddCurrentTaskToDelayedList+0x90>)
 8001f70:	6818      	ldr	r0, [r3, #0]
 8001f72:	4b07      	ldr	r3, [pc, #28]	@ (8001f90 <prvAddCurrentTaskToDelayedList+0x80>)
 8001f74:	6819      	ldr	r1, [r3, #0]
 8001f76:	3124      	adds	r1, #36	@ 0x24
 8001f78:	f002 f9cb 	bl	8004312 <vListInsert>
				if( xTimeToWake < xNextTaskUnblockTime )
 8001f7c:	4b09      	ldr	r3, [pc, #36]	@ (8001fa4 <prvAddCurrentTaskToDelayedList+0x94>)
 8001f7e:	681b      	ldr	r3, [r3, #0]
 8001f80:	42a3      	cmp	r3, r4
 8001f82:	d9ea      	bls.n	8001f5a <prvAddCurrentTaskToDelayedList+0x4a>
					xNextTaskUnblockTime = xTimeToWake;
 8001f84:	4b07      	ldr	r3, [pc, #28]	@ (8001fa4 <prvAddCurrentTaskToDelayedList+0x94>)
 8001f86:	601c      	str	r4, [r3, #0]
}
 8001f88:	e7e7      	b.n	8001f5a <prvAddCurrentTaskToDelayedList+0x4a>
 8001f8a:	bf00      	nop
 8001f8c:	20000064 	.word	0x20000064
 8001f90:	20000168 	.word	0x20000168
 8001f94:	20000060 	.word	0x20000060
 8001f98:	200000ac 	.word	0x200000ac
 8001f9c:	2000006c 	.word	0x2000006c
 8001fa0:	200000b0 	.word	0x200000b0
 8001fa4:	20000048 	.word	0x20000048

08001fa8 <prvInitialiseNewTask>:
{
 8001fa8:	e92d 4ff8 	stmdb	sp!, {r3, r4, r5, r6, r7, r8, r9, sl, fp, lr}
 8001fac:	4680      	mov	r8, r0
 8001fae:	4617      	mov	r7, r2
 8001fb0:	4699      	mov	r9, r3
 8001fb2:	9d0a      	ldr	r5, [sp, #40]	@ 0x28
 8001fb4:	9c0c      	ldr	r4, [sp, #48]	@ 0x30
		if( ( uxPriority & portPRIVILEGE_BIT ) != 0U )
 8001fb6:	2d00      	cmp	r5, #0
 8001fb8:	db17      	blt.n	8001fea <prvInitialiseNewTask+0x42>
			xRunPrivileged = pdFALSE;
 8001fba:	f04f 0b00 	mov.w	fp, #0
		uxPriority &= ~portPRIVILEGE_BIT;
 8001fbe:	f025 4500 	bic.w	r5, r5, #2147483648	@ 0x80000000
		pxTopOfStack = &( pxNewTCB->pxStack[ ulStackDepth - ( uint32_t ) 1 ] );
 8001fc2:	6d26      	ldr	r6, [r4, #80]	@ 0x50
 8001fc4:	f107 4380 	add.w	r3, r7, #1073741824	@ 0x40000000
 8001fc8:	3b01      	subs	r3, #1
 8001fca:	eb06 0683 	add.w	r6, r6, r3, lsl #2
		pxTopOfStack = ( StackType_t * ) ( ( ( portPOINTER_SIZE_TYPE ) pxTopOfStack ) & ( ~( ( portPOINTER_SIZE_TYPE ) portBYTE_ALIGNMENT_MASK ) ) ); /*lint !e923 !e9033 !e9078 MISRA exception.  Avoiding casts between pointers and integers is not practical.  Size differences accounted for using portPOINTER_SIZE_TYPE type.  Checked by assert(). */
 8001fce:	f026 0607 	bic.w	r6, r6, #7
	if( pcName != NULL )
 8001fd2:	2900      	cmp	r1, #0
 8001fd4:	d03b      	beq.n	800204e <prvInitialiseNewTask+0xa6>
		for( x = ( UBaseType_t ) 0; x < ( UBaseType_t ) configMAX_TASK_NAME_LEN; x++ )
 8001fd6:	2300      	movs	r3, #0
 8001fd8:	2b0f      	cmp	r3, #15
 8001fda:	d809      	bhi.n	8001ff0 <prvInitialiseNewTask+0x48>
			pxNewTCB->pcTaskName[ x ] = pcName[ x ];
 8001fdc:	5cca      	ldrb	r2, [r1, r3]
 8001fde:	18e0      	adds	r0, r4, r3
 8001fe0:	f880 2054 	strb.w	r2, [r0, #84]	@ 0x54
			if( pcName[ x ] == ( char ) 0x00 )
 8001fe4:	b122      	cbz	r2, 8001ff0 <prvInitialiseNewTask+0x48>
		for( x = ( UBaseType_t ) 0; x < ( UBaseType_t ) configMAX_TASK_NAME_LEN; x++ )
 8001fe6:	3301      	adds	r3, #1
 8001fe8:	e7f6      	b.n	8001fd8 <prvInitialiseNewTask+0x30>
			xRunPrivileged = pdTRUE;
 8001fea:	f04f 0b01 	mov.w	fp, #1
 8001fee:	e7e6      	b.n	8001fbe <prvInitialiseNewTask+0x16>
		pxNewTCB->pcTaskName[ configMAX_TASK_NAME_LEN - 1 ] = '\0';
 8001ff0:	2300      	movs	r3, #0
 8001ff2:	f884 3063 	strb.w	r3, [r4, #99]	@ 0x63
	if( uxPriority >= ( UBaseType_t ) configMAX_PRIORITIES )
 8001ff6:	2d06      	cmp	r5, #6
 8001ff8:	d900      	bls.n	8001ffc <prvInitialiseNewTask+0x54>
		uxPriority = ( UBaseType_t ) configMAX_PRIORITIES - ( UBaseType_t ) 1U;
 8001ffa:	2506      	movs	r5, #6
	pxNewTCB->uxPriority = uxPriority;
 8001ffc:	64e5      	str	r5, [r4, #76]	@ 0x4c
		pxNewTCB->uxBasePriority = uxPriority;
 8001ffe:	6665      	str	r5, [r4, #100]	@ 0x64
		pxNewTCB->uxMutexesHeld = 0;
 8002000:	f04f 0a00 	mov.w	sl, #0
 8002004:	f8c4 a068 	str.w	sl, [r4, #104]	@ 0x68
	vListInitialiseItem( &( pxNewTCB->xStateListItem ) );
 8002008:	f104 0024 	add.w	r0, r4, #36	@ 0x24
 800200c:	f002 f973 	bl	80042f6 <vListInitialiseItem>
	vListInitialiseItem( &( pxNewTCB->xEventListItem ) );
 8002010:	f104 0038 	add.w	r0, r4, #56	@ 0x38
 8002014:	f002 f96f 	bl	80042f6 <vListInitialiseItem>
	listSET_LIST_ITEM_OWNER( &( pxNewTCB->xStateListItem ), pxNewTCB );
 8002018:	6324      	str	r4, [r4, #48]	@ 0x30
	listSET_LIST_ITEM_VALUE( &( pxNewTCB->xEventListItem ), ( TickType_t ) configMAX_PRIORITIES - ( TickType_t ) uxPriority ); /*lint !e961 MISRA exception as the casts are only redundant for some ports. */
 800201a:	f1c5 0507 	rsb	r5, r5, #7
 800201e:	63a5      	str	r5, [r4, #56]	@ 0x38
	listSET_LIST_ITEM_OWNER( &( pxNewTCB->xEventListItem ), pxNewTCB );
 8002020:	6464      	str	r4, [r4, #68]	@ 0x44
		vPortStoreTaskMPUSettings( &( pxNewTCB->xMPUSettings ), xRegions, pxNewTCB->pxStack, ulStackDepth );
 8002022:	463b      	mov	r3, r7
 8002024:	6d22      	ldr	r2, [r4, #80]	@ 0x50
 8002026:	990d      	ldr	r1, [sp, #52]	@ 0x34
 8002028:	1d20      	adds	r0, r4, #4
 800202a:	f7fe fb75 	bl	8000718 <vPortStoreTaskMPUSettings>
		pxNewTCB->ulNotifiedValue = 0;
 800202e:	f8c4 a06c 	str.w	sl, [r4, #108]	@ 0x6c
		pxNewTCB->ucNotifyState = taskNOT_WAITING_NOTIFICATION;
 8002032:	f884 a070 	strb.w	sl, [r4, #112]	@ 0x70
			pxNewTCB->pxTopOfStack = pxPortInitialiseStack( pxTopOfStack, pxTaskCode, pvParameters, xRunPrivileged );
 8002036:	465b      	mov	r3, fp
 8002038:	464a      	mov	r2, r9
 800203a:	4641      	mov	r1, r8
 800203c:	4630      	mov	r0, r6
 800203e:	f7fe fb3b 	bl	80006b8 <pxPortInitialiseStack>
 8002042:	6020      	str	r0, [r4, #0]
	if( pxCreatedTask != NULL )
 8002044:	9b0b      	ldr	r3, [sp, #44]	@ 0x2c
 8002046:	b103      	cbz	r3, 800204a <prvInitialiseNewTask+0xa2>
		*pxCreatedTask = ( TaskHandle_t ) pxNewTCB;
 8002048:	601c      	str	r4, [r3, #0]
}
 800204a:	e8bd 8ff8 	ldmia.w	sp!, {r3, r4, r5, r6, r7, r8, r9, sl, fp, pc}
		pxNewTCB->pcTaskName[ 0 ] = 0x00;
 800204e:	2300      	movs	r3, #0
 8002050:	f884 3054 	strb.w	r3, [r4, #84]	@ 0x54
 8002054:	e7cf      	b.n	8001ff6 <prvInitialiseNewTask+0x4e>

08002056 <prvAddNewTaskToReadyList>:
{
 8002056:	b510      	push	{r4, lr}
 8002058:	4604      	mov	r4, r0
	taskENTER_CRITICAL();
 800205a:	f002 fa39 	bl	80044d0 <vPortEnterCritical>
		uxCurrentNumberOfTasks++;
 800205e:	4a22      	ldr	r2, [pc, #136]	@ (80020e8 <prvAddNewTaskToReadyList+0x92>)
 8002060:	6813      	ldr	r3, [r2, #0]
 8002062:	3301      	adds	r3, #1
 8002064:	6013      	str	r3, [r2, #0]
		if( pxCurrentTCB == NULL )
 8002066:	4b21      	ldr	r3, [pc, #132]	@ (80020ec <prvAddNewTaskToReadyList+0x96>)
 8002068:	681b      	ldr	r3, [r3, #0]
 800206a:	b15b      	cbz	r3, 8002084 <prvAddNewTaskToReadyList+0x2e>
			if( xSchedulerRunning == pdFALSE )
 800206c:	4b20      	ldr	r3, [pc, #128]	@ (80020f0 <prvAddNewTaskToReadyList+0x9a>)
 800206e:	681b      	ldr	r3, [r3, #0]
 8002070:	b96b      	cbnz	r3, 800208e <prvAddNewTaskToReadyList+0x38>
				if( pxCurrentTCB->uxPriority <= pxNewTCB->uxPriority )
 8002072:	4b1e      	ldr	r3, [pc, #120]	@ (80020ec <prvAddNewTaskToReadyList+0x96>)
 8002074:	681b      	ldr	r3, [r3, #0]
 8002076:	6cda      	ldr	r2, [r3, #76]	@ 0x4c
 8002078:	6ce3      	ldr	r3, [r4, #76]	@ 0x4c
 800207a:	429a      	cmp	r2, r3
 800207c:	d807      	bhi.n	800208e <prvAddNewTaskToReadyList+0x38>
					pxCurrentTCB = pxNewTCB;
 800207e:	4b1b      	ldr	r3, [pc, #108]	@ (80020ec <prvAddNewTaskToReadyList+0x96>)
 8002080:	601c      	str	r4, [r3, #0]
 8002082:	e004      	b.n	800208e <prvAddNewTaskToReadyList+0x38>
			pxCurrentTCB = pxNewTCB;
 8002084:	4b19      	ldr	r3, [pc, #100]	@ (80020ec <prvAddNewTaskToReadyList+0x96>)
 8002086:	601c      	str	r4, [r3, #0]
			if( uxCurrentNumberOfTasks == ( UBaseType_t ) 1 )
 8002088:	6813      	ldr	r3, [r2, #0]
 800208a:	2b01      	cmp	r3, #1
 800208c:	d029      	beq.n	80020e2 <prvAddNewTaskToReadyList+0x8c>
		uxTaskNumber++;
 800208e:	4a19      	ldr	r2, [pc, #100]	@ (80020f4 <prvAddNewTaskToReadyList+0x9e>)
 8002090:	6813      	ldr	r3, [r2, #0]
 8002092:	3301      	adds	r3, #1
 8002094:	6013      	str	r3, [r2, #0]
		prvAddTaskToReadyList( pxNewTCB );
 8002096:	6ce0      	ldr	r0, [r4, #76]	@ 0x4c
 8002098:	2301      	movs	r3, #1
 800209a:	4083      	lsls	r3, r0
 800209c:	4a16      	ldr	r2, [pc, #88]	@ (80020f8 <prvAddNewTaskToReadyList+0xa2>)
 800209e:	6811      	ldr	r1, [r2, #0]
 80020a0:	430b      	orrs	r3, r1
 80020a2:	6013      	str	r3, [r2, #0]
 80020a4:	eb00 0080 	add.w	r0, r0, r0, lsl #2
 80020a8:	f104 0124 	add.w	r1, r4, #36	@ 0x24
 80020ac:	4b13      	ldr	r3, [pc, #76]	@ (80020fc <prvAddNewTaskToReadyList+0xa6>)
 80020ae:	eb03 0080 	add.w	r0, r3, r0, lsl #2
 80020b2:	f002 f923 	bl	80042fc <vListInsertEnd>
	taskEXIT_CRITICAL();
 80020b6:	f002 fa1f 	bl	80044f8 <vPortExitCritical>
	if( xSchedulerRunning != pdFALSE )
 80020ba:	4b0d      	ldr	r3, [pc, #52]	@ (80020f0 <prvAddNewTaskToReadyList+0x9a>)
 80020bc:	681b      	ldr	r3, [r3, #0]
 80020be:	b17b      	cbz	r3, 80020e0 <prvAddNewTaskToReadyList+0x8a>
		if( pxCurrentTCB->uxPriority < pxNewTCB->uxPriority )
 80020c0:	4b0a      	ldr	r3, [pc, #40]	@ (80020ec <prvAddNewTaskToReadyList+0x96>)
 80020c2:	681b      	ldr	r3, [r3, #0]
 80020c4:	6cda      	ldr	r2, [r3, #76]	@ 0x4c
 80020c6:	6ce3      	ldr	r3, [r4, #76]	@ 0x4c
 80020c8:	429a      	cmp	r2, r3
 80020ca:	d209      	bcs.n	80020e0 <prvAddNewTaskToReadyList+0x8a>
			taskYIELD_IF_USING_PREEMPTION();
 80020cc:	f04f 23e0 	mov.w	r3, #3758153728	@ 0xe000e000
 80020d0:	f04f 5280 	mov.w	r2, #268435456	@ 0x10000000
 80020d4:	f8c3 2d04 	str.w	r2, [r3, #3332]	@ 0xd04
 80020d8:	f3bf 8f4f 	dsb	sy
 80020dc:	f3bf 8f6f 	isb	sy
}
 80020e0:	bd10      	pop	{r4, pc}
				prvInitialiseTaskLists();
 80020e2:	f7ff fee1 	bl	8001ea8 <prvInitialiseTaskLists>
 80020e6:	e7d2      	b.n	800208e <prvAddNewTaskToReadyList+0x38>
 80020e8:	20000068 	.word	0x20000068
 80020ec:	20000168 	.word	0x20000168
 80020f0:	2000005c 	.word	0x2000005c
 80020f4:	2000004c 	.word	0x2000004c
 80020f8:	20000060 	.word	0x20000060
 80020fc:	200000dc 	.word	0x200000dc

08002100 <prvCheckTasksWaitingTermination>:
{
 8002100:	b508      	push	{r3, lr}
		while( uxDeletedTasksWaitingCleanUp > ( UBaseType_t ) 0U )
 8002102:	e011      	b.n	8002128 <prvCheckTasksWaitingTermination+0x28>
			taskENTER_CRITICAL();
 8002104:	f002 f9e4 	bl	80044d0 <vPortEnterCritical>
				pxTCB = listGET_OWNER_OF_HEAD_ENTRY( ( &xTasksWaitingTermination ) ); /*lint !e9079 void * is used as this macro is used with timers and co-routines too.  Alignment is known to be fine as the type of the pointer stored and retrieved is the same. */
 8002108:	4b0a      	ldr	r3, [pc, #40]	@ (8002134 <prvCheckTasksWaitingTermination+0x34>)
 800210a:	68db      	ldr	r3, [r3, #12]
 800210c:	68d8      	ldr	r0, [r3, #12]
				( void ) uxListRemove( &( pxTCB->xStateListItem ) );
 800210e:	3024      	adds	r0, #36	@ 0x24
 8002110:	f002 f918 	bl	8004344 <uxListRemove>
				--uxCurrentNumberOfTasks;
 8002114:	4a08      	ldr	r2, [pc, #32]	@ (8002138 <prvCheckTasksWaitingTermination+0x38>)
 8002116:	6813      	ldr	r3, [r2, #0]
 8002118:	3b01      	subs	r3, #1
 800211a:	6013      	str	r3, [r2, #0]
				--uxDeletedTasksWaitingCleanUp;
 800211c:	4a07      	ldr	r2, [pc, #28]	@ (800213c <prvCheckTasksWaitingTermination+0x3c>)
 800211e:	6813      	ldr	r3, [r2, #0]
 8002120:	3b01      	subs	r3, #1
 8002122:	6013      	str	r3, [r2, #0]
			taskEXIT_CRITICAL();
 8002124:	f002 f9e8 	bl	80044f8 <vPortExitCritical>
		while( uxDeletedTasksWaitingCleanUp > ( UBaseType_t ) 0U )
 8002128:	4b04      	ldr	r3, [pc, #16]	@ (800213c <prvCheckTasksWaitingTermination+0x3c>)
 800212a:	681b      	ldr	r3, [r3, #0]
 800212c:	2b00      	cmp	r3, #0
 800212e:	d1e9      	bne.n	8002104 <prvCheckTasksWaitingTermination+0x4>
}
 8002130:	bd08      	pop	{r3, pc}
 8002132:	bf00      	nop
 8002134:	20000084 	.word	0x20000084
 8002138:	20000068 	.word	0x20000068
 800213c:	20000080 	.word	0x20000080

08002140 <xTaskCreateStatic>:
	{
 8002140:	b530      	push	{r4, r5, lr}
 8002142:	b087      	sub	sp, #28
 8002144:	9c0b      	ldr	r4, [sp, #44]	@ 0x2c
		configASSERT( puxStackBuffer != NULL );
 8002146:	b17c      	cbz	r4, 8002168 <xTaskCreateStatic+0x28>
		configASSERT( pxTaskBuffer != NULL );
 8002148:	9d0c      	ldr	r5, [sp, #48]	@ 0x30
 800214a:	b1b5      	cbz	r5, 800217a <xTaskCreateStatic+0x3a>
			volatile size_t xSize = sizeof( StaticTask_t );
 800214c:	2574      	movs	r5, #116	@ 0x74
 800214e:	9504      	str	r5, [sp, #16]
			configASSERT( xSize == sizeof( TCB_t ) );
 8002150:	9d04      	ldr	r5, [sp, #16]
 8002152:	2d74      	cmp	r5, #116	@ 0x74
 8002154:	d01a      	beq.n	800218c <xTaskCreateStatic+0x4c>
 8002156:	f04f 0350 	mov.w	r3, #80	@ 0x50
 800215a:	f383 8811 	msr	BASEPRI, r3
 800215e:	f3bf 8f6f 	isb	sy
 8002162:	f3bf 8f4f 	dsb	sy
 8002166:	e7fe      	b.n	8002166 <xTaskCreateStatic+0x26>
 8002168:	f04f 0350 	mov.w	r3, #80	@ 0x50
 800216c:	f383 8811 	msr	BASEPRI, r3
 8002170:	f3bf 8f6f 	isb	sy
 8002174:	f3bf 8f4f 	dsb	sy
		configASSERT( puxStackBuffer != NULL );
 8002178:	e7fe      	b.n	8002178 <xTaskCreateStatic+0x38>
 800217a:	f04f 0350 	mov.w	r3, #80	@ 0x50
 800217e:	f383 8811 	msr	BASEPRI, r3
 8002182:	f3bf 8f6f 	isb	sy
 8002186:	f3bf 8f4f 	dsb	sy
		configASSERT( pxTaskBuffer != NULL );
 800218a:	e7fe      	b.n	800218a <xTaskCreateStatic+0x4a>
			( void ) xSize; /* Prevent lint warning when configASSERT() is not used. */
 800218c:	9d04      	ldr	r5, [sp, #16]
			pxNewTCB->pxStack = ( StackType_t * ) puxStackBuffer;
 800218e:	9d0c      	ldr	r5, [sp, #48]	@ 0x30
 8002190:	652c      	str	r4, [r5, #80]	@ 0x50
			prvInitialiseNewTask( pxTaskCode, pcName, ulStackDepth, pvParameters, uxPriority, &xReturn, pxNewTCB, NULL );
 8002192:	2400      	movs	r4, #0
 8002194:	9403      	str	r4, [sp, #12]
 8002196:	9502      	str	r5, [sp, #8]
 8002198:	ac05      	add	r4, sp, #20
 800219a:	9401      	str	r4, [sp, #4]
 800219c:	9c0a      	ldr	r4, [sp, #40]	@ 0x28
 800219e:	9400      	str	r4, [sp, #0]
 80021a0:	f7ff ff02 	bl	8001fa8 <prvInitialiseNewTask>
			prvAddNewTaskToReadyList( pxNewTCB );
 80021a4:	980c      	ldr	r0, [sp, #48]	@ 0x30
 80021a6:	f7ff ff56 	bl	8002056 <prvAddNewTaskToReadyList>
	}
 80021aa:	9805      	ldr	r0, [sp, #20]
 80021ac:	b007      	add	sp, #28
 80021ae:	bd30      	pop	{r4, r5, pc}

080021b0 <xTaskCreateRestrictedStatic>:
		configASSERT( pxTaskDefinition->puxStackBuffer != NULL );
 80021b0:	6943      	ldr	r3, [r0, #20]
 80021b2:	b1bb      	cbz	r3, 80021e4 <xTaskCreateRestrictedStatic+0x34>
	{
 80021b4:	b510      	push	{r4, lr}
 80021b6:	b084      	sub	sp, #16
		configASSERT( pxTaskDefinition->pxTaskBuffer != NULL );
 80021b8:	6bc4      	ldr	r4, [r0, #60]	@ 0x3c
 80021ba:	b1e4      	cbz	r4, 80021f6 <xTaskCreateRestrictedStatic+0x46>
			pxNewTCB->pxStack = pxTaskDefinition->puxStackBuffer;
 80021bc:	6523      	str	r3, [r4, #80]	@ 0x50
									pxTaskDefinition->uxPriority,
 80021be:	6903      	ldr	r3, [r0, #16]
									pxTaskDefinition->xRegions );
 80021c0:	f100 0218 	add.w	r2, r0, #24
			prvInitialiseNewTask(	pxTaskDefinition->pvTaskCode,
 80021c4:	9203      	str	r2, [sp, #12]
 80021c6:	9402      	str	r4, [sp, #8]
 80021c8:	9101      	str	r1, [sp, #4]
 80021ca:	9300      	str	r3, [sp, #0]
 80021cc:	68c3      	ldr	r3, [r0, #12]
 80021ce:	8902      	ldrh	r2, [r0, #8]
 80021d0:	6841      	ldr	r1, [r0, #4]
 80021d2:	6800      	ldr	r0, [r0, #0]
 80021d4:	f7ff fee8 	bl	8001fa8 <prvInitialiseNewTask>
			prvAddNewTaskToReadyList( pxNewTCB );
 80021d8:	4620      	mov	r0, r4
 80021da:	f7ff ff3c 	bl	8002056 <prvAddNewTaskToReadyList>
	}
 80021de:	2001      	movs	r0, #1
 80021e0:	b004      	add	sp, #16
 80021e2:	bd10      	pop	{r4, pc}
 80021e4:	f04f 0350 	mov.w	r3, #80	@ 0x50
 80021e8:	f383 8811 	msr	BASEPRI, r3
 80021ec:	f3bf 8f6f 	isb	sy
 80021f0:	f3bf 8f4f 	dsb	sy
		configASSERT( pxTaskDefinition->puxStackBuffer != NULL );
 80021f4:	e7fe      	b.n	80021f4 <xTaskCreateRestrictedStatic+0x44>
 80021f6:	f04f 0350 	mov.w	r3, #80	@ 0x50
 80021fa:	f383 8811 	msr	BASEPRI, r3
 80021fe:	f3bf 8f6f 	isb	sy
 8002202:	f3bf 8f4f 	dsb	sy
		configASSERT( pxTaskDefinition->pxTaskBuffer != NULL );
 8002206:	e7fe      	b.n	8002206 <xTaskCreateRestrictedStatic+0x56>

08002208 <vTaskAllocateMPURegions>:
	{
 8002208:	b510      	push	{r4, lr}
		pxTCB = prvGetTCBFromHandle( xTaskToModify );
 800220a:	4604      	mov	r4, r0
 800220c:	b128      	cbz	r0, 800221a <vTaskAllocateMPURegions+0x12>
		vPortStoreTaskMPUSettings( &( pxTCB->xMPUSettings ), xRegions, NULL, 0 );
 800220e:	2300      	movs	r3, #0
 8002210:	461a      	mov	r2, r3
 8002212:	1d20      	adds	r0, r4, #4
 8002214:	f7fe fa80 	bl	8000718 <vPortStoreTaskMPUSettings>
	}
 8002218:	bd10      	pop	{r4, pc}
		pxTCB = prvGetTCBFromHandle( xTaskToModify );
 800221a:	4b01      	ldr	r3, [pc, #4]	@ (8002220 <vTaskAllocateMPURegions+0x18>)
 800221c:	681c      	ldr	r4, [r3, #0]
 800221e:	e7f6      	b.n	800220e <vTaskAllocateMPURegions+0x6>
 8002220:	20000168 	.word	0x20000168

08002224 <vTaskDelete>:
	{
 8002224:	b538      	push	{r3, r4, r5, lr}
 8002226:	4604      	mov	r4, r0
		taskENTER_CRITICAL();
 8002228:	f002 f952 	bl	80044d0 <vPortEnterCritical>
			pxTCB = prvGetTCBFromHandle( xTaskToDelete );
 800222c:	2c00      	cmp	r4, #0
 800222e:	d032      	beq.n	8002296 <vTaskDelete+0x72>
			if( uxListRemove( &( pxTCB->xStateListItem ) ) == ( UBaseType_t ) 0 )
 8002230:	f104 0524 	add.w	r5, r4, #36	@ 0x24
 8002234:	4628      	mov	r0, r5
 8002236:	f002 f885 	bl	8004344 <uxListRemove>
 800223a:	b970      	cbnz	r0, 800225a <vTaskDelete+0x36>
				taskRESET_READY_PRIORITY( pxTCB->uxPriority );
 800223c:	6ce2      	ldr	r2, [r4, #76]	@ 0x4c
 800223e:	eb02 0382 	add.w	r3, r2, r2, lsl #2
 8002242:	009b      	lsls	r3, r3, #2
 8002244:	4925      	ldr	r1, [pc, #148]	@ (80022dc <vTaskDelete+0xb8>)
 8002246:	58cb      	ldr	r3, [r1, r3]
 8002248:	b93b      	cbnz	r3, 800225a <vTaskDelete+0x36>
 800224a:	2301      	movs	r3, #1
 800224c:	fa03 f202 	lsl.w	r2, r3, r2
 8002250:	4923      	ldr	r1, [pc, #140]	@ (80022e0 <vTaskDelete+0xbc>)
 8002252:	680b      	ldr	r3, [r1, #0]
 8002254:	ea23 0302 	bic.w	r3, r3, r2
 8002258:	600b      	str	r3, [r1, #0]
			if( listLIST_ITEM_CONTAINER( &( pxTCB->xEventListItem ) ) != NULL )
 800225a:	6ca3      	ldr	r3, [r4, #72]	@ 0x48
 800225c:	b11b      	cbz	r3, 8002266 <vTaskDelete+0x42>
				( void ) uxListRemove( &( pxTCB->xEventListItem ) );
 800225e:	f104 0038 	add.w	r0, r4, #56	@ 0x38
 8002262:	f002 f86f 	bl	8004344 <uxListRemove>
			uxTaskNumber++;
 8002266:	4a1f      	ldr	r2, [pc, #124]	@ (80022e4 <vTaskDelete+0xc0>)
 8002268:	6813      	ldr	r3, [r2, #0]
 800226a:	3301      	adds	r3, #1
 800226c:	6013      	str	r3, [r2, #0]
			if( pxTCB == pxCurrentTCB )
 800226e:	4b1e      	ldr	r3, [pc, #120]	@ (80022e8 <vTaskDelete+0xc4>)
 8002270:	681b      	ldr	r3, [r3, #0]
 8002272:	42a3      	cmp	r3, r4
 8002274:	d012      	beq.n	800229c <vTaskDelete+0x78>
				--uxCurrentNumberOfTasks;
 8002276:	4a1d      	ldr	r2, [pc, #116]	@ (80022ec <vTaskDelete+0xc8>)
 8002278:	6813      	ldr	r3, [r2, #0]
 800227a:	3b01      	subs	r3, #1
 800227c:	6013      	str	r3, [r2, #0]
				prvResetNextTaskUnblockTime();
 800227e:	f003 fccb 	bl	8005c18 <prvResetNextTaskUnblockTime>
		taskEXIT_CRITICAL();
 8002282:	f002 f939 	bl	80044f8 <vPortExitCritical>
		if( xSchedulerRunning != pdFALSE )
 8002286:	4b1a      	ldr	r3, [pc, #104]	@ (80022f0 <vTaskDelete+0xcc>)
 8002288:	681b      	ldr	r3, [r3, #0]
 800228a:	b11b      	cbz	r3, 8002294 <vTaskDelete+0x70>
			if( pxTCB == pxCurrentTCB )
 800228c:	4b16      	ldr	r3, [pc, #88]	@ (80022e8 <vTaskDelete+0xc4>)
 800228e:	681b      	ldr	r3, [r3, #0]
 8002290:	42a3      	cmp	r3, r4
 8002292:	d00c      	beq.n	80022ae <vTaskDelete+0x8a>
	}
 8002294:	bd38      	pop	{r3, r4, r5, pc}
			pxTCB = prvGetTCBFromHandle( xTaskToDelete );
 8002296:	4b14      	ldr	r3, [pc, #80]	@ (80022e8 <vTaskDelete+0xc4>)
 8002298:	681c      	ldr	r4, [r3, #0]
 800229a:	e7c9      	b.n	8002230 <vTaskDelete+0xc>
				vListInsertEnd( &xTasksWaitingTermination, &( pxTCB->xStateListItem ) );
 800229c:	4629      	mov	r1, r5
 800229e:	4815      	ldr	r0, [pc, #84]	@ (80022f4 <vTaskDelete+0xd0>)
 80022a0:	f002 f82c 	bl	80042fc <vListInsertEnd>
				++uxDeletedTasksWaitingCleanUp;
 80022a4:	4a14      	ldr	r2, [pc, #80]	@ (80022f8 <vTaskDelete+0xd4>)
 80022a6:	6813      	ldr	r3, [r2, #0]
 80022a8:	3301      	adds	r3, #1
 80022aa:	6013      	str	r3, [r2, #0]
				portPRE_TASK_DELETE_HOOK( pxTCB, &xYieldPending );
 80022ac:	e7e9      	b.n	8002282 <vTaskDelete+0x5e>
				configASSERT( uxSchedulerSuspended == 0 );
 80022ae:	4b13      	ldr	r3, [pc, #76]	@ (80022fc <vTaskDelete+0xd8>)
 80022b0:	681b      	ldr	r3, [r3, #0]
 80022b2:	b143      	cbz	r3, 80022c6 <vTaskDelete+0xa2>
 80022b4:	f04f 0350 	mov.w	r3, #80	@ 0x50
 80022b8:	f383 8811 	msr	BASEPRI, r3
 80022bc:	f3bf 8f6f 	isb	sy
 80022c0:	f3bf 8f4f 	dsb	sy
 80022c4:	e7fe      	b.n	80022c4 <vTaskDelete+0xa0>
				portYIELD_WITHIN_API();
 80022c6:	f04f 23e0 	mov.w	r3, #3758153728	@ 0xe000e000
 80022ca:	f04f 5280 	mov.w	r2, #268435456	@ 0x10000000
 80022ce:	f8c3 2d04 	str.w	r2, [r3, #3332]	@ 0xd04
 80022d2:	f3bf 8f4f 	dsb	sy
 80022d6:	f3bf 8f6f 	isb	sy
	}
 80022da:	e7db      	b.n	8002294 <vTaskDelete+0x70>
 80022dc:	200000dc 	.word	0x200000dc
 80022e0:	20000060 	.word	0x20000060
 80022e4:	2000004c 	.word	0x2000004c
 80022e8:	20000168 	.word	0x20000168
 80022ec:	20000068 	.word	0x20000068
 80022f0:	2000005c 	.word	0x2000005c
 80022f4:	20000084 	.word	0x20000084
 80022f8:	20000080 	.word	0x20000080
 80022fc:	20000040 	.word	0x20000040

08002300 <uxTaskPriorityGet>:
	{
 8002300:	b510      	push	{r4, lr}
 8002302:	4604      	mov	r4, r0
		taskENTER_CRITICAL();
 8002304:	f002 f8e4 	bl	80044d0 <vPortEnterCritical>
			pxTCB = prvGetTCBFromHandle( xTask );
 8002308:	b124      	cbz	r4, 8002314 <uxTaskPriorityGet+0x14>
			uxReturn = pxTCB->uxPriority;
 800230a:	6ce4      	ldr	r4, [r4, #76]	@ 0x4c
		taskEXIT_CRITICAL();
 800230c:	f002 f8f4 	bl	80044f8 <vPortExitCritical>
	}
 8002310:	4620      	mov	r0, r4
 8002312:	bd10      	pop	{r4, pc}
			pxTCB = prvGetTCBFromHandle( xTask );
 8002314:	4b01      	ldr	r3, [pc, #4]	@ (800231c <uxTaskPriorityGet+0x1c>)
 8002316:	681c      	ldr	r4, [r3, #0]
 8002318:	e7f7      	b.n	800230a <uxTaskPriorityGet+0xa>
 800231a:	bf00      	nop
 800231c:	20000168 	.word	0x20000168

08002320 <uxTaskPriorityGetFromISR>:
	{
 8002320:	b510      	push	{r4, lr}
 8002322:	4604      	mov	r4, r0
		portASSERT_IF_INTERRUPT_PRIORITY_INVALID();
 8002324:	f002 f92c 	bl	8004580 <vPortValidateInterruptPriority>
	__asm volatile
 8002328:	f3ef 8311 	mrs	r3, BASEPRI
 800232c:	f04f 0250 	mov.w	r2, #80	@ 0x50
 8002330:	f382 8811 	msr	BASEPRI, r2
 8002334:	f3bf 8f6f 	isb	sy
 8002338:	f3bf 8f4f 	dsb	sy
			pxTCB = prvGetTCBFromHandle( xTask );
 800233c:	b11c      	cbz	r4, 8002346 <uxTaskPriorityGetFromISR+0x26>
			uxReturn = pxTCB->uxPriority;
 800233e:	6ce0      	ldr	r0, [r4, #76]	@ 0x4c
	__asm volatile
 8002340:	f383 8811 	msr	BASEPRI, r3
	}
 8002344:	bd10      	pop	{r4, pc}
			pxTCB = prvGetTCBFromHandle( xTask );
 8002346:	4a01      	ldr	r2, [pc, #4]	@ (800234c <uxTaskPriorityGetFromISR+0x2c>)
 8002348:	6814      	ldr	r4, [r2, #0]
 800234a:	e7f8      	b.n	800233e <uxTaskPriorityGetFromISR+0x1e>
 800234c:	20000168 	.word	0x20000168

08002350 <vTaskPrioritySet>:
	{
 8002350:	b5f8      	push	{r3, r4, r5, r6, r7, lr}
		configASSERT( ( uxNewPriority < configMAX_PRIORITIES ) );
 8002352:	2906      	cmp	r1, #6
 8002354:	d908      	bls.n	8002368 <vTaskPrioritySet+0x18>
	__asm volatile
 8002356:	f04f 0350 	mov.w	r3, #80	@ 0x50
 800235a:	f383 8811 	msr	BASEPRI, r3
 800235e:	f3bf 8f6f 	isb	sy
 8002362:	f3bf 8f4f 	dsb	sy
 8002366:	e7fe      	b.n	8002366 <vTaskPrioritySet+0x16>
 8002368:	4605      	mov	r5, r0
 800236a:	460c      	mov	r4, r1
		taskENTER_CRITICAL();
 800236c:	f002 f8b0 	bl	80044d0 <vPortEnterCritical>
			pxTCB = prvGetTCBFromHandle( xTask );
 8002370:	b175      	cbz	r5, 8002390 <vTaskPrioritySet+0x40>
				uxCurrentBasePriority = pxTCB->uxBasePriority;
 8002372:	6e6b      	ldr	r3, [r5, #100]	@ 0x64
			if( uxCurrentBasePriority != uxNewPriority )
 8002374:	429c      	cmp	r4, r3
 8002376:	d030      	beq.n	80023da <vTaskPrioritySet+0x8a>
				if( uxNewPriority > uxCurrentBasePriority )
 8002378:	d90d      	bls.n	8002396 <vTaskPrioritySet+0x46>
					if( pxTCB != pxCurrentTCB )
 800237a:	4a2c      	ldr	r2, [pc, #176]	@ (800242c <vTaskPrioritySet+0xdc>)
 800237c:	6812      	ldr	r2, [r2, #0]
 800237e:	42aa      	cmp	r2, r5
 8002380:	d02e      	beq.n	80023e0 <vTaskPrioritySet+0x90>
						if( uxNewPriority >= pxCurrentTCB->uxPriority )
 8002382:	4a2a      	ldr	r2, [pc, #168]	@ (800242c <vTaskPrioritySet+0xdc>)
 8002384:	6812      	ldr	r2, [r2, #0]
 8002386:	6cd2      	ldr	r2, [r2, #76]	@ 0x4c
 8002388:	42a2      	cmp	r2, r4
 800238a:	d92b      	bls.n	80023e4 <vTaskPrioritySet+0x94>
	BaseType_t xYieldRequired = pdFALSE;
 800238c:	2700      	movs	r7, #0
 800238e:	e007      	b.n	80023a0 <vTaskPrioritySet+0x50>
			pxTCB = prvGetTCBFromHandle( xTask );
 8002390:	4b26      	ldr	r3, [pc, #152]	@ (800242c <vTaskPrioritySet+0xdc>)
 8002392:	681d      	ldr	r5, [r3, #0]
 8002394:	e7ed      	b.n	8002372 <vTaskPrioritySet+0x22>
				else if( pxTCB == pxCurrentTCB )
 8002396:	4a25      	ldr	r2, [pc, #148]	@ (800242c <vTaskPrioritySet+0xdc>)
 8002398:	6812      	ldr	r2, [r2, #0]
 800239a:	42aa      	cmp	r2, r5
 800239c:	d024      	beq.n	80023e8 <vTaskPrioritySet+0x98>
	BaseType_t xYieldRequired = pdFALSE;
 800239e:	2700      	movs	r7, #0
				uxPriorityUsedOnEntry = pxTCB->uxPriority;
 80023a0:	6cee      	ldr	r6, [r5, #76]	@ 0x4c
					if( pxTCB->uxBasePriority == pxTCB->uxPriority )
 80023a2:	42b3      	cmp	r3, r6
 80023a4:	d022      	beq.n	80023ec <vTaskPrioritySet+0x9c>
					pxTCB->uxBasePriority = uxNewPriority;
 80023a6:	666c      	str	r4, [r5, #100]	@ 0x64
				if( ( listGET_LIST_ITEM_VALUE( &( pxTCB->xEventListItem ) ) & taskEVENT_LIST_ITEM_VALUE_IN_USE ) == 0UL )
 80023a8:	6bab      	ldr	r3, [r5, #56]	@ 0x38
 80023aa:	2b00      	cmp	r3, #0
 80023ac:	db02      	blt.n	80023b4 <vTaskPrioritySet+0x64>
					listSET_LIST_ITEM_VALUE( &( pxTCB->xEventListItem ), ( ( TickType_t ) configMAX_PRIORITIES - ( TickType_t ) uxNewPriority ) ); /*lint !e961 MISRA exception as the casts are only redundant for some ports. */
 80023ae:	f1c4 0407 	rsb	r4, r4, #7
 80023b2:	63ac      	str	r4, [r5, #56]	@ 0x38
				if( listIS_CONTAINED_WITHIN( &( pxReadyTasksLists[ uxPriorityUsedOnEntry ] ), &( pxTCB->xStateListItem ) ) != pdFALSE )
 80023b4:	6b69      	ldr	r1, [r5, #52]	@ 0x34
 80023b6:	eb06 0286 	add.w	r2, r6, r6, lsl #2
 80023ba:	4b1d      	ldr	r3, [pc, #116]	@ (8002430 <vTaskPrioritySet+0xe0>)
 80023bc:	eb03 0382 	add.w	r3, r3, r2, lsl #2
 80023c0:	4299      	cmp	r1, r3
 80023c2:	d015      	beq.n	80023f0 <vTaskPrioritySet+0xa0>
				if( xYieldRequired != pdFALSE )
 80023c4:	b14f      	cbz	r7, 80023da <vTaskPrioritySet+0x8a>
					taskYIELD_IF_USING_PREEMPTION();
 80023c6:	f04f 23e0 	mov.w	r3, #3758153728	@ 0xe000e000
 80023ca:	f04f 5280 	mov.w	r2, #268435456	@ 0x10000000
 80023ce:	f8c3 2d04 	str.w	r2, [r3, #3332]	@ 0xd04
 80023d2:	f3bf 8f4f 	dsb	sy
 80023d6:	f3bf 8f6f 	isb	sy
		taskEXIT_CRITICAL();
 80023da:	f002 f88d 	bl	80044f8 <vPortExitCritical>
	}
 80023de:	bdf8      	pop	{r3, r4, r5, r6, r7, pc}
	BaseType_t xYieldRequired = pdFALSE;
 80023e0:	2700      	movs	r7, #0
 80023e2:	e7dd      	b.n	80023a0 <vTaskPrioritySet+0x50>
							xYieldRequired = pdTRUE;
 80023e4:	2701      	movs	r7, #1
 80023e6:	e7db      	b.n	80023a0 <vTaskPrioritySet+0x50>
					xYieldRequired = pdTRUE;
 80023e8:	2701      	movs	r7, #1
 80023ea:	e7d9      	b.n	80023a0 <vTaskPrioritySet+0x50>
						pxTCB->uxPriority = uxNewPriority;
 80023ec:	64ec      	str	r4, [r5, #76]	@ 0x4c
 80023ee:	e7da      	b.n	80023a6 <vTaskPrioritySet+0x56>
					if( uxListRemove( &( pxTCB->xStateListItem ) ) == ( UBaseType_t ) 0 )
 80023f0:	f105 0424 	add.w	r4, r5, #36	@ 0x24
 80023f4:	4620      	mov	r0, r4
 80023f6:	f001 ffa5 	bl	8004344 <uxListRemove>
 80023fa:	b930      	cbnz	r0, 800240a <vTaskPrioritySet+0xba>
						portRESET_READY_PRIORITY( uxPriorityUsedOnEntry, uxTopReadyPriority );
 80023fc:	2201      	movs	r2, #1
 80023fe:	40b2      	lsls	r2, r6
 8002400:	490c      	ldr	r1, [pc, #48]	@ (8002434 <vTaskPrioritySet+0xe4>)
 8002402:	680b      	ldr	r3, [r1, #0]
 8002404:	ea23 0302 	bic.w	r3, r3, r2
 8002408:	600b      	str	r3, [r1, #0]
					prvAddTaskToReadyList( pxTCB );
 800240a:	6ce8      	ldr	r0, [r5, #76]	@ 0x4c
 800240c:	2301      	movs	r3, #1
 800240e:	4083      	lsls	r3, r0
 8002410:	4a08      	ldr	r2, [pc, #32]	@ (8002434 <vTaskPrioritySet+0xe4>)
 8002412:	6811      	ldr	r1, [r2, #0]
 8002414:	430b      	orrs	r3, r1
 8002416:	6013      	str	r3, [r2, #0]
 8002418:	eb00 0080 	add.w	r0, r0, r0, lsl #2
 800241c:	4621      	mov	r1, r4
 800241e:	4b04      	ldr	r3, [pc, #16]	@ (8002430 <vTaskPrioritySet+0xe0>)
 8002420:	eb03 0080 	add.w	r0, r3, r0, lsl #2
 8002424:	f001 ff6a 	bl	80042fc <vListInsertEnd>
 8002428:	e7cc      	b.n	80023c4 <vTaskPrioritySet+0x74>
 800242a:	bf00      	nop
 800242c:	20000168 	.word	0x20000168
 8002430:	200000dc 	.word	0x200000dc
 8002434:	20000060 	.word	0x20000060

08002438 <vTaskResume>:
	{
 8002438:	b538      	push	{r3, r4, r5, lr}
		configASSERT( xTaskToResume );
 800243a:	b168      	cbz	r0, 8002458 <vTaskResume+0x20>
 800243c:	4604      	mov	r4, r0
		if( ( pxTCB != pxCurrentTCB ) && ( pxTCB != NULL ) )
 800243e:	4b1d      	ldr	r3, [pc, #116]	@ (80024b4 <vTaskResume+0x7c>)
 8002440:	681b      	ldr	r3, [r3, #0]
 8002442:	4283      	cmp	r3, r0
 8002444:	d007      	beq.n	8002456 <vTaskResume+0x1e>
			taskENTER_CRITICAL();
 8002446:	f002 f843 	bl	80044d0 <vPortEnterCritical>
				if( prvTaskIsTaskSuspended( pxTCB ) != pdFALSE )
 800244a:	4620      	mov	r0, r4
 800244c:	f7ff fd0c 	bl	8001e68 <prvTaskIsTaskSuspended>
 8002450:	b958      	cbnz	r0, 800246a <vTaskResume+0x32>
			taskEXIT_CRITICAL();
 8002452:	f002 f851 	bl	80044f8 <vPortExitCritical>
	}
 8002456:	bd38      	pop	{r3, r4, r5, pc}
 8002458:	f04f 0350 	mov.w	r3, #80	@ 0x50
 800245c:	f383 8811 	msr	BASEPRI, r3
 8002460:	f3bf 8f6f 	isb	sy
 8002464:	f3bf 8f4f 	dsb	sy
		configASSERT( xTaskToResume );
 8002468:	e7fe      	b.n	8002468 <vTaskResume+0x30>
					( void ) uxListRemove(  &( pxTCB->xStateListItem ) );
 800246a:	f104 0524 	add.w	r5, r4, #36	@ 0x24
 800246e:	4628      	mov	r0, r5
 8002470:	f001 ff68 	bl	8004344 <uxListRemove>
					prvAddTaskToReadyList( pxTCB );
 8002474:	6ce0      	ldr	r0, [r4, #76]	@ 0x4c
 8002476:	2301      	movs	r3, #1
 8002478:	4083      	lsls	r3, r0
 800247a:	4a0f      	ldr	r2, [pc, #60]	@ (80024b8 <vTaskResume+0x80>)
 800247c:	6811      	ldr	r1, [r2, #0]
 800247e:	430b      	orrs	r3, r1
 8002480:	6013      	str	r3, [r2, #0]
 8002482:	eb00 0080 	add.w	r0, r0, r0, lsl #2
 8002486:	4629      	mov	r1, r5
 8002488:	4b0c      	ldr	r3, [pc, #48]	@ (80024bc <vTaskResume+0x84>)
 800248a:	eb03 0080 	add.w	r0, r3, r0, lsl #2
 800248e:	f001 ff35 	bl	80042fc <vListInsertEnd>
					if( pxTCB->uxPriority >= pxCurrentTCB->uxPriority )
 8002492:	6ce2      	ldr	r2, [r4, #76]	@ 0x4c
 8002494:	4b07      	ldr	r3, [pc, #28]	@ (80024b4 <vTaskResume+0x7c>)
 8002496:	681b      	ldr	r3, [r3, #0]
 8002498:	6cdb      	ldr	r3, [r3, #76]	@ 0x4c
 800249a:	429a      	cmp	r2, r3
 800249c:	d3d9      	bcc.n	8002452 <vTaskResume+0x1a>
						taskYIELD_IF_USING_PREEMPTION();
 800249e:	f04f 23e0 	mov.w	r3, #3758153728	@ 0xe000e000
 80024a2:	f04f 5280 	mov.w	r2, #268435456	@ 0x10000000
 80024a6:	f8c3 2d04 	str.w	r2, [r3, #3332]	@ 0xd04
 80024aa:	f3bf 8f4f 	dsb	sy
 80024ae:	f3bf 8f6f 	isb	sy
 80024b2:	e7ce      	b.n	8002452 <vTaskResume+0x1a>
 80024b4:	20000168 	.word	0x20000168
 80024b8:	20000060 	.word	0x20000060
 80024bc:	200000dc 	.word	0x200000dc

080024c0 <xTaskResumeFromISR>:
	{
 80024c0:	b5f8      	push	{r3, r4, r5, r6, r7, lr}
		configASSERT( xTaskToResume );
 80024c2:	2800      	cmp	r0, #0
 80024c4:	d033      	beq.n	800252e <xTaskResumeFromISR+0x6e>
 80024c6:	4605      	mov	r5, r0
		portASSERT_IF_INTERRUPT_PRIORITY_INVALID();
 80024c8:	f002 f85a 	bl	8004580 <vPortValidateInterruptPriority>
	__asm volatile
 80024cc:	f3ef 8411 	mrs	r4, BASEPRI
 80024d0:	f04f 0350 	mov.w	r3, #80	@ 0x50
 80024d4:	f383 8811 	msr	BASEPRI, r3
 80024d8:	f3bf 8f6f 	isb	sy
 80024dc:	f3bf 8f4f 	dsb	sy
			if( prvTaskIsTaskSuspended( pxTCB ) != pdFALSE )
 80024e0:	4628      	mov	r0, r5
 80024e2:	f7ff fcc1 	bl	8001e68 <prvTaskIsTaskSuspended>
 80024e6:	4606      	mov	r6, r0
 80024e8:	b1e8      	cbz	r0, 8002526 <xTaskResumeFromISR+0x66>
				if( uxSchedulerSuspended == ( UBaseType_t ) pdFALSE )
 80024ea:	4b1a      	ldr	r3, [pc, #104]	@ (8002554 <xTaskResumeFromISR+0x94>)
 80024ec:	681b      	ldr	r3, [r3, #0]
 80024ee:	bb4b      	cbnz	r3, 8002544 <xTaskResumeFromISR+0x84>
					if( pxTCB->uxPriority >= pxCurrentTCB->uxPriority )
 80024f0:	6cea      	ldr	r2, [r5, #76]	@ 0x4c
 80024f2:	4b19      	ldr	r3, [pc, #100]	@ (8002558 <xTaskResumeFromISR+0x98>)
 80024f4:	681b      	ldr	r3, [r3, #0]
 80024f6:	6cdb      	ldr	r3, [r3, #76]	@ 0x4c
 80024f8:	429a      	cmp	r2, r3
 80024fa:	d221      	bcs.n	8002540 <xTaskResumeFromISR+0x80>
	BaseType_t xYieldRequired = pdFALSE;
 80024fc:	2600      	movs	r6, #0
					( void ) uxListRemove( &( pxTCB->xStateListItem ) );
 80024fe:	f105 0724 	add.w	r7, r5, #36	@ 0x24
 8002502:	4638      	mov	r0, r7
 8002504:	f001 ff1e 	bl	8004344 <uxListRemove>
					prvAddTaskToReadyList( pxTCB );
 8002508:	6ce8      	ldr	r0, [r5, #76]	@ 0x4c
 800250a:	2301      	movs	r3, #1
 800250c:	4083      	lsls	r3, r0
 800250e:	4a13      	ldr	r2, [pc, #76]	@ (800255c <xTaskResumeFromISR+0x9c>)
 8002510:	6811      	ldr	r1, [r2, #0]
 8002512:	430b      	orrs	r3, r1
 8002514:	6013      	str	r3, [r2, #0]
 8002516:	eb00 0080 	add.w	r0, r0, r0, lsl #2
 800251a:	4639      	mov	r1, r7
 800251c:	4b10      	ldr	r3, [pc, #64]	@ (8002560 <xTaskResumeFromISR+0xa0>)
 800251e:	eb03 0080 	add.w	r0, r3, r0, lsl #2
 8002522:	f001 feeb 	bl	80042fc <vListInsertEnd>
	__asm volatile
 8002526:	f384 8811 	msr	BASEPRI, r4
	}
 800252a:	4630      	mov	r0, r6
 800252c:	bdf8      	pop	{r3, r4, r5, r6, r7, pc}
	__asm volatile
 800252e:	f04f 0350 	mov.w	r3, #80	@ 0x50
 8002532:	f383 8811 	msr	BASEPRI, r3
 8002536:	f3bf 8f6f 	isb	sy
 800253a:	f3bf 8f4f 	dsb	sy
		configASSERT( xTaskToResume );
 800253e:	e7fe      	b.n	800253e <xTaskResumeFromISR+0x7e>
						xYieldRequired = pdTRUE;
 8002540:	2601      	movs	r6, #1
 8002542:	e7dc      	b.n	80024fe <xTaskResumeFromISR+0x3e>
					vListInsertEnd( &( xPendingReadyList ), &( pxTCB->xEventListItem ) );
 8002544:	f105 0138 	add.w	r1, r5, #56	@ 0x38
 8002548:	4806      	ldr	r0, [pc, #24]	@ (8002564 <xTaskResumeFromISR+0xa4>)
 800254a:	f001 fed7 	bl	80042fc <vListInsertEnd>
	BaseType_t xYieldRequired = pdFALSE;
 800254e:	2600      	movs	r6, #0
 8002550:	e7e9      	b.n	8002526 <xTaskResumeFromISR+0x66>
 8002552:	bf00      	nop
 8002554:	20000040 	.word	0x20000040
 8002558:	20000168 	.word	0x20000168
 800255c:	20000060 	.word	0x20000060
 8002560:	200000dc 	.word	0x200000dc
 8002564:	20000098 	.word	0x20000098

08002568 <vTaskStartScheduler>:
{
 8002568:	b510      	push	{r4, lr}
 800256a:	b088      	sub	sp, #32
		StaticTask_t *pxIdleTaskTCBBuffer = NULL;
 800256c:	2400      	movs	r4, #0
 800256e:	9405      	str	r4, [sp, #20]
		StackType_t *pxIdleTaskStackBuffer = NULL;
 8002570:	9406      	str	r4, [sp, #24]
		vApplicationGetIdleTaskMemory( &pxIdleTaskTCBBuffer, &pxIdleTaskStackBuffer, &ulIdleTaskStackSize );
 8002572:	aa07      	add	r2, sp, #28
 8002574:	a906      	add	r1, sp, #24
 8002576:	a805      	add	r0, sp, #20
 8002578:	f001 fe26 	bl	80041c8 <vApplicationGetIdleTaskMemory>
		xIdleTaskHandle = xTaskCreateStatic(	prvIdleTask,
 800257c:	9b05      	ldr	r3, [sp, #20]
 800257e:	9302      	str	r3, [sp, #8]
 8002580:	9b06      	ldr	r3, [sp, #24]
 8002582:	9301      	str	r3, [sp, #4]
 8002584:	f04f 4300 	mov.w	r3, #2147483648	@ 0x80000000
 8002588:	9300      	str	r3, [sp, #0]
 800258a:	4623      	mov	r3, r4
 800258c:	9a07      	ldr	r2, [sp, #28]
 800258e:	490e      	ldr	r1, [pc, #56]	@ (80025c8 <vTaskStartScheduler+0x60>)
 8002590:	480e      	ldr	r0, [pc, #56]	@ (80025cc <vTaskStartScheduler+0x64>)
 8002592:	f7ff fdd5 	bl	8002140 <xTaskCreateStatic>
 8002596:	4b0e      	ldr	r3, [pc, #56]	@ (80025d0 <vTaskStartScheduler+0x68>)
 8002598:	6018      	str	r0, [r3, #0]
		if( xIdleTaskHandle != NULL )
 800259a:	b190      	cbz	r0, 80025c2 <vTaskStartScheduler+0x5a>
 800259c:	f04f 0350 	mov.w	r3, #80	@ 0x50
 80025a0:	f383 8811 	msr	BASEPRI, r3
 80025a4:	f3bf 8f6f 	isb	sy
 80025a8:	f3bf 8f4f 	dsb	sy
		xNextTaskUnblockTime = portMAX_DELAY;
 80025ac:	4b09      	ldr	r3, [pc, #36]	@ (80025d4 <vTaskStartScheduler+0x6c>)
 80025ae:	f04f 32ff 	mov.w	r2, #4294967295	@ 0xffffffff
 80025b2:	601a      	str	r2, [r3, #0]
		xSchedulerRunning = pdTRUE;
 80025b4:	4b08      	ldr	r3, [pc, #32]	@ (80025d8 <vTaskStartScheduler+0x70>)
 80025b6:	2201      	movs	r2, #1
 80025b8:	601a      	str	r2, [r3, #0]
		xTickCount = ( TickType_t ) configINITIAL_TICK_COUNT;
 80025ba:	4b08      	ldr	r3, [pc, #32]	@ (80025dc <vTaskStartScheduler+0x74>)
 80025bc:	601c      	str	r4, [r3, #0]
		if( xPortStartScheduler() != pdFALSE )
 80025be:	f7fe f980 	bl	80008c2 <xPortStartScheduler>
}
 80025c2:	b008      	add	sp, #32
 80025c4:	bd10      	pop	{r4, pc}
 80025c6:	bf00      	nop
 80025c8:	08005e98 	.word	0x08005e98
 80025cc:	08005c45 	.word	0x08005c45
 80025d0:	20000044 	.word	0x20000044
 80025d4:	20000048 	.word	0x20000048
 80025d8:	2000005c 	.word	0x2000005c
 80025dc:	20000064 	.word	0x20000064

080025e0 <vTaskEndScheduler>:
{
 80025e0:	b508      	push	{r3, lr}
 80025e2:	f04f 0350 	mov.w	r3, #80	@ 0x50
 80025e6:	f383 8811 	msr	BASEPRI, r3
 80025ea:	f3bf 8f6f 	isb	sy
 80025ee:	f3bf 8f4f 	dsb	sy
	xSchedulerRunning = pdFALSE;
 80025f2:	4b03      	ldr	r3, [pc, #12]	@ (8002600 <vTaskEndScheduler+0x20>)
 80025f4:	2200      	movs	r2, #0
 80025f6:	601a      	str	r2, [r3, #0]
	vPortEndScheduler();
 80025f8:	f7fe f87c 	bl	80006f4 <vPortEndScheduler>
}
 80025fc:	bd08      	pop	{r3, pc}
 80025fe:	bf00      	nop
 8002600:	2000005c 	.word	0x2000005c

08002604 <vTaskSuspendAll>:
	++uxSchedulerSuspended;
 8002604:	4a02      	ldr	r2, [pc, #8]	@ (8002610 <vTaskSuspendAll+0xc>)
 8002606:	6813      	ldr	r3, [r2, #0]
 8002608:	3301      	adds	r3, #1
 800260a:	6013      	str	r3, [r2, #0]
}
 800260c:	4770      	bx	lr
 800260e:	bf00      	nop
 8002610:	20000040 	.word	0x20000040

08002614 <xTaskGetTickCount>:
		xTicks = xTickCount;
 8002614:	4b01      	ldr	r3, [pc, #4]	@ (800261c <xTaskGetTickCount+0x8>)
 8002616:	6818      	ldr	r0, [r3, #0]
}
 8002618:	4770      	bx	lr
 800261a:	bf00      	nop
 800261c:	20000064 	.word	0x20000064

08002620 <xTaskGetTickCountFromISR>:
{
 8002620:	b508      	push	{r3, lr}
	portASSERT_IF_INTERRUPT_PRIORITY_INVALID();
 8002622:	f001 ffad 	bl	8004580 <vPortValidateInterruptPriority>
		xReturn = xTickCount;
 8002626:	4b01      	ldr	r3, [pc, #4]	@ (800262c <xTaskGetTickCountFromISR+0xc>)
 8002628:	6818      	ldr	r0, [r3, #0]
}
 800262a:	bd08      	pop	{r3, pc}
 800262c:	20000064 	.word	0x20000064

08002630 <uxTaskGetNumberOfTasks>:
	return uxCurrentNumberOfTasks;
 8002630:	4b01      	ldr	r3, [pc, #4]	@ (8002638 <uxTaskGetNumberOfTasks+0x8>)
 8002632:	6818      	ldr	r0, [r3, #0]
}
 8002634:	4770      	bx	lr
 8002636:	bf00      	nop
 8002638:	20000068 	.word	0x20000068

0800263c <pcTaskGetName>:
	pxTCB = prvGetTCBFromHandle( xTaskToQuery );
 800263c:	4603      	mov	r3, r0
 800263e:	b110      	cbz	r0, 8002646 <pcTaskGetName+0xa>
}
 8002640:	f103 0054 	add.w	r0, r3, #84	@ 0x54
 8002644:	4770      	bx	lr
	pxTCB = prvGetTCBFromHandle( xTaskToQuery );
 8002646:	4b06      	ldr	r3, [pc, #24]	@ (8002660 <pcTaskGetName+0x24>)
 8002648:	681b      	ldr	r3, [r3, #0]
	configASSERT( pxTCB );
 800264a:	2b00      	cmp	r3, #0
 800264c:	d1f8      	bne.n	8002640 <pcTaskGetName+0x4>
 800264e:	f04f 0350 	mov.w	r3, #80	@ 0x50
 8002652:	f383 8811 	msr	BASEPRI, r3
 8002656:	f3bf 8f6f 	isb	sy
 800265a:	f3bf 8f4f 	dsb	sy
 800265e:	e7fe      	b.n	800265e <pcTaskGetName+0x22>
 8002660:	20000168 	.word	0x20000168

08002664 <xTaskGenericNotify>:
	{
 8002664:	b5f8      	push	{r3, r4, r5, r6, r7, lr}
		configASSERT( xTaskToNotify );
 8002666:	b1a8      	cbz	r0, 8002694 <xTaskGenericNotify+0x30>
 8002668:	460e      	mov	r6, r1
 800266a:	4614      	mov	r4, r2
 800266c:	461d      	mov	r5, r3
 800266e:	4607      	mov	r7, r0
		taskENTER_CRITICAL();
 8002670:	f001 ff2e 	bl	80044d0 <vPortEnterCritical>
			if( pulPreviousNotificationValue != NULL )
 8002674:	b10d      	cbz	r5, 800267a <xTaskGenericNotify+0x16>
				*pulPreviousNotificationValue = pxTCB->ulNotifiedValue;
 8002676:	6efb      	ldr	r3, [r7, #108]	@ 0x6c
 8002678:	602b      	str	r3, [r5, #0]
			ucOriginalNotifyState = pxTCB->ucNotifyState;
 800267a:	f897 3070 	ldrb.w	r3, [r7, #112]	@ 0x70
 800267e:	b2db      	uxtb	r3, r3
			pxTCB->ucNotifyState = taskNOTIFICATION_RECEIVED;
 8002680:	2202      	movs	r2, #2
 8002682:	f887 2070 	strb.w	r2, [r7, #112]	@ 0x70
			switch( eAction )
 8002686:	2c04      	cmp	r4, #4
 8002688:	d821      	bhi.n	80026ce <xTaskGenericNotify+0x6a>
 800268a:	e8df f004 	tbb	[pc, r4]
 800268e:	0c0f      	.short	0x0c0f
 8002690:	1a16      	.short	0x1a16
 8002692:	1c          	.byte	0x1c
 8002693:	00          	.byte	0x00
 8002694:	f04f 0350 	mov.w	r3, #80	@ 0x50
 8002698:	f383 8811 	msr	BASEPRI, r3
 800269c:	f3bf 8f6f 	isb	sy
 80026a0:	f3bf 8f4f 	dsb	sy
		configASSERT( xTaskToNotify );
 80026a4:	e7fe      	b.n	80026a4 <xTaskGenericNotify+0x40>
					pxTCB->ulNotifiedValue |= ulValue;
 80026a6:	6efa      	ldr	r2, [r7, #108]	@ 0x6c
 80026a8:	4332      	orrs	r2, r6
 80026aa:	66fa      	str	r2, [r7, #108]	@ 0x6c
			if( ucOriginalNotifyState == taskWAITING_NOTIFICATION )
 80026ac:	2b01      	cmp	r3, #1
 80026ae:	d01b      	beq.n	80026e8 <xTaskGenericNotify+0x84>
 80026b0:	2401      	movs	r4, #1
		taskEXIT_CRITICAL();
 80026b2:	f001 ff21 	bl	80044f8 <vPortExitCritical>
	}
 80026b6:	4620      	mov	r0, r4
 80026b8:	bdf8      	pop	{r3, r4, r5, r6, r7, pc}
					( pxTCB->ulNotifiedValue )++;
 80026ba:	6efa      	ldr	r2, [r7, #108]	@ 0x6c
 80026bc:	3201      	adds	r2, #1
 80026be:	66fa      	str	r2, [r7, #108]	@ 0x6c
					break;
 80026c0:	e7f4      	b.n	80026ac <xTaskGenericNotify+0x48>
					pxTCB->ulNotifiedValue = ulValue;
 80026c2:	66fe      	str	r6, [r7, #108]	@ 0x6c
					break;
 80026c4:	e7f2      	b.n	80026ac <xTaskGenericNotify+0x48>
					if( ucOriginalNotifyState != taskNOTIFICATION_RECEIVED )
 80026c6:	2b02      	cmp	r3, #2
 80026c8:	d03f      	beq.n	800274a <xTaskGenericNotify+0xe6>
						pxTCB->ulNotifiedValue = ulValue;
 80026ca:	66fe      	str	r6, [r7, #108]	@ 0x6c
 80026cc:	e7ee      	b.n	80026ac <xTaskGenericNotify+0x48>
					configASSERT( pxTCB->ulNotifiedValue == ~0UL );
 80026ce:	6efa      	ldr	r2, [r7, #108]	@ 0x6c
 80026d0:	f1b2 3fff 	cmp.w	r2, #4294967295	@ 0xffffffff
 80026d4:	d0ea      	beq.n	80026ac <xTaskGenericNotify+0x48>
 80026d6:	f04f 0350 	mov.w	r3, #80	@ 0x50
 80026da:	f383 8811 	msr	BASEPRI, r3
 80026de:	f3bf 8f6f 	isb	sy
 80026e2:	f3bf 8f4f 	dsb	sy
 80026e6:	e7fe      	b.n	80026e6 <xTaskGenericNotify+0x82>
				( void ) uxListRemove( &( pxTCB->xStateListItem ) );
 80026e8:	f107 0424 	add.w	r4, r7, #36	@ 0x24
 80026ec:	4620      	mov	r0, r4
 80026ee:	f001 fe29 	bl	8004344 <uxListRemove>
				prvAddTaskToReadyList( pxTCB );
 80026f2:	6cf8      	ldr	r0, [r7, #76]	@ 0x4c
 80026f4:	2301      	movs	r3, #1
 80026f6:	4083      	lsls	r3, r0
 80026f8:	4a16      	ldr	r2, [pc, #88]	@ (8002754 <xTaskGenericNotify+0xf0>)
 80026fa:	6811      	ldr	r1, [r2, #0]
 80026fc:	430b      	orrs	r3, r1
 80026fe:	6013      	str	r3, [r2, #0]
 8002700:	eb00 0080 	add.w	r0, r0, r0, lsl #2
 8002704:	4621      	mov	r1, r4
 8002706:	4b14      	ldr	r3, [pc, #80]	@ (8002758 <xTaskGenericNotify+0xf4>)
 8002708:	eb03 0080 	add.w	r0, r3, r0, lsl #2
 800270c:	f001 fdf6 	bl	80042fc <vListInsertEnd>
				configASSERT( listLIST_ITEM_CONTAINER( &( pxTCB->xEventListItem ) ) == NULL );
 8002710:	6cbb      	ldr	r3, [r7, #72]	@ 0x48
 8002712:	b143      	cbz	r3, 8002726 <xTaskGenericNotify+0xc2>
 8002714:	f04f 0350 	mov.w	r3, #80	@ 0x50
 8002718:	f383 8811 	msr	BASEPRI, r3
 800271c:	f3bf 8f6f 	isb	sy
 8002720:	f3bf 8f4f 	dsb	sy
 8002724:	e7fe      	b.n	8002724 <xTaskGenericNotify+0xc0>
				if( pxTCB->uxPriority > pxCurrentTCB->uxPriority )
 8002726:	6cfa      	ldr	r2, [r7, #76]	@ 0x4c
 8002728:	4b0c      	ldr	r3, [pc, #48]	@ (800275c <xTaskGenericNotify+0xf8>)
 800272a:	681b      	ldr	r3, [r3, #0]
 800272c:	6cdb      	ldr	r3, [r3, #76]	@ 0x4c
 800272e:	429a      	cmp	r2, r3
 8002730:	d90d      	bls.n	800274e <xTaskGenericNotify+0xea>
					taskYIELD_IF_USING_PREEMPTION();
 8002732:	f04f 23e0 	mov.w	r3, #3758153728	@ 0xe000e000
 8002736:	f04f 5280 	mov.w	r2, #268435456	@ 0x10000000
 800273a:	f8c3 2d04 	str.w	r2, [r3, #3332]	@ 0xd04
 800273e:	f3bf 8f4f 	dsb	sy
 8002742:	f3bf 8f6f 	isb	sy
 8002746:	2401      	movs	r4, #1
 8002748:	e7b3      	b.n	80026b2 <xTaskGenericNotify+0x4e>
						xReturn = pdFAIL;
 800274a:	2400      	movs	r4, #0
 800274c:	e7b1      	b.n	80026b2 <xTaskGenericNotify+0x4e>
 800274e:	2401      	movs	r4, #1
 8002750:	e7af      	b.n	80026b2 <xTaskGenericNotify+0x4e>
 8002752:	bf00      	nop
 8002754:	20000060 	.word	0x20000060
 8002758:	200000dc 	.word	0x200000dc
 800275c:	20000168 	.word	0x20000168

08002760 <xTaskGenericNotifyFromISR>:
		configASSERT( xTaskToNotify );
 8002760:	b310      	cbz	r0, 80027a8 <xTaskGenericNotifyFromISR+0x48>
	{
 8002762:	e92d 41f0 	stmdb	sp!, {r4, r5, r6, r7, r8, lr}
 8002766:	460e      	mov	r6, r1
 8002768:	4614      	mov	r4, r2
 800276a:	461d      	mov	r5, r3
 800276c:	4607      	mov	r7, r0
		portASSERT_IF_INTERRUPT_PRIORITY_INVALID();
 800276e:	f001 ff07 	bl	8004580 <vPortValidateInterruptPriority>
	__asm volatile
 8002772:	f3ef 8311 	mrs	r3, BASEPRI
 8002776:	f04f 0250 	mov.w	r2, #80	@ 0x50
 800277a:	f382 8811 	msr	BASEPRI, r2
 800277e:	f3bf 8f6f 	isb	sy
 8002782:	f3bf 8f4f 	dsb	sy
 8002786:	4698      	mov	r8, r3
			if( pulPreviousNotificationValue != NULL )
 8002788:	b10d      	cbz	r5, 800278e <xTaskGenericNotifyFromISR+0x2e>
				*pulPreviousNotificationValue = pxTCB->ulNotifiedValue;
 800278a:	6efb      	ldr	r3, [r7, #108]	@ 0x6c
 800278c:	602b      	str	r3, [r5, #0]
			ucOriginalNotifyState = pxTCB->ucNotifyState;
 800278e:	f897 3070 	ldrb.w	r3, [r7, #112]	@ 0x70
 8002792:	b2db      	uxtb	r3, r3
			pxTCB->ucNotifyState = taskNOTIFICATION_RECEIVED;
 8002794:	2202      	movs	r2, #2
 8002796:	f887 2070 	strb.w	r2, [r7, #112]	@ 0x70
			switch( eAction )
 800279a:	2c04      	cmp	r4, #4
 800279c:	d821      	bhi.n	80027e2 <xTaskGenericNotifyFromISR+0x82>
 800279e:	e8df f004 	tbb	[pc, r4]
 80027a2:	0c0f      	.short	0x0c0f
 80027a4:	1a16      	.short	0x1a16
 80027a6:	1c          	.byte	0x1c
 80027a7:	00          	.byte	0x00
	__asm volatile
 80027a8:	f04f 0350 	mov.w	r3, #80	@ 0x50
 80027ac:	f383 8811 	msr	BASEPRI, r3
 80027b0:	f3bf 8f6f 	isb	sy
 80027b4:	f3bf 8f4f 	dsb	sy
		configASSERT( xTaskToNotify );
 80027b8:	e7fe      	b.n	80027b8 <xTaskGenericNotifyFromISR+0x58>
					pxTCB->ulNotifiedValue |= ulValue;
 80027ba:	6efa      	ldr	r2, [r7, #108]	@ 0x6c
 80027bc:	4332      	orrs	r2, r6
 80027be:	66fa      	str	r2, [r7, #108]	@ 0x6c
			if( ucOriginalNotifyState == taskWAITING_NOTIFICATION )
 80027c0:	2b01      	cmp	r3, #1
 80027c2:	d01b      	beq.n	80027fc <xTaskGenericNotifyFromISR+0x9c>
 80027c4:	2001      	movs	r0, #1
	__asm volatile
 80027c6:	f388 8811 	msr	BASEPRI, r8
	}
 80027ca:	e8bd 81f0 	ldmia.w	sp!, {r4, r5, r6, r7, r8, pc}
					( pxTCB->ulNotifiedValue )++;
 80027ce:	6efa      	ldr	r2, [r7, #108]	@ 0x6c
 80027d0:	3201      	adds	r2, #1
 80027d2:	66fa      	str	r2, [r7, #108]	@ 0x6c
					break;
 80027d4:	e7f4      	b.n	80027c0 <xTaskGenericNotifyFromISR+0x60>
					pxTCB->ulNotifiedValue = ulValue;
 80027d6:	66fe      	str	r6, [r7, #108]	@ 0x6c
					break;
 80027d8:	e7f2      	b.n	80027c0 <xTaskGenericNotifyFromISR+0x60>
					if( ucOriginalNotifyState != taskNOTIFICATION_RECEIVED )
 80027da:	2b02      	cmp	r3, #2
 80027dc:	d045      	beq.n	800286a <xTaskGenericNotifyFromISR+0x10a>
						pxTCB->ulNotifiedValue = ulValue;
 80027de:	66fe      	str	r6, [r7, #108]	@ 0x6c
 80027e0:	e7ee      	b.n	80027c0 <xTaskGenericNotifyFromISR+0x60>
					configASSERT( pxTCB->ulNotifiedValue == ~0UL );
 80027e2:	6efa      	ldr	r2, [r7, #108]	@ 0x6c
 80027e4:	f1b2 3fff 	cmp.w	r2, #4294967295	@ 0xffffffff
 80027e8:	d0ea      	beq.n	80027c0 <xTaskGenericNotifyFromISR+0x60>
	__asm volatile
 80027ea:	f04f 0350 	mov.w	r3, #80	@ 0x50
 80027ee:	f383 8811 	msr	BASEPRI, r3
 80027f2:	f3bf 8f6f 	isb	sy
 80027f6:	f3bf 8f4f 	dsb	sy
 80027fa:	e7fe      	b.n	80027fa <xTaskGenericNotifyFromISR+0x9a>
				configASSERT( listLIST_ITEM_CONTAINER( &( pxTCB->xEventListItem ) ) == NULL );
 80027fc:	6cbb      	ldr	r3, [r7, #72]	@ 0x48
 80027fe:	b143      	cbz	r3, 8002812 <xTaskGenericNotifyFromISR+0xb2>
 8002800:	f04f 0350 	mov.w	r3, #80	@ 0x50
 8002804:	f383 8811 	msr	BASEPRI, r3
 8002808:	f3bf 8f6f 	isb	sy
 800280c:	f3bf 8f4f 	dsb	sy
 8002810:	e7fe      	b.n	8002810 <xTaskGenericNotifyFromISR+0xb0>
				if( uxSchedulerSuspended == ( UBaseType_t ) pdFALSE )
 8002812:	4b18      	ldr	r3, [pc, #96]	@ (8002874 <xTaskGenericNotifyFromISR+0x114>)
 8002814:	681b      	ldr	r3, [r3, #0]
 8002816:	bb13      	cbnz	r3, 800285e <xTaskGenericNotifyFromISR+0xfe>
					( void ) uxListRemove( &( pxTCB->xStateListItem ) );
 8002818:	f107 0424 	add.w	r4, r7, #36	@ 0x24
 800281c:	4620      	mov	r0, r4
 800281e:	f001 fd91 	bl	8004344 <uxListRemove>
					prvAddTaskToReadyList( pxTCB );
 8002822:	6cf8      	ldr	r0, [r7, #76]	@ 0x4c
 8002824:	2301      	movs	r3, #1
 8002826:	4083      	lsls	r3, r0
 8002828:	4a13      	ldr	r2, [pc, #76]	@ (8002878 <xTaskGenericNotifyFromISR+0x118>)
 800282a:	6811      	ldr	r1, [r2, #0]
 800282c:	430b      	orrs	r3, r1
 800282e:	6013      	str	r3, [r2, #0]
 8002830:	eb00 0080 	add.w	r0, r0, r0, lsl #2
 8002834:	4621      	mov	r1, r4
 8002836:	4b11      	ldr	r3, [pc, #68]	@ (800287c <xTaskGenericNotifyFromISR+0x11c>)
 8002838:	eb03 0080 	add.w	r0, r3, r0, lsl #2
 800283c:	f001 fd5e 	bl	80042fc <vListInsertEnd>
				if( pxTCB->uxPriority > pxCurrentTCB->uxPriority )
 8002840:	6cfa      	ldr	r2, [r7, #76]	@ 0x4c
 8002842:	4b0f      	ldr	r3, [pc, #60]	@ (8002880 <xTaskGenericNotifyFromISR+0x120>)
 8002844:	681b      	ldr	r3, [r3, #0]
 8002846:	6cdb      	ldr	r3, [r3, #76]	@ 0x4c
 8002848:	429a      	cmp	r2, r3
 800284a:	d910      	bls.n	800286e <xTaskGenericNotifyFromISR+0x10e>
					if( pxHigherPriorityTaskWoken != NULL )
 800284c:	9b06      	ldr	r3, [sp, #24]
 800284e:	b113      	cbz	r3, 8002856 <xTaskGenericNotifyFromISR+0xf6>
						*pxHigherPriorityTaskWoken = pdTRUE;
 8002850:	2301      	movs	r3, #1
 8002852:	9a06      	ldr	r2, [sp, #24]
 8002854:	6013      	str	r3, [r2, #0]
					xYieldPending = pdTRUE;
 8002856:	2001      	movs	r0, #1
 8002858:	4b0a      	ldr	r3, [pc, #40]	@ (8002884 <xTaskGenericNotifyFromISR+0x124>)
 800285a:	6018      	str	r0, [r3, #0]
 800285c:	e7b3      	b.n	80027c6 <xTaskGenericNotifyFromISR+0x66>
					vListInsertEnd( &( xPendingReadyList ), &( pxTCB->xEventListItem ) );
 800285e:	f107 0138 	add.w	r1, r7, #56	@ 0x38
 8002862:	4809      	ldr	r0, [pc, #36]	@ (8002888 <xTaskGenericNotifyFromISR+0x128>)
 8002864:	f001 fd4a 	bl	80042fc <vListInsertEnd>
 8002868:	e7ea      	b.n	8002840 <xTaskGenericNotifyFromISR+0xe0>
						xReturn = pdFAIL;
 800286a:	2000      	movs	r0, #0
 800286c:	e7ab      	b.n	80027c6 <xTaskGenericNotifyFromISR+0x66>
 800286e:	2001      	movs	r0, #1
 8002870:	e7a9      	b.n	80027c6 <xTaskGenericNotifyFromISR+0x66>
 8002872:	bf00      	nop
 8002874:	20000040 	.word	0x20000040
 8002878:	20000060 	.word	0x20000060
 800287c:	200000dc 	.word	0x200000dc
 8002880:	20000168 	.word	0x20000168
 8002884:	20000054 	.word	0x20000054
 8002888:	20000098 	.word	0x20000098

0800288c <xTaskNotifyWait>:
	{
 800288c:	b5f8      	push	{r3, r4, r5, r6, r7, lr}
 800288e:	4606      	mov	r6, r0
 8002890:	460f      	mov	r7, r1
 8002892:	4614      	mov	r4, r2
 8002894:	461d      	mov	r5, r3
		taskENTER_CRITICAL();
 8002896:	f001 fe1b 	bl	80044d0 <vPortEnterCritical>
			if( pxCurrentTCB->ucNotifyState != taskNOTIFICATION_RECEIVED )
 800289a:	4b21      	ldr	r3, [pc, #132]	@ (8002920 <xTaskNotifyWait+0x94>)
 800289c:	681b      	ldr	r3, [r3, #0]
 800289e:	f893 2070 	ldrb.w	r2, [r3, #112]	@ 0x70
 80028a2:	b2d2      	uxtb	r2, r2
 80028a4:	2a02      	cmp	r2, #2
 80028a6:	d00a      	beq.n	80028be <xTaskNotifyWait+0x32>
				pxCurrentTCB->ulNotifiedValue &= ~ulBitsToClearOnEntry;
 80028a8:	4a1d      	ldr	r2, [pc, #116]	@ (8002920 <xTaskNotifyWait+0x94>)
 80028aa:	6811      	ldr	r1, [r2, #0]
 80028ac:	6ecb      	ldr	r3, [r1, #108]	@ 0x6c
 80028ae:	ea23 0306 	bic.w	r3, r3, r6
 80028b2:	66cb      	str	r3, [r1, #108]	@ 0x6c
				pxCurrentTCB->ucNotifyState = taskWAITING_NOTIFICATION;
 80028b4:	6813      	ldr	r3, [r2, #0]
 80028b6:	2201      	movs	r2, #1
 80028b8:	f883 2070 	strb.w	r2, [r3, #112]	@ 0x70
				if( xTicksToWait > ( TickType_t ) 0 )
 80028bc:	b9cd      	cbnz	r5, 80028f2 <xTaskNotifyWait+0x66>
		taskEXIT_CRITICAL();
 80028be:	f001 fe1b 	bl	80044f8 <vPortExitCritical>
		taskENTER_CRITICAL();
 80028c2:	f001 fe05 	bl	80044d0 <vPortEnterCritical>
			if( pulNotificationValue != NULL )
 80028c6:	b11c      	cbz	r4, 80028d0 <xTaskNotifyWait+0x44>
				*pulNotificationValue = pxCurrentTCB->ulNotifiedValue;
 80028c8:	4b15      	ldr	r3, [pc, #84]	@ (8002920 <xTaskNotifyWait+0x94>)
 80028ca:	681b      	ldr	r3, [r3, #0]
 80028cc:	6edb      	ldr	r3, [r3, #108]	@ 0x6c
 80028ce:	6023      	str	r3, [r4, #0]
			if( pxCurrentTCB->ucNotifyState != taskNOTIFICATION_RECEIVED )
 80028d0:	4b13      	ldr	r3, [pc, #76]	@ (8002920 <xTaskNotifyWait+0x94>)
 80028d2:	681b      	ldr	r3, [r3, #0]
 80028d4:	f893 3070 	ldrb.w	r3, [r3, #112]	@ 0x70
 80028d8:	b2db      	uxtb	r3, r3
 80028da:	2b02      	cmp	r3, #2
 80028dc:	d018      	beq.n	8002910 <xTaskNotifyWait+0x84>
				xReturn = pdFALSE;
 80028de:	2400      	movs	r4, #0
			pxCurrentTCB->ucNotifyState = taskNOT_WAITING_NOTIFICATION;
 80028e0:	4b0f      	ldr	r3, [pc, #60]	@ (8002920 <xTaskNotifyWait+0x94>)
 80028e2:	681b      	ldr	r3, [r3, #0]
 80028e4:	2200      	movs	r2, #0
 80028e6:	f883 2070 	strb.w	r2, [r3, #112]	@ 0x70
		taskEXIT_CRITICAL();
 80028ea:	f001 fe05 	bl	80044f8 <vPortExitCritical>
	}
 80028ee:	4620      	mov	r0, r4
 80028f0:	bdf8      	pop	{r3, r4, r5, r6, r7, pc}
					prvAddCurrentTaskToDelayedList( xTicksToWait, pdTRUE );
 80028f2:	4611      	mov	r1, r2
 80028f4:	4628      	mov	r0, r5
 80028f6:	f7ff fb0b 	bl	8001f10 <prvAddCurrentTaskToDelayedList>
					portYIELD_WITHIN_API();
 80028fa:	f04f 23e0 	mov.w	r3, #3758153728	@ 0xe000e000
 80028fe:	f04f 5280 	mov.w	r2, #268435456	@ 0x10000000
 8002902:	f8c3 2d04 	str.w	r2, [r3, #3332]	@ 0xd04
 8002906:	f3bf 8f4f 	dsb	sy
 800290a:	f3bf 8f6f 	isb	sy
 800290e:	e7d6      	b.n	80028be <xTaskNotifyWait+0x32>
				pxCurrentTCB->ulNotifiedValue &= ~ulBitsToClearOnExit;
 8002910:	4b03      	ldr	r3, [pc, #12]	@ (8002920 <xTaskNotifyWait+0x94>)
 8002912:	681a      	ldr	r2, [r3, #0]
 8002914:	6ed3      	ldr	r3, [r2, #108]	@ 0x6c
 8002916:	ea23 0307 	bic.w	r3, r3, r7
 800291a:	66d3      	str	r3, [r2, #108]	@ 0x6c
				xReturn = pdTRUE;
 800291c:	2401      	movs	r4, #1
 800291e:	e7df      	b.n	80028e0 <xTaskNotifyWait+0x54>
 8002920:	20000168 	.word	0x20000168

08002924 <vTaskNotifyGiveFromISR>:
	{
 8002924:	b5f8      	push	{r3, r4, r5, r6, r7, lr}
		configASSERT( xTaskToNotify );
 8002926:	b1e0      	cbz	r0, 8002962 <vTaskNotifyGiveFromISR+0x3e>
 8002928:	460d      	mov	r5, r1
 800292a:	4604      	mov	r4, r0
		portASSERT_IF_INTERRUPT_PRIORITY_INVALID();
 800292c:	f001 fe28 	bl	8004580 <vPortValidateInterruptPriority>
	__asm volatile
 8002930:	f3ef 8311 	mrs	r3, BASEPRI
 8002934:	f04f 0250 	mov.w	r2, #80	@ 0x50
 8002938:	f382 8811 	msr	BASEPRI, r2
 800293c:	f3bf 8f6f 	isb	sy
 8002940:	f3bf 8f4f 	dsb	sy
 8002944:	461e      	mov	r6, r3
			ucOriginalNotifyState = pxTCB->ucNotifyState;
 8002946:	f894 3070 	ldrb.w	r3, [r4, #112]	@ 0x70
 800294a:	b2db      	uxtb	r3, r3
			pxTCB->ucNotifyState = taskNOTIFICATION_RECEIVED;
 800294c:	2202      	movs	r2, #2
 800294e:	f884 2070 	strb.w	r2, [r4, #112]	@ 0x70
			( pxTCB->ulNotifiedValue )++;
 8002952:	6ee2      	ldr	r2, [r4, #108]	@ 0x6c
 8002954:	3201      	adds	r2, #1
 8002956:	66e2      	str	r2, [r4, #108]	@ 0x6c
			if( ucOriginalNotifyState == taskWAITING_NOTIFICATION )
 8002958:	2b01      	cmp	r3, #1
 800295a:	d00b      	beq.n	8002974 <vTaskNotifyGiveFromISR+0x50>
	__asm volatile
 800295c:	f386 8811 	msr	BASEPRI, r6
	}
 8002960:	bdf8      	pop	{r3, r4, r5, r6, r7, pc}
	__asm volatile
 8002962:	f04f 0350 	mov.w	r3, #80	@ 0x50
 8002966:	f383 8811 	msr	BASEPRI, r3
 800296a:	f3bf 8f6f 	isb	sy
 800296e:	f3bf 8f4f 	dsb	sy
		configASSERT( xTaskToNotify );
 8002972:	e7fe      	b.n	8002972 <vTaskNotifyGiveFromISR+0x4e>
				configASSERT( listLIST_ITEM_CONTAINER( &( pxTCB->xEventListItem ) ) == NULL );
 8002974:	6ca3      	ldr	r3, [r4, #72]	@ 0x48
 8002976:	b143      	cbz	r3, 800298a <vTaskNotifyGiveFromISR+0x66>
 8002978:	f04f 0350 	mov.w	r3, #80	@ 0x50
 800297c:	f383 8811 	msr	BASEPRI, r3
 8002980:	f3bf 8f6f 	isb	sy
 8002984:	f3bf 8f4f 	dsb	sy
 8002988:	e7fe      	b.n	8002988 <vTaskNotifyGiveFromISR+0x64>
				if( uxSchedulerSuspended == ( UBaseType_t ) pdFALSE )
 800298a:	4b15      	ldr	r3, [pc, #84]	@ (80029e0 <vTaskNotifyGiveFromISR+0xbc>)
 800298c:	681b      	ldr	r3, [r3, #0]
 800298e:	bb03      	cbnz	r3, 80029d2 <vTaskNotifyGiveFromISR+0xae>
					( void ) uxListRemove( &( pxTCB->xStateListItem ) );
 8002990:	f104 0724 	add.w	r7, r4, #36	@ 0x24
 8002994:	4638      	mov	r0, r7
 8002996:	f001 fcd5 	bl	8004344 <uxListRemove>
					prvAddTaskToReadyList( pxTCB );
 800299a:	6ce0      	ldr	r0, [r4, #76]	@ 0x4c
 800299c:	2301      	movs	r3, #1
 800299e:	4083      	lsls	r3, r0
 80029a0:	4a10      	ldr	r2, [pc, #64]	@ (80029e4 <vTaskNotifyGiveFromISR+0xc0>)
 80029a2:	6811      	ldr	r1, [r2, #0]
 80029a4:	430b      	orrs	r3, r1
 80029a6:	6013      	str	r3, [r2, #0]
 80029a8:	eb00 0080 	add.w	r0, r0, r0, lsl #2
 80029ac:	4639      	mov	r1, r7
 80029ae:	4b0e      	ldr	r3, [pc, #56]	@ (80029e8 <vTaskNotifyGiveFromISR+0xc4>)
 80029b0:	eb03 0080 	add.w	r0, r3, r0, lsl #2
 80029b4:	f001 fca2 	bl	80042fc <vListInsertEnd>
				if( pxTCB->uxPriority > pxCurrentTCB->uxPriority )
 80029b8:	6ce2      	ldr	r2, [r4, #76]	@ 0x4c
 80029ba:	4b0c      	ldr	r3, [pc, #48]	@ (80029ec <vTaskNotifyGiveFromISR+0xc8>)
 80029bc:	681b      	ldr	r3, [r3, #0]
 80029be:	6cdb      	ldr	r3, [r3, #76]	@ 0x4c
 80029c0:	429a      	cmp	r2, r3
 80029c2:	d9cb      	bls.n	800295c <vTaskNotifyGiveFromISR+0x38>
					if( pxHigherPriorityTaskWoken != NULL )
 80029c4:	b10d      	cbz	r5, 80029ca <vTaskNotifyGiveFromISR+0xa6>
						*pxHigherPriorityTaskWoken = pdTRUE;
 80029c6:	2301      	movs	r3, #1
 80029c8:	602b      	str	r3, [r5, #0]
					xYieldPending = pdTRUE;
 80029ca:	4b09      	ldr	r3, [pc, #36]	@ (80029f0 <vTaskNotifyGiveFromISR+0xcc>)
 80029cc:	2201      	movs	r2, #1
 80029ce:	601a      	str	r2, [r3, #0]
 80029d0:	e7c4      	b.n	800295c <vTaskNotifyGiveFromISR+0x38>
					vListInsertEnd( &( xPendingReadyList ), &( pxTCB->xEventListItem ) );
 80029d2:	f104 0138 	add.w	r1, r4, #56	@ 0x38
 80029d6:	4807      	ldr	r0, [pc, #28]	@ (80029f4 <vTaskNotifyGiveFromISR+0xd0>)
 80029d8:	f001 fc90 	bl	80042fc <vListInsertEnd>
 80029dc:	e7ec      	b.n	80029b8 <vTaskNotifyGiveFromISR+0x94>
 80029de:	bf00      	nop
 80029e0:	20000040 	.word	0x20000040
 80029e4:	20000060 	.word	0x20000060
 80029e8:	200000dc 	.word	0x200000dc
 80029ec:	20000168 	.word	0x20000168
 80029f0:	20000054 	.word	0x20000054
 80029f4:	20000098 	.word	0x20000098

080029f8 <ulTaskNotifyTake>:
	{
 80029f8:	b538      	push	{r3, r4, r5, lr}
 80029fa:	4605      	mov	r5, r0
 80029fc:	460c      	mov	r4, r1
		taskENTER_CRITICAL();
 80029fe:	f001 fd67 	bl	80044d0 <vPortEnterCritical>
			if( pxCurrentTCB->ulNotifiedValue == 0UL )
 8002a02:	4b1a      	ldr	r3, [pc, #104]	@ (8002a6c <ulTaskNotifyTake+0x74>)
 8002a04:	681b      	ldr	r3, [r3, #0]
 8002a06:	6edb      	ldr	r3, [r3, #108]	@ 0x6c
 8002a08:	b92b      	cbnz	r3, 8002a16 <ulTaskNotifyTake+0x1e>
				pxCurrentTCB->ucNotifyState = taskWAITING_NOTIFICATION;
 8002a0a:	4b18      	ldr	r3, [pc, #96]	@ (8002a6c <ulTaskNotifyTake+0x74>)
 8002a0c:	681b      	ldr	r3, [r3, #0]
 8002a0e:	2201      	movs	r2, #1
 8002a10:	f883 2070 	strb.w	r2, [r3, #112]	@ 0x70
				if( xTicksToWait > ( TickType_t ) 0 )
 8002a14:	b9ac      	cbnz	r4, 8002a42 <ulTaskNotifyTake+0x4a>
		taskEXIT_CRITICAL();
 8002a16:	f001 fd6f 	bl	80044f8 <vPortExitCritical>
		taskENTER_CRITICAL();
 8002a1a:	f001 fd59 	bl	80044d0 <vPortEnterCritical>
			ulReturn = pxCurrentTCB->ulNotifiedValue;
 8002a1e:	4b13      	ldr	r3, [pc, #76]	@ (8002a6c <ulTaskNotifyTake+0x74>)
 8002a20:	681b      	ldr	r3, [r3, #0]
 8002a22:	6edc      	ldr	r4, [r3, #108]	@ 0x6c
			if( ulReturn != 0UL )
 8002a24:	b124      	cbz	r4, 8002a30 <ulTaskNotifyTake+0x38>
				if( xClearCountOnExit != pdFALSE )
 8002a26:	b1dd      	cbz	r5, 8002a60 <ulTaskNotifyTake+0x68>
					pxCurrentTCB->ulNotifiedValue = 0UL;
 8002a28:	4b10      	ldr	r3, [pc, #64]	@ (8002a6c <ulTaskNotifyTake+0x74>)
 8002a2a:	681b      	ldr	r3, [r3, #0]
 8002a2c:	2200      	movs	r2, #0
 8002a2e:	66da      	str	r2, [r3, #108]	@ 0x6c
			pxCurrentTCB->ucNotifyState = taskNOT_WAITING_NOTIFICATION;
 8002a30:	4b0e      	ldr	r3, [pc, #56]	@ (8002a6c <ulTaskNotifyTake+0x74>)
 8002a32:	681b      	ldr	r3, [r3, #0]
 8002a34:	2200      	movs	r2, #0
 8002a36:	f883 2070 	strb.w	r2, [r3, #112]	@ 0x70
		taskEXIT_CRITICAL();
 8002a3a:	f001 fd5d 	bl	80044f8 <vPortExitCritical>
	}
 8002a3e:	4620      	mov	r0, r4
 8002a40:	bd38      	pop	{r3, r4, r5, pc}
					prvAddCurrentTaskToDelayedList( xTicksToWait, pdTRUE );
 8002a42:	4611      	mov	r1, r2
 8002a44:	4620      	mov	r0, r4
 8002a46:	f7ff fa63 	bl	8001f10 <prvAddCurrentTaskToDelayedList>
					portYIELD_WITHIN_API();
 8002a4a:	f04f 23e0 	mov.w	r3, #3758153728	@ 0xe000e000
 8002a4e:	f04f 5280 	mov.w	r2, #268435456	@ 0x10000000
 8002a52:	f8c3 2d04 	str.w	r2, [r3, #3332]	@ 0xd04
 8002a56:	f3bf 8f4f 	dsb	sy
 8002a5a:	f3bf 8f6f 	isb	sy
 8002a5e:	e7da      	b.n	8002a16 <ulTaskNotifyTake+0x1e>
					pxCurrentTCB->ulNotifiedValue = ulReturn - ( uint32_t ) 1;
 8002a60:	4b02      	ldr	r3, [pc, #8]	@ (8002a6c <ulTaskNotifyTake+0x74>)
 8002a62:	681b      	ldr	r3, [r3, #0]
 8002a64:	1e62      	subs	r2, r4, #1
 8002a66:	66da      	str	r2, [r3, #108]	@ 0x6c
 8002a68:	e7e2      	b.n	8002a30 <ulTaskNotifyTake+0x38>
 8002a6a:	bf00      	nop
 8002a6c:	20000168 	.word	0x20000168

08002a70 <ulTaskNotifyValueClear>:
	{
 8002a70:	b570      	push	{r4, r5, r6, lr}
 8002a72:	460c      	mov	r4, r1
		pxTCB = prvGetTCBFromHandle( xTask );
 8002a74:	4605      	mov	r5, r0
 8002a76:	b160      	cbz	r0, 8002a92 <ulTaskNotifyValueClear+0x22>
		taskENTER_CRITICAL();
 8002a78:	f001 fd2a 	bl	80044d0 <vPortEnterCritical>
			ulReturn = pxCurrentTCB->ulNotifiedValue;
 8002a7c:	4b06      	ldr	r3, [pc, #24]	@ (8002a98 <ulTaskNotifyValueClear+0x28>)
 8002a7e:	681b      	ldr	r3, [r3, #0]
 8002a80:	6ede      	ldr	r6, [r3, #108]	@ 0x6c
			pxTCB->ulNotifiedValue &= ~ulBitsToClear;
 8002a82:	6eeb      	ldr	r3, [r5, #108]	@ 0x6c
 8002a84:	ea23 0304 	bic.w	r3, r3, r4
 8002a88:	66eb      	str	r3, [r5, #108]	@ 0x6c
		taskEXIT_CRITICAL();
 8002a8a:	f001 fd35 	bl	80044f8 <vPortExitCritical>
	}
 8002a8e:	4630      	mov	r0, r6
 8002a90:	bd70      	pop	{r4, r5, r6, pc}
		pxTCB = prvGetTCBFromHandle( xTask );
 8002a92:	4b01      	ldr	r3, [pc, #4]	@ (8002a98 <ulTaskNotifyValueClear+0x28>)
 8002a94:	681d      	ldr	r5, [r3, #0]
 8002a96:	e7ef      	b.n	8002a78 <ulTaskNotifyValueClear+0x8>
 8002a98:	20000168 	.word	0x20000168

08002a9c <vTaskSetTimeOutState>:
	configASSERT( pxTimeOut );
 8002a9c:	b160      	cbz	r0, 8002ab8 <vTaskSetTimeOutState+0x1c>
{
 8002a9e:	b510      	push	{r4, lr}
 8002aa0:	4604      	mov	r4, r0
	taskENTER_CRITICAL();
 8002aa2:	f001 fd15 	bl	80044d0 <vPortEnterCritical>
		pxTimeOut->xOverflowCount = xNumOfOverflows;
 8002aa6:	4b09      	ldr	r3, [pc, #36]	@ (8002acc <vTaskSetTimeOutState+0x30>)
 8002aa8:	681b      	ldr	r3, [r3, #0]
 8002aaa:	6023      	str	r3, [r4, #0]
		pxTimeOut->xTimeOnEntering = xTickCount;
 8002aac:	4b08      	ldr	r3, [pc, #32]	@ (8002ad0 <vTaskSetTimeOutState+0x34>)
 8002aae:	681b      	ldr	r3, [r3, #0]
 8002ab0:	6063      	str	r3, [r4, #4]
	taskEXIT_CRITICAL();
 8002ab2:	f001 fd21 	bl	80044f8 <vPortExitCritical>
}
 8002ab6:	bd10      	pop	{r4, pc}
 8002ab8:	f04f 0350 	mov.w	r3, #80	@ 0x50
 8002abc:	f383 8811 	msr	BASEPRI, r3
 8002ac0:	f3bf 8f6f 	isb	sy
 8002ac4:	f3bf 8f4f 	dsb	sy
	configASSERT( pxTimeOut );
 8002ac8:	e7fe      	b.n	8002ac8 <vTaskSetTimeOutState+0x2c>
 8002aca:	bf00      	nop
 8002acc:	20000050 	.word	0x20000050
 8002ad0:	20000064 	.word	0x20000064

08002ad4 <xTaskIncrementTick>:
{
 8002ad4:	b5f8      	push	{r3, r4, r5, r6, r7, lr}
	if( uxSchedulerSuspended == ( UBaseType_t ) pdFALSE )
 8002ad6:	4b3b      	ldr	r3, [pc, #236]	@ (8002bc4 <xTaskIncrementTick+0xf0>)
 8002ad8:	681b      	ldr	r3, [r3, #0]
 8002ada:	2b00      	cmp	r3, #0
 8002adc:	d16a      	bne.n	8002bb4 <xTaskIncrementTick+0xe0>
		const TickType_t xConstTickCount = xTickCount + ( TickType_t ) 1;
 8002ade:	4b3a      	ldr	r3, [pc, #232]	@ (8002bc8 <xTaskIncrementTick+0xf4>)
 8002ae0:	681d      	ldr	r5, [r3, #0]
 8002ae2:	3501      	adds	r5, #1
		xTickCount = xConstTickCount;
 8002ae4:	601d      	str	r5, [r3, #0]
		if( xConstTickCount == ( TickType_t ) 0U ) /*lint !e774 'if' does not always evaluate to false as it is looking for an overflow. */
 8002ae6:	b9c5      	cbnz	r5, 8002b1a <xTaskIncrementTick+0x46>
			taskSWITCH_DELAYED_LISTS();
 8002ae8:	4b38      	ldr	r3, [pc, #224]	@ (8002bcc <xTaskIncrementTick+0xf8>)
 8002aea:	681b      	ldr	r3, [r3, #0]
 8002aec:	681b      	ldr	r3, [r3, #0]
 8002aee:	b143      	cbz	r3, 8002b02 <xTaskIncrementTick+0x2e>
 8002af0:	f04f 0350 	mov.w	r3, #80	@ 0x50
 8002af4:	f383 8811 	msr	BASEPRI, r3
 8002af8:	f3bf 8f6f 	isb	sy
 8002afc:	f3bf 8f4f 	dsb	sy
 8002b00:	e7fe      	b.n	8002b00 <xTaskIncrementTick+0x2c>
 8002b02:	4a32      	ldr	r2, [pc, #200]	@ (8002bcc <xTaskIncrementTick+0xf8>)
 8002b04:	6811      	ldr	r1, [r2, #0]
 8002b06:	4b32      	ldr	r3, [pc, #200]	@ (8002bd0 <xTaskIncrementTick+0xfc>)
 8002b08:	6818      	ldr	r0, [r3, #0]
 8002b0a:	6010      	str	r0, [r2, #0]
 8002b0c:	6019      	str	r1, [r3, #0]
 8002b0e:	4a31      	ldr	r2, [pc, #196]	@ (8002bd4 <xTaskIncrementTick+0x100>)
 8002b10:	6813      	ldr	r3, [r2, #0]
 8002b12:	3301      	adds	r3, #1
 8002b14:	6013      	str	r3, [r2, #0]
 8002b16:	f003 f87f 	bl	8005c18 <prvResetNextTaskUnblockTime>
		if( xConstTickCount >= xNextTaskUnblockTime )
 8002b1a:	4b2f      	ldr	r3, [pc, #188]	@ (8002bd8 <xTaskIncrementTick+0x104>)
 8002b1c:	681b      	ldr	r3, [r3, #0]
 8002b1e:	42ab      	cmp	r3, r5
 8002b20:	d93e      	bls.n	8002ba0 <xTaskIncrementTick+0xcc>
BaseType_t xSwitchRequired = pdFALSE;
 8002b22:	2700      	movs	r7, #0
			if( listCURRENT_LIST_LENGTH( &( pxReadyTasksLists[ pxCurrentTCB->uxPriority ] ) ) > ( UBaseType_t ) 1 )
 8002b24:	4b2d      	ldr	r3, [pc, #180]	@ (8002bdc <xTaskIncrementTick+0x108>)
 8002b26:	681b      	ldr	r3, [r3, #0]
 8002b28:	6cdb      	ldr	r3, [r3, #76]	@ 0x4c
 8002b2a:	eb03 0383 	add.w	r3, r3, r3, lsl #2
 8002b2e:	009a      	lsls	r2, r3, #2
 8002b30:	4b2b      	ldr	r3, [pc, #172]	@ (8002be0 <xTaskIncrementTick+0x10c>)
 8002b32:	589b      	ldr	r3, [r3, r2]
 8002b34:	2b01      	cmp	r3, #1
 8002b36:	d900      	bls.n	8002b3a <xTaskIncrementTick+0x66>
				xSwitchRequired = pdTRUE;
 8002b38:	2701      	movs	r7, #1
			if( xYieldPending != pdFALSE )
 8002b3a:	4b2a      	ldr	r3, [pc, #168]	@ (8002be4 <xTaskIncrementTick+0x110>)
 8002b3c:	681b      	ldr	r3, [r3, #0]
 8002b3e:	2b00      	cmp	r3, #0
 8002b40:	d03d      	beq.n	8002bbe <xTaskIncrementTick+0xea>
				xSwitchRequired = pdTRUE;
 8002b42:	2701      	movs	r7, #1
	return xSwitchRequired;
 8002b44:	e03b      	b.n	8002bbe <xTaskIncrementTick+0xea>
							xSwitchRequired = pdTRUE;
 8002b46:	2701      	movs	r7, #1
				if( listLIST_IS_EMPTY( pxDelayedTaskList ) != pdFALSE )
 8002b48:	4b20      	ldr	r3, [pc, #128]	@ (8002bcc <xTaskIncrementTick+0xf8>)
 8002b4a:	681b      	ldr	r3, [r3, #0]
 8002b4c:	681b      	ldr	r3, [r3, #0]
 8002b4e:	b34b      	cbz	r3, 8002ba4 <xTaskIncrementTick+0xd0>
					pxTCB = listGET_OWNER_OF_HEAD_ENTRY( pxDelayedTaskList ); /*lint !e9079 void * is used as this macro is used with timers and co-routines too.  Alignment is known to be fine as the type of the pointer stored and retrieved is the same. */
 8002b50:	4b1e      	ldr	r3, [pc, #120]	@ (8002bcc <xTaskIncrementTick+0xf8>)
 8002b52:	681b      	ldr	r3, [r3, #0]
 8002b54:	68db      	ldr	r3, [r3, #12]
 8002b56:	68dc      	ldr	r4, [r3, #12]
					xItemValue = listGET_LIST_ITEM_VALUE( &( pxTCB->xStateListItem ) );
 8002b58:	6a63      	ldr	r3, [r4, #36]	@ 0x24
					if( xConstTickCount < xItemValue )
 8002b5a:	429d      	cmp	r5, r3
 8002b5c:	d327      	bcc.n	8002bae <xTaskIncrementTick+0xda>
					( void ) uxListRemove( &( pxTCB->xStateListItem ) );
 8002b5e:	f104 0624 	add.w	r6, r4, #36	@ 0x24
 8002b62:	4630      	mov	r0, r6
 8002b64:	f001 fbee 	bl	8004344 <uxListRemove>
					if( listLIST_ITEM_CONTAINER( &( pxTCB->xEventListItem ) ) != NULL )
 8002b68:	6ca3      	ldr	r3, [r4, #72]	@ 0x48
 8002b6a:	b11b      	cbz	r3, 8002b74 <xTaskIncrementTick+0xa0>
						( void ) uxListRemove( &( pxTCB->xEventListItem ) );
 8002b6c:	f104 0038 	add.w	r0, r4, #56	@ 0x38
 8002b70:	f001 fbe8 	bl	8004344 <uxListRemove>
					prvAddTaskToReadyList( pxTCB );
 8002b74:	6ce3      	ldr	r3, [r4, #76]	@ 0x4c
 8002b76:	2201      	movs	r2, #1
 8002b78:	409a      	lsls	r2, r3
 8002b7a:	491b      	ldr	r1, [pc, #108]	@ (8002be8 <xTaskIncrementTick+0x114>)
 8002b7c:	6808      	ldr	r0, [r1, #0]
 8002b7e:	4302      	orrs	r2, r0
 8002b80:	600a      	str	r2, [r1, #0]
 8002b82:	eb03 0383 	add.w	r3, r3, r3, lsl #2
 8002b86:	009a      	lsls	r2, r3, #2
 8002b88:	4631      	mov	r1, r6
 8002b8a:	4815      	ldr	r0, [pc, #84]	@ (8002be0 <xTaskIncrementTick+0x10c>)
 8002b8c:	4410      	add	r0, r2
 8002b8e:	f001 fbb5 	bl	80042fc <vListInsertEnd>
						if( pxTCB->uxPriority >= pxCurrentTCB->uxPriority )
 8002b92:	6ce2      	ldr	r2, [r4, #76]	@ 0x4c
 8002b94:	4b11      	ldr	r3, [pc, #68]	@ (8002bdc <xTaskIncrementTick+0x108>)
 8002b96:	681b      	ldr	r3, [r3, #0]
 8002b98:	6cdb      	ldr	r3, [r3, #76]	@ 0x4c
 8002b9a:	429a      	cmp	r2, r3
 8002b9c:	d2d3      	bcs.n	8002b46 <xTaskIncrementTick+0x72>
 8002b9e:	e7d3      	b.n	8002b48 <xTaskIncrementTick+0x74>
BaseType_t xSwitchRequired = pdFALSE;
 8002ba0:	2700      	movs	r7, #0
 8002ba2:	e7d1      	b.n	8002b48 <xTaskIncrementTick+0x74>
					xNextTaskUnblockTime = portMAX_DELAY; /*lint !e961 MISRA exception as the casts are only redundant for some ports. */
 8002ba4:	4b0c      	ldr	r3, [pc, #48]	@ (8002bd8 <xTaskIncrementTick+0x104>)
 8002ba6:	f04f 32ff 	mov.w	r2, #4294967295	@ 0xffffffff
 8002baa:	601a      	str	r2, [r3, #0]
					break;
 8002bac:	e7ba      	b.n	8002b24 <xTaskIncrementTick+0x50>
						xNextTaskUnblockTime = xItemValue;
 8002bae:	4a0a      	ldr	r2, [pc, #40]	@ (8002bd8 <xTaskIncrementTick+0x104>)
 8002bb0:	6013      	str	r3, [r2, #0]
						break; /*lint !e9011 Code structure here is deedmed easier to understand with multiple breaks. */
 8002bb2:	e7b7      	b.n	8002b24 <xTaskIncrementTick+0x50>
		++xPendedTicks;
 8002bb4:	4a0d      	ldr	r2, [pc, #52]	@ (8002bec <xTaskIncrementTick+0x118>)
 8002bb6:	6813      	ldr	r3, [r2, #0]
 8002bb8:	3301      	adds	r3, #1
 8002bba:	6013      	str	r3, [r2, #0]
BaseType_t xSwitchRequired = pdFALSE;
 8002bbc:	2700      	movs	r7, #0
}
 8002bbe:	4638      	mov	r0, r7
 8002bc0:	bdf8      	pop	{r3, r4, r5, r6, r7, pc}
 8002bc2:	bf00      	nop
 8002bc4:	20000040 	.word	0x20000040
 8002bc8:	20000064 	.word	0x20000064
 8002bcc:	200000b0 	.word	0x200000b0
 8002bd0:	200000ac 	.word	0x200000ac
 8002bd4:	20000050 	.word	0x20000050
 8002bd8:	20000048 	.word	0x20000048
 8002bdc:	20000168 	.word	0x20000168
 8002be0:	200000dc 	.word	0x200000dc
 8002be4:	20000054 	.word	0x20000054
 8002be8:	20000060 	.word	0x20000060
 8002bec:	20000058 	.word	0x20000058

08002bf0 <xTaskResumeAll>:
{
 8002bf0:	b538      	push	{r3, r4, r5, lr}
	configASSERT( uxSchedulerSuspended );
 8002bf2:	4b35      	ldr	r3, [pc, #212]	@ (8002cc8 <xTaskResumeAll+0xd8>)
 8002bf4:	681b      	ldr	r3, [r3, #0]
 8002bf6:	b943      	cbnz	r3, 8002c0a <xTaskResumeAll+0x1a>
 8002bf8:	f04f 0350 	mov.w	r3, #80	@ 0x50
 8002bfc:	f383 8811 	msr	BASEPRI, r3
 8002c00:	f3bf 8f6f 	isb	sy
 8002c04:	f3bf 8f4f 	dsb	sy
 8002c08:	e7fe      	b.n	8002c08 <xTaskResumeAll+0x18>
	taskENTER_CRITICAL();
 8002c0a:	f001 fc61 	bl	80044d0 <vPortEnterCritical>
		--uxSchedulerSuspended;
 8002c0e:	4b2e      	ldr	r3, [pc, #184]	@ (8002cc8 <xTaskResumeAll+0xd8>)
 8002c10:	681a      	ldr	r2, [r3, #0]
 8002c12:	3a01      	subs	r2, #1
 8002c14:	601a      	str	r2, [r3, #0]
		if( uxSchedulerSuspended == ( UBaseType_t ) pdFALSE )
 8002c16:	681b      	ldr	r3, [r3, #0]
 8002c18:	2b00      	cmp	r3, #0
 8002c1a:	d150      	bne.n	8002cbe <xTaskResumeAll+0xce>
			if( uxCurrentNumberOfTasks > ( UBaseType_t ) 0U )
 8002c1c:	4b2b      	ldr	r3, [pc, #172]	@ (8002ccc <xTaskResumeAll+0xdc>)
 8002c1e:	681b      	ldr	r3, [r3, #0]
 8002c20:	b90b      	cbnz	r3, 8002c26 <xTaskResumeAll+0x36>
BaseType_t xAlreadyYielded = pdFALSE;
 8002c22:	2400      	movs	r4, #0
 8002c24:	e04c      	b.n	8002cc0 <xTaskResumeAll+0xd0>
TCB_t *pxTCB = NULL;
 8002c26:	2400      	movs	r4, #0
				while( listLIST_IS_EMPTY( &xPendingReadyList ) == pdFALSE )
 8002c28:	4b29      	ldr	r3, [pc, #164]	@ (8002cd0 <xTaskResumeAll+0xe0>)
 8002c2a:	681b      	ldr	r3, [r3, #0]
 8002c2c:	b323      	cbz	r3, 8002c78 <xTaskResumeAll+0x88>
					pxTCB = listGET_OWNER_OF_HEAD_ENTRY( ( &xPendingReadyList ) ); /*lint !e9079 void * is used as this macro is used with timers and co-routines too.  Alignment is known to be fine as the type of the pointer stored and retrieved is the same. */
 8002c2e:	4b28      	ldr	r3, [pc, #160]	@ (8002cd0 <xTaskResumeAll+0xe0>)
 8002c30:	68db      	ldr	r3, [r3, #12]
 8002c32:	68dc      	ldr	r4, [r3, #12]
					( void ) uxListRemove( &( pxTCB->xEventListItem ) );
 8002c34:	f104 0038 	add.w	r0, r4, #56	@ 0x38
 8002c38:	f001 fb84 	bl	8004344 <uxListRemove>
					( void ) uxListRemove( &( pxTCB->xStateListItem ) );
 8002c3c:	f104 0524 	add.w	r5, r4, #36	@ 0x24
 8002c40:	4628      	mov	r0, r5
 8002c42:	f001 fb7f 	bl	8004344 <uxListRemove>
					prvAddTaskToReadyList( pxTCB );
 8002c46:	6ce0      	ldr	r0, [r4, #76]	@ 0x4c
 8002c48:	2301      	movs	r3, #1
 8002c4a:	4083      	lsls	r3, r0
 8002c4c:	4a21      	ldr	r2, [pc, #132]	@ (8002cd4 <xTaskResumeAll+0xe4>)
 8002c4e:	6811      	ldr	r1, [r2, #0]
 8002c50:	430b      	orrs	r3, r1
 8002c52:	6013      	str	r3, [r2, #0]
 8002c54:	eb00 0080 	add.w	r0, r0, r0, lsl #2
 8002c58:	4629      	mov	r1, r5
 8002c5a:	4b1f      	ldr	r3, [pc, #124]	@ (8002cd8 <xTaskResumeAll+0xe8>)
 8002c5c:	eb03 0080 	add.w	r0, r3, r0, lsl #2
 8002c60:	f001 fb4c 	bl	80042fc <vListInsertEnd>
					if( pxTCB->uxPriority >= pxCurrentTCB->uxPriority )
 8002c64:	6ce2      	ldr	r2, [r4, #76]	@ 0x4c
 8002c66:	4b1d      	ldr	r3, [pc, #116]	@ (8002cdc <xTaskResumeAll+0xec>)
 8002c68:	681b      	ldr	r3, [r3, #0]
 8002c6a:	6cdb      	ldr	r3, [r3, #76]	@ 0x4c
 8002c6c:	429a      	cmp	r2, r3
 8002c6e:	d3db      	bcc.n	8002c28 <xTaskResumeAll+0x38>
						xYieldPending = pdTRUE;
 8002c70:	4b1b      	ldr	r3, [pc, #108]	@ (8002ce0 <xTaskResumeAll+0xf0>)
 8002c72:	2201      	movs	r2, #1
 8002c74:	601a      	str	r2, [r3, #0]
 8002c76:	e7d7      	b.n	8002c28 <xTaskResumeAll+0x38>
				if( pxTCB != NULL )
 8002c78:	b10c      	cbz	r4, 8002c7e <xTaskResumeAll+0x8e>
					prvResetNextTaskUnblockTime();
 8002c7a:	f002 ffcd 	bl	8005c18 <prvResetNextTaskUnblockTime>
					TickType_t xPendedCounts = xPendedTicks; /* Non-volatile copy. */
 8002c7e:	4b19      	ldr	r3, [pc, #100]	@ (8002ce4 <xTaskResumeAll+0xf4>)
 8002c80:	681c      	ldr	r4, [r3, #0]
					if( xPendedCounts > ( TickType_t ) 0U )
 8002c82:	b984      	cbnz	r4, 8002ca6 <xTaskResumeAll+0xb6>
				if( xYieldPending != pdFALSE )
 8002c84:	4b16      	ldr	r3, [pc, #88]	@ (8002ce0 <xTaskResumeAll+0xf0>)
 8002c86:	681c      	ldr	r4, [r3, #0]
 8002c88:	b1d4      	cbz	r4, 8002cc0 <xTaskResumeAll+0xd0>
					taskYIELD_IF_USING_PREEMPTION();
 8002c8a:	f04f 23e0 	mov.w	r3, #3758153728	@ 0xe000e000
 8002c8e:	f04f 5280 	mov.w	r2, #268435456	@ 0x10000000
 8002c92:	f8c3 2d04 	str.w	r2, [r3, #3332]	@ 0xd04
 8002c96:	f3bf 8f4f 	dsb	sy
 8002c9a:	f3bf 8f6f 	isb	sy
						xAlreadyYielded = pdTRUE;
 8002c9e:	2401      	movs	r4, #1
 8002ca0:	e00e      	b.n	8002cc0 <xTaskResumeAll+0xd0>
						} while( xPendedCounts > ( TickType_t ) 0U );
 8002ca2:	3c01      	subs	r4, #1
 8002ca4:	d007      	beq.n	8002cb6 <xTaskResumeAll+0xc6>
							if( xTaskIncrementTick() != pdFALSE )
 8002ca6:	f7ff ff15 	bl	8002ad4 <xTaskIncrementTick>
 8002caa:	2800      	cmp	r0, #0
 8002cac:	d0f9      	beq.n	8002ca2 <xTaskResumeAll+0xb2>
								xYieldPending = pdTRUE;
 8002cae:	4b0c      	ldr	r3, [pc, #48]	@ (8002ce0 <xTaskResumeAll+0xf0>)
 8002cb0:	2201      	movs	r2, #1
 8002cb2:	601a      	str	r2, [r3, #0]
 8002cb4:	e7f5      	b.n	8002ca2 <xTaskResumeAll+0xb2>
						xPendedTicks = 0;
 8002cb6:	4b0b      	ldr	r3, [pc, #44]	@ (8002ce4 <xTaskResumeAll+0xf4>)
 8002cb8:	2200      	movs	r2, #0
 8002cba:	601a      	str	r2, [r3, #0]
 8002cbc:	e7e2      	b.n	8002c84 <xTaskResumeAll+0x94>
BaseType_t xAlreadyYielded = pdFALSE;
 8002cbe:	2400      	movs	r4, #0
	taskEXIT_CRITICAL();
 8002cc0:	f001 fc1a 	bl	80044f8 <vPortExitCritical>
}
 8002cc4:	4620      	mov	r0, r4
 8002cc6:	bd38      	pop	{r3, r4, r5, pc}
 8002cc8:	20000040 	.word	0x20000040
 8002ccc:	20000068 	.word	0x20000068
 8002cd0:	20000098 	.word	0x20000098
 8002cd4:	20000060 	.word	0x20000060
 8002cd8:	200000dc 	.word	0x200000dc
 8002cdc:	20000168 	.word	0x20000168
 8002ce0:	20000054 	.word	0x20000054
 8002ce4:	20000058 	.word	0x20000058

08002ce8 <vTaskDelay>:
	{
 8002ce8:	b510      	push	{r4, lr}
		if( xTicksToDelay > ( TickType_t ) 0U )
 8002cea:	b1a8      	cbz	r0, 8002d18 <vTaskDelay+0x30>
 8002cec:	4604      	mov	r4, r0
			configASSERT( uxSchedulerSuspended == 0 );
 8002cee:	4b10      	ldr	r3, [pc, #64]	@ (8002d30 <vTaskDelay+0x48>)
 8002cf0:	681b      	ldr	r3, [r3, #0]
 8002cf2:	b143      	cbz	r3, 8002d06 <vTaskDelay+0x1e>
 8002cf4:	f04f 0350 	mov.w	r3, #80	@ 0x50
 8002cf8:	f383 8811 	msr	BASEPRI, r3
 8002cfc:	f3bf 8f6f 	isb	sy
 8002d00:	f3bf 8f4f 	dsb	sy
 8002d04:	e7fe      	b.n	8002d04 <vTaskDelay+0x1c>
			vTaskSuspendAll();
 8002d06:	f7ff fc7d 	bl	8002604 <vTaskSuspendAll>
				prvAddCurrentTaskToDelayedList( xTicksToDelay, pdFALSE );
 8002d0a:	2100      	movs	r1, #0
 8002d0c:	4620      	mov	r0, r4
 8002d0e:	f7ff f8ff 	bl	8001f10 <prvAddCurrentTaskToDelayedList>
			xAlreadyYielded = xTaskResumeAll();
 8002d12:	f7ff ff6d 	bl	8002bf0 <xTaskResumeAll>
		if( xAlreadyYielded == pdFALSE )
 8002d16:	b948      	cbnz	r0, 8002d2c <vTaskDelay+0x44>
			portYIELD_WITHIN_API();
 8002d18:	f04f 23e0 	mov.w	r3, #3758153728	@ 0xe000e000
 8002d1c:	f04f 5280 	mov.w	r2, #268435456	@ 0x10000000
 8002d20:	f8c3 2d04 	str.w	r2, [r3, #3332]	@ 0xd04
 8002d24:	f3bf 8f4f 	dsb	sy
 8002d28:	f3bf 8f6f 	isb	sy
	}
 8002d2c:	bd10      	pop	{r4, pc}
 8002d2e:	bf00      	nop
 8002d30:	20000040 	.word	0x20000040

08002d34 <vTaskDelayUntil>:
	{
 8002d34:	b538      	push	{r3, r4, r5, lr}
		configASSERT( pxPreviousWakeTime );
 8002d36:	b158      	cbz	r0, 8002d50 <vTaskDelayUntil+0x1c>
 8002d38:	460c      	mov	r4, r1
 8002d3a:	4605      	mov	r5, r0
		configASSERT( ( xTimeIncrement > 0U ) );
 8002d3c:	b989      	cbnz	r1, 8002d62 <vTaskDelayUntil+0x2e>
 8002d3e:	f04f 0350 	mov.w	r3, #80	@ 0x50
 8002d42:	f383 8811 	msr	BASEPRI, r3
 8002d46:	f3bf 8f6f 	isb	sy
 8002d4a:	f3bf 8f4f 	dsb	sy
 8002d4e:	e7fe      	b.n	8002d4e <vTaskDelayUntil+0x1a>
 8002d50:	f04f 0350 	mov.w	r3, #80	@ 0x50
 8002d54:	f383 8811 	msr	BASEPRI, r3
 8002d58:	f3bf 8f6f 	isb	sy
 8002d5c:	f3bf 8f4f 	dsb	sy
		configASSERT( pxPreviousWakeTime );
 8002d60:	e7fe      	b.n	8002d60 <vTaskDelayUntil+0x2c>
		configASSERT( uxSchedulerSuspended == 0 );
 8002d62:	4b1b      	ldr	r3, [pc, #108]	@ (8002dd0 <vTaskDelayUntil+0x9c>)
 8002d64:	681b      	ldr	r3, [r3, #0]
 8002d66:	b143      	cbz	r3, 8002d7a <vTaskDelayUntil+0x46>
 8002d68:	f04f 0350 	mov.w	r3, #80	@ 0x50
 8002d6c:	f383 8811 	msr	BASEPRI, r3
 8002d70:	f3bf 8f6f 	isb	sy
 8002d74:	f3bf 8f4f 	dsb	sy
 8002d78:	e7fe      	b.n	8002d78 <vTaskDelayUntil+0x44>
		vTaskSuspendAll();
 8002d7a:	f7ff fc43 	bl	8002604 <vTaskSuspendAll>
			const TickType_t xConstTickCount = xTickCount;
 8002d7e:	4b15      	ldr	r3, [pc, #84]	@ (8002dd4 <vTaskDelayUntil+0xa0>)
 8002d80:	6818      	ldr	r0, [r3, #0]
			xTimeToWake = *pxPreviousWakeTime + xTimeIncrement;
 8002d82:	682b      	ldr	r3, [r5, #0]
 8002d84:	441c      	add	r4, r3
			if( xConstTickCount < *pxPreviousWakeTime )
 8002d86:	4283      	cmp	r3, r0
 8002d88:	d909      	bls.n	8002d9e <vTaskDelayUntil+0x6a>
				if( ( xTimeToWake < *pxPreviousWakeTime ) && ( xTimeToWake > xConstTickCount ) )
 8002d8a:	42a3      	cmp	r3, r4
 8002d8c:	d801      	bhi.n	8002d92 <vTaskDelayUntil+0x5e>
			*pxPreviousWakeTime = xTimeToWake;
 8002d8e:	602c      	str	r4, [r5, #0]
			if( xShouldDelay != pdFALSE )
 8002d90:	e00e      	b.n	8002db0 <vTaskDelayUntil+0x7c>
				if( ( xTimeToWake < *pxPreviousWakeTime ) && ( xTimeToWake > xConstTickCount ) )
 8002d92:	42a0      	cmp	r0, r4
 8002d94:	d301      	bcc.n	8002d9a <vTaskDelayUntil+0x66>
			*pxPreviousWakeTime = xTimeToWake;
 8002d96:	602c      	str	r4, [r5, #0]
			if( xShouldDelay != pdFALSE )
 8002d98:	e00a      	b.n	8002db0 <vTaskDelayUntil+0x7c>
			*pxPreviousWakeTime = xTimeToWake;
 8002d9a:	602c      	str	r4, [r5, #0]
			if( xShouldDelay != pdFALSE )
 8002d9c:	e004      	b.n	8002da8 <vTaskDelayUntil+0x74>
				if( ( xTimeToWake < *pxPreviousWakeTime ) || ( xTimeToWake > xConstTickCount ) )
 8002d9e:	42a3      	cmp	r3, r4
 8002da0:	d801      	bhi.n	8002da6 <vTaskDelayUntil+0x72>
 8002da2:	42a0      	cmp	r0, r4
 8002da4:	d212      	bcs.n	8002dcc <vTaskDelayUntil+0x98>
			*pxPreviousWakeTime = xTimeToWake;
 8002da6:	602c      	str	r4, [r5, #0]
				prvAddCurrentTaskToDelayedList( xTimeToWake - xConstTickCount, pdFALSE );
 8002da8:	2100      	movs	r1, #0
 8002daa:	1a20      	subs	r0, r4, r0
 8002dac:	f7ff f8b0 	bl	8001f10 <prvAddCurrentTaskToDelayedList>
		xAlreadyYielded = xTaskResumeAll();
 8002db0:	f7ff ff1e 	bl	8002bf0 <xTaskResumeAll>
		if( xAlreadyYielded == pdFALSE )
 8002db4:	b948      	cbnz	r0, 8002dca <vTaskDelayUntil+0x96>
			portYIELD_WITHIN_API();
 8002db6:	f04f 23e0 	mov.w	r3, #3758153728	@ 0xe000e000
 8002dba:	f04f 5280 	mov.w	r2, #268435456	@ 0x10000000
 8002dbe:	f8c3 2d04 	str.w	r2, [r3, #3332]	@ 0xd04
 8002dc2:	f3bf 8f4f 	dsb	sy
 8002dc6:	f3bf 8f6f 	isb	sy
	}
 8002dca:	bd38      	pop	{r3, r4, r5, pc}
			*pxPreviousWakeTime = xTimeToWake;
 8002dcc:	602c      	str	r4, [r5, #0]
			if( xShouldDelay != pdFALSE )
 8002dce:	e7ef      	b.n	8002db0 <vTaskDelayUntil+0x7c>
 8002dd0:	20000040 	.word	0x20000040
 8002dd4:	20000064 	.word	0x20000064

08002dd8 <vTaskPlaceOnEventList>:
	configASSERT( pxEventList );
 8002dd8:	b158      	cbz	r0, 8002df2 <vTaskPlaceOnEventList+0x1a>
{
 8002dda:	b510      	push	{r4, lr}
 8002ddc:	460c      	mov	r4, r1
	vListInsert( pxEventList, &( pxCurrentTCB->xEventListItem ) );
 8002dde:	4a09      	ldr	r2, [pc, #36]	@ (8002e04 <vTaskPlaceOnEventList+0x2c>)
 8002de0:	6811      	ldr	r1, [r2, #0]
 8002de2:	3138      	adds	r1, #56	@ 0x38
 8002de4:	f001 fa95 	bl	8004312 <vListInsert>
	prvAddCurrentTaskToDelayedList( xTicksToWait, pdTRUE );
 8002de8:	2101      	movs	r1, #1
 8002dea:	4620      	mov	r0, r4
 8002dec:	f7ff f890 	bl	8001f10 <prvAddCurrentTaskToDelayedList>
}
 8002df0:	bd10      	pop	{r4, pc}
 8002df2:	f04f 0350 	mov.w	r3, #80	@ 0x50
 8002df6:	f383 8811 	msr	BASEPRI, r3
 8002dfa:	f3bf 8f6f 	isb	sy
 8002dfe:	f3bf 8f4f 	dsb	sy
	configASSERT( pxEventList );
 8002e02:	e7fe      	b.n	8002e02 <vTaskPlaceOnEventList+0x2a>
 8002e04:	20000168 	.word	0x20000168

08002e08 <vTaskPlaceOnUnorderedEventList>:
	configASSERT( pxEventList );
 8002e08:	b170      	cbz	r0, 8002e28 <vTaskPlaceOnUnorderedEventList+0x20>
{
 8002e0a:	b510      	push	{r4, lr}
 8002e0c:	4614      	mov	r4, r2
 8002e0e:	4602      	mov	r2, r0
	configASSERT( uxSchedulerSuspended != 0 );
 8002e10:	4b11      	ldr	r3, [pc, #68]	@ (8002e58 <vTaskPlaceOnUnorderedEventList+0x50>)
 8002e12:	681b      	ldr	r3, [r3, #0]
 8002e14:	b98b      	cbnz	r3, 8002e3a <vTaskPlaceOnUnorderedEventList+0x32>
 8002e16:	f04f 0350 	mov.w	r3, #80	@ 0x50
 8002e1a:	f383 8811 	msr	BASEPRI, r3
 8002e1e:	f3bf 8f6f 	isb	sy
 8002e22:	f3bf 8f4f 	dsb	sy
 8002e26:	e7fe      	b.n	8002e26 <vTaskPlaceOnUnorderedEventList+0x1e>
 8002e28:	f04f 0350 	mov.w	r3, #80	@ 0x50
 8002e2c:	f383 8811 	msr	BASEPRI, r3
 8002e30:	f3bf 8f6f 	isb	sy
 8002e34:	f3bf 8f4f 	dsb	sy
	configASSERT( pxEventList );
 8002e38:	e7fe      	b.n	8002e38 <vTaskPlaceOnUnorderedEventList+0x30>
	listSET_LIST_ITEM_VALUE( &( pxCurrentTCB->xEventListItem ), xItemValue | taskEVENT_LIST_ITEM_VALUE_IN_USE );
 8002e3a:	4b08      	ldr	r3, [pc, #32]	@ (8002e5c <vTaskPlaceOnUnorderedEventList+0x54>)
 8002e3c:	6818      	ldr	r0, [r3, #0]
 8002e3e:	f041 4100 	orr.w	r1, r1, #2147483648	@ 0x80000000
 8002e42:	6381      	str	r1, [r0, #56]	@ 0x38
	vListInsertEnd( pxEventList, &( pxCurrentTCB->xEventListItem ) );
 8002e44:	6819      	ldr	r1, [r3, #0]
 8002e46:	3138      	adds	r1, #56	@ 0x38
 8002e48:	4610      	mov	r0, r2
 8002e4a:	f001 fa57 	bl	80042fc <vListInsertEnd>
	prvAddCurrentTaskToDelayedList( xTicksToWait, pdTRUE );
 8002e4e:	2101      	movs	r1, #1
 8002e50:	4620      	mov	r0, r4
 8002e52:	f7ff f85d 	bl	8001f10 <prvAddCurrentTaskToDelayedList>
}
 8002e56:	bd10      	pop	{r4, pc}
 8002e58:	20000040 	.word	0x20000040
 8002e5c:	20000168 	.word	0x20000168

08002e60 <xTaskRemoveFromEventList>:
{
 8002e60:	b538      	push	{r3, r4, r5, lr}
	pxUnblockedTCB = listGET_OWNER_OF_HEAD_ENTRY( pxEventList ); /*lint !e9079 void * is used as this macro is used with timers and co-routines too.  Alignment is known to be fine as the type of the pointer stored and retrieved is the same. */
 8002e62:	68c3      	ldr	r3, [r0, #12]
 8002e64:	68dc      	ldr	r4, [r3, #12]
	configASSERT( pxUnblockedTCB );
 8002e66:	b32c      	cbz	r4, 8002eb4 <xTaskRemoveFromEventList+0x54>
	( void ) uxListRemove( &( pxUnblockedTCB->xEventListItem ) );
 8002e68:	f104 0538 	add.w	r5, r4, #56	@ 0x38
 8002e6c:	4628      	mov	r0, r5
 8002e6e:	f001 fa69 	bl	8004344 <uxListRemove>
	if( uxSchedulerSuspended == ( UBaseType_t ) pdFALSE )
 8002e72:	4b18      	ldr	r3, [pc, #96]	@ (8002ed4 <xTaskRemoveFromEventList+0x74>)
 8002e74:	681b      	ldr	r3, [r3, #0]
 8002e76:	bb33      	cbnz	r3, 8002ec6 <xTaskRemoveFromEventList+0x66>
		( void ) uxListRemove( &( pxUnblockedTCB->xStateListItem ) );
 8002e78:	f104 0524 	add.w	r5, r4, #36	@ 0x24
 8002e7c:	4628      	mov	r0, r5
 8002e7e:	f001 fa61 	bl	8004344 <uxListRemove>
		prvAddTaskToReadyList( pxUnblockedTCB );
 8002e82:	6ce0      	ldr	r0, [r4, #76]	@ 0x4c
 8002e84:	2301      	movs	r3, #1
 8002e86:	4083      	lsls	r3, r0
 8002e88:	4a13      	ldr	r2, [pc, #76]	@ (8002ed8 <xTaskRemoveFromEventList+0x78>)
 8002e8a:	6811      	ldr	r1, [r2, #0]
 8002e8c:	430b      	orrs	r3, r1
 8002e8e:	6013      	str	r3, [r2, #0]
 8002e90:	eb00 0080 	add.w	r0, r0, r0, lsl #2
 8002e94:	4629      	mov	r1, r5
 8002e96:	4b11      	ldr	r3, [pc, #68]	@ (8002edc <xTaskRemoveFromEventList+0x7c>)
 8002e98:	eb03 0080 	add.w	r0, r3, r0, lsl #2
 8002e9c:	f001 fa2e 	bl	80042fc <vListInsertEnd>
	if( pxUnblockedTCB->uxPriority > pxCurrentTCB->uxPriority )
 8002ea0:	6ce2      	ldr	r2, [r4, #76]	@ 0x4c
 8002ea2:	4b0f      	ldr	r3, [pc, #60]	@ (8002ee0 <xTaskRemoveFromEventList+0x80>)
 8002ea4:	681b      	ldr	r3, [r3, #0]
 8002ea6:	6cdb      	ldr	r3, [r3, #76]	@ 0x4c
 8002ea8:	429a      	cmp	r2, r3
 8002eaa:	d911      	bls.n	8002ed0 <xTaskRemoveFromEventList+0x70>
		xYieldPending = pdTRUE;
 8002eac:	2001      	movs	r0, #1
 8002eae:	4b0d      	ldr	r3, [pc, #52]	@ (8002ee4 <xTaskRemoveFromEventList+0x84>)
 8002eb0:	6018      	str	r0, [r3, #0]
}
 8002eb2:	bd38      	pop	{r3, r4, r5, pc}
 8002eb4:	f04f 0350 	mov.w	r3, #80	@ 0x50
 8002eb8:	f383 8811 	msr	BASEPRI, r3
 8002ebc:	f3bf 8f6f 	isb	sy
 8002ec0:	f3bf 8f4f 	dsb	sy
	configASSERT( pxUnblockedTCB );
 8002ec4:	e7fe      	b.n	8002ec4 <xTaskRemoveFromEventList+0x64>
		vListInsertEnd( &( xPendingReadyList ), &( pxUnblockedTCB->xEventListItem ) );
 8002ec6:	4629      	mov	r1, r5
 8002ec8:	4807      	ldr	r0, [pc, #28]	@ (8002ee8 <xTaskRemoveFromEventList+0x88>)
 8002eca:	f001 fa17 	bl	80042fc <vListInsertEnd>
 8002ece:	e7e7      	b.n	8002ea0 <xTaskRemoveFromEventList+0x40>
		xReturn = pdFALSE;
 8002ed0:	2000      	movs	r0, #0
	return xReturn;
 8002ed2:	e7ee      	b.n	8002eb2 <xTaskRemoveFromEventList+0x52>
 8002ed4:	20000040 	.word	0x20000040
 8002ed8:	20000060 	.word	0x20000060
 8002edc:	200000dc 	.word	0x200000dc
 8002ee0:	20000168 	.word	0x20000168
 8002ee4:	20000054 	.word	0x20000054
 8002ee8:	20000098 	.word	0x20000098

08002eec <vTaskRemoveFromUnorderedEventList>:
{
 8002eec:	b538      	push	{r3, r4, r5, lr}
	configASSERT( uxSchedulerSuspended != pdFALSE );
 8002eee:	4b1d      	ldr	r3, [pc, #116]	@ (8002f64 <vTaskRemoveFromUnorderedEventList+0x78>)
 8002ef0:	681b      	ldr	r3, [r3, #0]
 8002ef2:	b943      	cbnz	r3, 8002f06 <vTaskRemoveFromUnorderedEventList+0x1a>
 8002ef4:	f04f 0350 	mov.w	r3, #80	@ 0x50
 8002ef8:	f383 8811 	msr	BASEPRI, r3
 8002efc:	f3bf 8f6f 	isb	sy
 8002f00:	f3bf 8f4f 	dsb	sy
 8002f04:	e7fe      	b.n	8002f04 <vTaskRemoveFromUnorderedEventList+0x18>
	listSET_LIST_ITEM_VALUE( pxEventListItem, xItemValue | taskEVENT_LIST_ITEM_VALUE_IN_USE );
 8002f06:	f041 4100 	orr.w	r1, r1, #2147483648	@ 0x80000000
 8002f0a:	6001      	str	r1, [r0, #0]
	pxUnblockedTCB = listGET_LIST_ITEM_OWNER( pxEventListItem ); /*lint !e9079 void * is used as this macro is used with timers and co-routines too.  Alignment is known to be fine as the type of the pointer stored and retrieved is the same. */
 8002f0c:	68c4      	ldr	r4, [r0, #12]
	configASSERT( pxUnblockedTCB );
 8002f0e:	b1fc      	cbz	r4, 8002f50 <vTaskRemoveFromUnorderedEventList+0x64>
	( void ) uxListRemove( pxEventListItem );
 8002f10:	f001 fa18 	bl	8004344 <uxListRemove>
	( void ) uxListRemove( &( pxUnblockedTCB->xStateListItem ) );
 8002f14:	f104 0524 	add.w	r5, r4, #36	@ 0x24
 8002f18:	4628      	mov	r0, r5
 8002f1a:	f001 fa13 	bl	8004344 <uxListRemove>
	prvAddTaskToReadyList( pxUnblockedTCB );
 8002f1e:	6ce0      	ldr	r0, [r4, #76]	@ 0x4c
 8002f20:	2301      	movs	r3, #1
 8002f22:	4083      	lsls	r3, r0
 8002f24:	4a10      	ldr	r2, [pc, #64]	@ (8002f68 <vTaskRemoveFromUnorderedEventList+0x7c>)
 8002f26:	6811      	ldr	r1, [r2, #0]
 8002f28:	430b      	orrs	r3, r1
 8002f2a:	6013      	str	r3, [r2, #0]
 8002f2c:	eb00 0080 	add.w	r0, r0, r0, lsl #2
 8002f30:	4629      	mov	r1, r5
 8002f32:	4b0e      	ldr	r3, [pc, #56]	@ (8002f6c <vTaskRemoveFromUnorderedEventList+0x80>)
 8002f34:	eb03 0080 	add.w	r0, r3, r0, lsl #2
 8002f38:	f001 f9e0 	bl	80042fc <vListInsertEnd>
	if( pxUnblockedTCB->uxPriority > pxCurrentTCB->uxPriority )
 8002f3c:	6ce2      	ldr	r2, [r4, #76]	@ 0x4c
 8002f3e:	4b0c      	ldr	r3, [pc, #48]	@ (8002f70 <vTaskRemoveFromUnorderedEventList+0x84>)
 8002f40:	681b      	ldr	r3, [r3, #0]
 8002f42:	6cdb      	ldr	r3, [r3, #76]	@ 0x4c
 8002f44:	429a      	cmp	r2, r3
 8002f46:	d902      	bls.n	8002f4e <vTaskRemoveFromUnorderedEventList+0x62>
		xYieldPending = pdTRUE;
 8002f48:	4b0a      	ldr	r3, [pc, #40]	@ (8002f74 <vTaskRemoveFromUnorderedEventList+0x88>)
 8002f4a:	2201      	movs	r2, #1
 8002f4c:	601a      	str	r2, [r3, #0]
}
 8002f4e:	bd38      	pop	{r3, r4, r5, pc}
 8002f50:	f04f 0350 	mov.w	r3, #80	@ 0x50
 8002f54:	f383 8811 	msr	BASEPRI, r3
 8002f58:	f3bf 8f6f 	isb	sy
 8002f5c:	f3bf 8f4f 	dsb	sy
	configASSERT( pxUnblockedTCB );
 8002f60:	e7fe      	b.n	8002f60 <vTaskRemoveFromUnorderedEventList+0x74>
 8002f62:	bf00      	nop
 8002f64:	20000040 	.word	0x20000040
 8002f68:	20000060 	.word	0x20000060
 8002f6c:	200000dc 	.word	0x200000dc
 8002f70:	20000168 	.word	0x20000168
 8002f74:	20000054 	.word	0x20000054

08002f78 <vTaskSwitchContext>:
	if( uxSchedulerSuspended != ( UBaseType_t ) pdFALSE )
 8002f78:	4b20      	ldr	r3, [pc, #128]	@ (8002ffc <vTaskSwitchContext+0x84>)
 8002f7a:	681b      	ldr	r3, [r3, #0]
 8002f7c:	b11b      	cbz	r3, 8002f86 <vTaskSwitchContext+0xe>
		xYieldPending = pdTRUE;
 8002f7e:	4b20      	ldr	r3, [pc, #128]	@ (8003000 <vTaskSwitchContext+0x88>)
 8002f80:	2201      	movs	r2, #1
 8002f82:	601a      	str	r2, [r3, #0]
 8002f84:	4770      	bx	lr
		xYieldPending = pdFALSE;
 8002f86:	4b1e      	ldr	r3, [pc, #120]	@ (8003000 <vTaskSwitchContext+0x88>)
 8002f88:	2200      	movs	r2, #0
 8002f8a:	601a      	str	r2, [r3, #0]
		taskSELECT_HIGHEST_PRIORITY_TASK(); /*lint !e9079 void * is used as this macro is used with timers and co-routines too.  Alignment is known to be fine as the type of the pointer stored and retrieved is the same. */
 8002f8c:	4b1d      	ldr	r3, [pc, #116]	@ (8003004 <vTaskSwitchContext+0x8c>)
 8002f8e:	681b      	ldr	r3, [r3, #0]
		__asm volatile ( "clz %0, %1" : "=r" ( ucReturn ) : "r" ( ulBitmap ) : "memory" );
 8002f90:	fab3 f383 	clz	r3, r3
 8002f94:	b2db      	uxtb	r3, r3
 8002f96:	f1c3 031f 	rsb	r3, r3, #31
 8002f9a:	eb03 0183 	add.w	r1, r3, r3, lsl #2
 8002f9e:	008a      	lsls	r2, r1, #2
 8002fa0:	4919      	ldr	r1, [pc, #100]	@ (8003008 <vTaskSwitchContext+0x90>)
 8002fa2:	588a      	ldr	r2, [r1, r2]
 8002fa4:	b942      	cbnz	r2, 8002fb8 <vTaskSwitchContext+0x40>
	__asm volatile
 8002fa6:	f04f 0350 	mov.w	r3, #80	@ 0x50
 8002faa:	f383 8811 	msr	BASEPRI, r3
 8002fae:	f3bf 8f6f 	isb	sy
 8002fb2:	f3bf 8f4f 	dsb	sy
 8002fb6:	e7fe      	b.n	8002fb6 <vTaskSwitchContext+0x3e>
 8002fb8:	4813      	ldr	r0, [pc, #76]	@ (8003008 <vTaskSwitchContext+0x90>)
 8002fba:	eb03 0183 	add.w	r1, r3, r3, lsl #2
 8002fbe:	008a      	lsls	r2, r1, #2
 8002fc0:	4402      	add	r2, r0
 8002fc2:	6851      	ldr	r1, [r2, #4]
 8002fc4:	6849      	ldr	r1, [r1, #4]
 8002fc6:	6051      	str	r1, [r2, #4]
 8002fc8:	eb03 0c83 	add.w	ip, r3, r3, lsl #2
 8002fcc:	ea4f 028c 	mov.w	r2, ip, lsl #2
 8002fd0:	3208      	adds	r2, #8
 8002fd2:	4402      	add	r2, r0
 8002fd4:	4291      	cmp	r1, r2
 8002fd6:	d009      	beq.n	8002fec <vTaskSwitchContext+0x74>
 8002fd8:	eb03 0383 	add.w	r3, r3, r3, lsl #2
 8002fdc:	009a      	lsls	r2, r3, #2
 8002fde:	4b0a      	ldr	r3, [pc, #40]	@ (8003008 <vTaskSwitchContext+0x90>)
 8002fe0:	4413      	add	r3, r2
 8002fe2:	685b      	ldr	r3, [r3, #4]
 8002fe4:	68da      	ldr	r2, [r3, #12]
 8002fe6:	4b09      	ldr	r3, [pc, #36]	@ (800300c <vTaskSwitchContext+0x94>)
 8002fe8:	601a      	str	r2, [r3, #0]
}
 8002fea:	4770      	bx	lr
		taskSELECT_HIGHEST_PRIORITY_TASK(); /*lint !e9079 void * is used as this macro is used with timers and co-routines too.  Alignment is known to be fine as the type of the pointer stored and retrieved is the same. */
 8002fec:	6848      	ldr	r0, [r1, #4]
 8002fee:	4662      	mov	r2, ip
 8002ff0:	0091      	lsls	r1, r2, #2
 8002ff2:	4a05      	ldr	r2, [pc, #20]	@ (8003008 <vTaskSwitchContext+0x90>)
 8002ff4:	440a      	add	r2, r1
 8002ff6:	6050      	str	r0, [r2, #4]
 8002ff8:	e7ee      	b.n	8002fd8 <vTaskSwitchContext+0x60>
 8002ffa:	bf00      	nop
 8002ffc:	20000040 	.word	0x20000040
 8003000:	20000054 	.word	0x20000054
 8003004:	20000060 	.word	0x20000060
 8003008:	200000dc 	.word	0x200000dc
 800300c:	20000168 	.word	0x20000168

08003010 <vTaskSuspend>:
	{
 8003010:	b538      	push	{r3, r4, r5, lr}
 8003012:	4604      	mov	r4, r0
		taskENTER_CRITICAL();
 8003014:	f001 fa5c 	bl	80044d0 <vPortEnterCritical>
			pxTCB = prvGetTCBFromHandle( xTaskToSuspend );
 8003018:	b36c      	cbz	r4, 8003076 <vTaskSuspend+0x66>
			if( uxListRemove( &( pxTCB->xStateListItem ) ) == ( UBaseType_t ) 0 )
 800301a:	f104 0524 	add.w	r5, r4, #36	@ 0x24
 800301e:	4628      	mov	r0, r5
 8003020:	f001 f990 	bl	8004344 <uxListRemove>
 8003024:	b970      	cbnz	r0, 8003044 <vTaskSuspend+0x34>
				taskRESET_READY_PRIORITY( pxTCB->uxPriority );
 8003026:	6ce2      	ldr	r2, [r4, #76]	@ 0x4c
 8003028:	eb02 0382 	add.w	r3, r2, r2, lsl #2
 800302c:	009b      	lsls	r3, r3, #2
 800302e:	492c      	ldr	r1, [pc, #176]	@ (80030e0 <vTaskSuspend+0xd0>)
 8003030:	58cb      	ldr	r3, [r1, r3]
 8003032:	b93b      	cbnz	r3, 8003044 <vTaskSuspend+0x34>
 8003034:	2301      	movs	r3, #1
 8003036:	fa03 f202 	lsl.w	r2, r3, r2
 800303a:	492a      	ldr	r1, [pc, #168]	@ (80030e4 <vTaskSuspend+0xd4>)
 800303c:	680b      	ldr	r3, [r1, #0]
 800303e:	ea23 0302 	bic.w	r3, r3, r2
 8003042:	600b      	str	r3, [r1, #0]
			if( listLIST_ITEM_CONTAINER( &( pxTCB->xEventListItem ) ) != NULL )
 8003044:	6ca3      	ldr	r3, [r4, #72]	@ 0x48
 8003046:	b11b      	cbz	r3, 8003050 <vTaskSuspend+0x40>
				( void ) uxListRemove( &( pxTCB->xEventListItem ) );
 8003048:	f104 0038 	add.w	r0, r4, #56	@ 0x38
 800304c:	f001 f97a 	bl	8004344 <uxListRemove>
			vListInsertEnd( &xSuspendedTaskList, &( pxTCB->xStateListItem ) );
 8003050:	4629      	mov	r1, r5
 8003052:	4825      	ldr	r0, [pc, #148]	@ (80030e8 <vTaskSuspend+0xd8>)
 8003054:	f001 f952 	bl	80042fc <vListInsertEnd>
				if( pxTCB->ucNotifyState == taskWAITING_NOTIFICATION )
 8003058:	f894 3070 	ldrb.w	r3, [r4, #112]	@ 0x70
 800305c:	b2db      	uxtb	r3, r3
 800305e:	2b01      	cmp	r3, #1
 8003060:	d00c      	beq.n	800307c <vTaskSuspend+0x6c>
		taskEXIT_CRITICAL();
 8003062:	f001 fa49 	bl	80044f8 <vPortExitCritical>
		if( xSchedulerRunning != pdFALSE )
 8003066:	4b21      	ldr	r3, [pc, #132]	@ (80030ec <vTaskSuspend+0xdc>)
 8003068:	681b      	ldr	r3, [r3, #0]
 800306a:	b95b      	cbnz	r3, 8003084 <vTaskSuspend+0x74>
		if( pxTCB == pxCurrentTCB )
 800306c:	4b20      	ldr	r3, [pc, #128]	@ (80030f0 <vTaskSuspend+0xe0>)
 800306e:	681b      	ldr	r3, [r3, #0]
 8003070:	42a3      	cmp	r3, r4
 8003072:	d00e      	beq.n	8003092 <vTaskSuspend+0x82>
	}
 8003074:	bd38      	pop	{r3, r4, r5, pc}
			pxTCB = prvGetTCBFromHandle( xTaskToSuspend );
 8003076:	4b1e      	ldr	r3, [pc, #120]	@ (80030f0 <vTaskSuspend+0xe0>)
 8003078:	681c      	ldr	r4, [r3, #0]
 800307a:	e7ce      	b.n	800301a <vTaskSuspend+0xa>
					pxTCB->ucNotifyState = taskNOT_WAITING_NOTIFICATION;
 800307c:	2300      	movs	r3, #0
 800307e:	f884 3070 	strb.w	r3, [r4, #112]	@ 0x70
 8003082:	e7ee      	b.n	8003062 <vTaskSuspend+0x52>
			taskENTER_CRITICAL();
 8003084:	f001 fa24 	bl	80044d0 <vPortEnterCritical>
				prvResetNextTaskUnblockTime();
 8003088:	f002 fdc6 	bl	8005c18 <prvResetNextTaskUnblockTime>
			taskEXIT_CRITICAL();
 800308c:	f001 fa34 	bl	80044f8 <vPortExitCritical>
 8003090:	e7ec      	b.n	800306c <vTaskSuspend+0x5c>
			if( xSchedulerRunning != pdFALSE )
 8003092:	4b16      	ldr	r3, [pc, #88]	@ (80030ec <vTaskSuspend+0xdc>)
 8003094:	681b      	ldr	r3, [r3, #0]
 8003096:	b1b3      	cbz	r3, 80030c6 <vTaskSuspend+0xb6>
				configASSERT( uxSchedulerSuspended == 0 );
 8003098:	4b16      	ldr	r3, [pc, #88]	@ (80030f4 <vTaskSuspend+0xe4>)
 800309a:	681b      	ldr	r3, [r3, #0]
 800309c:	b143      	cbz	r3, 80030b0 <vTaskSuspend+0xa0>
 800309e:	f04f 0350 	mov.w	r3, #80	@ 0x50
 80030a2:	f383 8811 	msr	BASEPRI, r3
 80030a6:	f3bf 8f6f 	isb	sy
 80030aa:	f3bf 8f4f 	dsb	sy
 80030ae:	e7fe      	b.n	80030ae <vTaskSuspend+0x9e>
				portYIELD_WITHIN_API();
 80030b0:	f04f 23e0 	mov.w	r3, #3758153728	@ 0xe000e000
 80030b4:	f04f 5280 	mov.w	r2, #268435456	@ 0x10000000
 80030b8:	f8c3 2d04 	str.w	r2, [r3, #3332]	@ 0xd04
 80030bc:	f3bf 8f4f 	dsb	sy
 80030c0:	f3bf 8f6f 	isb	sy
 80030c4:	e7d6      	b.n	8003074 <vTaskSuspend+0x64>
				if( listCURRENT_LIST_LENGTH( &xSuspendedTaskList ) == uxCurrentNumberOfTasks ) /*lint !e931 Right has no side effect, just volatile. */
 80030c6:	4b08      	ldr	r3, [pc, #32]	@ (80030e8 <vTaskSuspend+0xd8>)
 80030c8:	681a      	ldr	r2, [r3, #0]
 80030ca:	4b0b      	ldr	r3, [pc, #44]	@ (80030f8 <vTaskSuspend+0xe8>)
 80030cc:	681b      	ldr	r3, [r3, #0]
 80030ce:	429a      	cmp	r2, r3
 80030d0:	d103      	bne.n	80030da <vTaskSuspend+0xca>
					pxCurrentTCB = NULL;
 80030d2:	4b07      	ldr	r3, [pc, #28]	@ (80030f0 <vTaskSuspend+0xe0>)
 80030d4:	2200      	movs	r2, #0
 80030d6:	601a      	str	r2, [r3, #0]
 80030d8:	e7cc      	b.n	8003074 <vTaskSuspend+0x64>
					vTaskSwitchContext();
 80030da:	f7ff ff4d 	bl	8002f78 <vTaskSwitchContext>
	}
 80030de:	e7c9      	b.n	8003074 <vTaskSuspend+0x64>
 80030e0:	200000dc 	.word	0x200000dc
 80030e4:	20000060 	.word	0x20000060
 80030e8:	2000006c 	.word	0x2000006c
 80030ec:	2000005c 	.word	0x2000005c
 80030f0:	20000168 	.word	0x20000168
 80030f4:	20000040 	.word	0x20000040
 80030f8:	20000068 	.word	0x20000068

080030fc <uxTaskResetEventItemValue>:
	uxReturn = listGET_LIST_ITEM_VALUE( &( pxCurrentTCB->xEventListItem ) );
 80030fc:	4a04      	ldr	r2, [pc, #16]	@ (8003110 <uxTaskResetEventItemValue+0x14>)
 80030fe:	6813      	ldr	r3, [r2, #0]
 8003100:	6b98      	ldr	r0, [r3, #56]	@ 0x38
	listSET_LIST_ITEM_VALUE( &( pxCurrentTCB->xEventListItem ), ( ( TickType_t ) configMAX_PRIORITIES - ( TickType_t ) pxCurrentTCB->uxPriority ) ); /*lint !e961 MISRA exception as the casts are only redundant for some ports. */
 8003102:	6813      	ldr	r3, [r2, #0]
 8003104:	6cdb      	ldr	r3, [r3, #76]	@ 0x4c
 8003106:	6812      	ldr	r2, [r2, #0]
 8003108:	f1c3 0307 	rsb	r3, r3, #7
 800310c:	6393      	str	r3, [r2, #56]	@ 0x38
}
 800310e:	4770      	bx	lr
 8003110:	20000168 	.word	0x20000168

08003114 <xTaskGetCurrentTaskHandle>:
		xReturn = pxCurrentTCB;
 8003114:	4b01      	ldr	r3, [pc, #4]	@ (800311c <xTaskGetCurrentTaskHandle+0x8>)
 8003116:	6818      	ldr	r0, [r3, #0]
	}
 8003118:	4770      	bx	lr
 800311a:	bf00      	nop
 800311c:	20000168 	.word	0x20000168

08003120 <vTaskMissedYield>:
	xYieldPending = pdTRUE;
 8003120:	4b01      	ldr	r3, [pc, #4]	@ (8003128 <vTaskMissedYield+0x8>)
 8003122:	2201      	movs	r2, #1
 8003124:	601a      	str	r2, [r3, #0]
}
 8003126:	4770      	bx	lr
 8003128:	20000054 	.word	0x20000054

0800312c <xTaskGetSchedulerState>:
		if( xSchedulerRunning == pdFALSE )
 800312c:	4b05      	ldr	r3, [pc, #20]	@ (8003144 <xTaskGetSchedulerState+0x18>)
 800312e:	681b      	ldr	r3, [r3, #0]
 8003130:	b133      	cbz	r3, 8003140 <xTaskGetSchedulerState+0x14>
			if( uxSchedulerSuspended == ( UBaseType_t ) pdFALSE )
 8003132:	4b05      	ldr	r3, [pc, #20]	@ (8003148 <xTaskGetSchedulerState+0x1c>)
 8003134:	681b      	ldr	r3, [r3, #0]
 8003136:	b10b      	cbz	r3, 800313c <xTaskGetSchedulerState+0x10>
				xReturn = taskSCHEDULER_SUSPENDED;
 8003138:	2000      	movs	r0, #0
	}
 800313a:	4770      	bx	lr
				xReturn = taskSCHEDULER_RUNNING;
 800313c:	2002      	movs	r0, #2
 800313e:	4770      	bx	lr
			xReturn = taskSCHEDULER_NOT_STARTED;
 8003140:	2001      	movs	r0, #1
 8003142:	4770      	bx	lr
 8003144:	2000005c 	.word	0x2000005c
 8003148:	20000040 	.word	0x20000040

0800314c <xTaskPriorityInherit>:
		if( pxMutexHolder != NULL )
 800314c:	2800      	cmp	r0, #0
 800314e:	d049      	beq.n	80031e4 <xTaskPriorityInherit+0x98>
	{
 8003150:	b538      	push	{r3, r4, r5, lr}
 8003152:	4604      	mov	r4, r0
			if( pxMutexHolderTCB->uxPriority < pxCurrentTCB->uxPriority )
 8003154:	6cc3      	ldr	r3, [r0, #76]	@ 0x4c
 8003156:	4a25      	ldr	r2, [pc, #148]	@ (80031ec <xTaskPriorityInherit+0xa0>)
 8003158:	6812      	ldr	r2, [r2, #0]
 800315a:	6cd2      	ldr	r2, [r2, #76]	@ 0x4c
 800315c:	4293      	cmp	r3, r2
 800315e:	d239      	bcs.n	80031d4 <xTaskPriorityInherit+0x88>
				if( ( listGET_LIST_ITEM_VALUE( &( pxMutexHolderTCB->xEventListItem ) ) & taskEVENT_LIST_ITEM_VALUE_IN_USE ) == 0UL )
 8003160:	6b82      	ldr	r2, [r0, #56]	@ 0x38
 8003162:	2a00      	cmp	r2, #0
 8003164:	db05      	blt.n	8003172 <xTaskPriorityInherit+0x26>
					listSET_LIST_ITEM_VALUE( &( pxMutexHolderTCB->xEventListItem ), ( TickType_t ) configMAX_PRIORITIES - ( TickType_t ) pxCurrentTCB->uxPriority ); /*lint !e961 MISRA exception as the casts are only redundant for some ports. */
 8003166:	4a21      	ldr	r2, [pc, #132]	@ (80031ec <xTaskPriorityInherit+0xa0>)
 8003168:	6812      	ldr	r2, [r2, #0]
 800316a:	6cd2      	ldr	r2, [r2, #76]	@ 0x4c
 800316c:	f1c2 0207 	rsb	r2, r2, #7
 8003170:	6382      	str	r2, [r0, #56]	@ 0x38
				if( listIS_CONTAINED_WITHIN( &( pxReadyTasksLists[ pxMutexHolderTCB->uxPriority ] ), &( pxMutexHolderTCB->xStateListItem ) ) != pdFALSE )
 8003172:	6b61      	ldr	r1, [r4, #52]	@ 0x34
 8003174:	eb03 0383 	add.w	r3, r3, r3, lsl #2
 8003178:	4a1d      	ldr	r2, [pc, #116]	@ (80031f0 <xTaskPriorityInherit+0xa4>)
 800317a:	eb02 0383 	add.w	r3, r2, r3, lsl #2
 800317e:	4299      	cmp	r1, r3
 8003180:	d005      	beq.n	800318e <xTaskPriorityInherit+0x42>
					pxMutexHolderTCB->uxPriority = pxCurrentTCB->uxPriority;
 8003182:	4b1a      	ldr	r3, [pc, #104]	@ (80031ec <xTaskPriorityInherit+0xa0>)
 8003184:	681b      	ldr	r3, [r3, #0]
 8003186:	6cdb      	ldr	r3, [r3, #76]	@ 0x4c
 8003188:	64e3      	str	r3, [r4, #76]	@ 0x4c
				xReturn = pdTRUE;
 800318a:	2001      	movs	r0, #1
	}
 800318c:	bd38      	pop	{r3, r4, r5, pc}
					if( uxListRemove( &( pxMutexHolderTCB->xStateListItem ) ) == ( UBaseType_t ) 0 )
 800318e:	f104 0524 	add.w	r5, r4, #36	@ 0x24
 8003192:	4628      	mov	r0, r5
 8003194:	f001 f8d6 	bl	8004344 <uxListRemove>
 8003198:	b938      	cbnz	r0, 80031aa <xTaskPriorityInherit+0x5e>
						portRESET_READY_PRIORITY( pxMutexHolderTCB->uxPriority, uxTopReadyPriority );
 800319a:	6ce3      	ldr	r3, [r4, #76]	@ 0x4c
 800319c:	2201      	movs	r2, #1
 800319e:	409a      	lsls	r2, r3
 80031a0:	4914      	ldr	r1, [pc, #80]	@ (80031f4 <xTaskPriorityInherit+0xa8>)
 80031a2:	680b      	ldr	r3, [r1, #0]
 80031a4:	ea23 0302 	bic.w	r3, r3, r2
 80031a8:	600b      	str	r3, [r1, #0]
					pxMutexHolderTCB->uxPriority = pxCurrentTCB->uxPriority;
 80031aa:	4b10      	ldr	r3, [pc, #64]	@ (80031ec <xTaskPriorityInherit+0xa0>)
 80031ac:	681b      	ldr	r3, [r3, #0]
 80031ae:	6cd8      	ldr	r0, [r3, #76]	@ 0x4c
 80031b0:	64e0      	str	r0, [r4, #76]	@ 0x4c
					prvAddTaskToReadyList( pxMutexHolderTCB );
 80031b2:	2401      	movs	r4, #1
 80031b4:	fa04 f300 	lsl.w	r3, r4, r0
 80031b8:	4a0e      	ldr	r2, [pc, #56]	@ (80031f4 <xTaskPriorityInherit+0xa8>)
 80031ba:	6811      	ldr	r1, [r2, #0]
 80031bc:	430b      	orrs	r3, r1
 80031be:	6013      	str	r3, [r2, #0]
 80031c0:	eb00 0080 	add.w	r0, r0, r0, lsl #2
 80031c4:	4629      	mov	r1, r5
 80031c6:	4b0a      	ldr	r3, [pc, #40]	@ (80031f0 <xTaskPriorityInherit+0xa4>)
 80031c8:	eb03 0080 	add.w	r0, r3, r0, lsl #2
 80031cc:	f001 f896 	bl	80042fc <vListInsertEnd>
				xReturn = pdTRUE;
 80031d0:	4620      	mov	r0, r4
 80031d2:	e7db      	b.n	800318c <xTaskPriorityInherit+0x40>
				if( pxMutexHolderTCB->uxBasePriority < pxCurrentTCB->uxPriority )
 80031d4:	6e42      	ldr	r2, [r0, #100]	@ 0x64
 80031d6:	4b05      	ldr	r3, [pc, #20]	@ (80031ec <xTaskPriorityInherit+0xa0>)
 80031d8:	681b      	ldr	r3, [r3, #0]
 80031da:	6cdb      	ldr	r3, [r3, #76]	@ 0x4c
 80031dc:	429a      	cmp	r2, r3
 80031de:	d303      	bcc.n	80031e8 <xTaskPriorityInherit+0x9c>
	BaseType_t xReturn = pdFALSE;
 80031e0:	2000      	movs	r0, #0
 80031e2:	e7d3      	b.n	800318c <xTaskPriorityInherit+0x40>
 80031e4:	2000      	movs	r0, #0
	}
 80031e6:	4770      	bx	lr
					xReturn = pdTRUE;
 80031e8:	2001      	movs	r0, #1
		return xReturn;
 80031ea:	e7cf      	b.n	800318c <xTaskPriorityInherit+0x40>
 80031ec:	20000168 	.word	0x20000168
 80031f0:	200000dc 	.word	0x200000dc
 80031f4:	20000060 	.word	0x20000060

080031f8 <xTaskPriorityDisinherit>:
		if( pxMutexHolder != NULL )
 80031f8:	2800      	cmp	r0, #0
 80031fa:	d04c      	beq.n	8003296 <xTaskPriorityDisinherit+0x9e>
	{
 80031fc:	b538      	push	{r3, r4, r5, lr}
 80031fe:	4604      	mov	r4, r0
			configASSERT( pxTCB == pxCurrentTCB );
 8003200:	4b27      	ldr	r3, [pc, #156]	@ (80032a0 <xTaskPriorityDisinherit+0xa8>)
 8003202:	681b      	ldr	r3, [r3, #0]
 8003204:	4283      	cmp	r3, r0
 8003206:	d008      	beq.n	800321a <xTaskPriorityDisinherit+0x22>
 8003208:	f04f 0350 	mov.w	r3, #80	@ 0x50
 800320c:	f383 8811 	msr	BASEPRI, r3
 8003210:	f3bf 8f6f 	isb	sy
 8003214:	f3bf 8f4f 	dsb	sy
 8003218:	e7fe      	b.n	8003218 <xTaskPriorityDisinherit+0x20>
			configASSERT( pxTCB->uxMutexesHeld );
 800321a:	6e83      	ldr	r3, [r0, #104]	@ 0x68
 800321c:	b943      	cbnz	r3, 8003230 <xTaskPriorityDisinherit+0x38>
 800321e:	f04f 0350 	mov.w	r3, #80	@ 0x50
 8003222:	f383 8811 	msr	BASEPRI, r3
 8003226:	f3bf 8f6f 	isb	sy
 800322a:	f3bf 8f4f 	dsb	sy
 800322e:	e7fe      	b.n	800322e <xTaskPriorityDisinherit+0x36>
			( pxTCB->uxMutexesHeld )--;
 8003230:	3b01      	subs	r3, #1
 8003232:	6683      	str	r3, [r0, #104]	@ 0x68
			if( pxTCB->uxPriority != pxTCB->uxBasePriority )
 8003234:	6cc1      	ldr	r1, [r0, #76]	@ 0x4c
 8003236:	6e42      	ldr	r2, [r0, #100]	@ 0x64
 8003238:	4291      	cmp	r1, r2
 800323a:	d02e      	beq.n	800329a <xTaskPriorityDisinherit+0xa2>
				if( pxTCB->uxMutexesHeld == ( UBaseType_t ) 0 )
 800323c:	b10b      	cbz	r3, 8003242 <xTaskPriorityDisinherit+0x4a>
	BaseType_t xReturn = pdFALSE;
 800323e:	2000      	movs	r0, #0
	}
 8003240:	bd38      	pop	{r3, r4, r5, pc}
					if( uxListRemove( &( pxTCB->xStateListItem ) ) == ( UBaseType_t ) 0 )
 8003242:	f100 0524 	add.w	r5, r0, #36	@ 0x24
 8003246:	4628      	mov	r0, r5
 8003248:	f001 f87c 	bl	8004344 <uxListRemove>
 800324c:	b968      	cbnz	r0, 800326a <xTaskPriorityDisinherit+0x72>
						taskRESET_READY_PRIORITY( pxTCB->uxPriority );
 800324e:	6ce3      	ldr	r3, [r4, #76]	@ 0x4c
 8003250:	eb03 0283 	add.w	r2, r3, r3, lsl #2
 8003254:	0092      	lsls	r2, r2, #2
 8003256:	4913      	ldr	r1, [pc, #76]	@ (80032a4 <xTaskPriorityDisinherit+0xac>)
 8003258:	588a      	ldr	r2, [r1, r2]
 800325a:	b932      	cbnz	r2, 800326a <xTaskPriorityDisinherit+0x72>
 800325c:	2201      	movs	r2, #1
 800325e:	409a      	lsls	r2, r3
 8003260:	4911      	ldr	r1, [pc, #68]	@ (80032a8 <xTaskPriorityDisinherit+0xb0>)
 8003262:	680b      	ldr	r3, [r1, #0]
 8003264:	ea23 0302 	bic.w	r3, r3, r2
 8003268:	600b      	str	r3, [r1, #0]
					pxTCB->uxPriority = pxTCB->uxBasePriority;
 800326a:	6e60      	ldr	r0, [r4, #100]	@ 0x64
 800326c:	64e0      	str	r0, [r4, #76]	@ 0x4c
					listSET_LIST_ITEM_VALUE( &( pxTCB->xEventListItem ), ( TickType_t ) configMAX_PRIORITIES - ( TickType_t ) pxTCB->uxPriority ); /*lint !e961 MISRA exception as the casts are only redundant for some ports. */
 800326e:	f1c0 0307 	rsb	r3, r0, #7
 8003272:	63a3      	str	r3, [r4, #56]	@ 0x38
					prvAddTaskToReadyList( pxTCB );
 8003274:	2401      	movs	r4, #1
 8003276:	fa04 f300 	lsl.w	r3, r4, r0
 800327a:	4a0b      	ldr	r2, [pc, #44]	@ (80032a8 <xTaskPriorityDisinherit+0xb0>)
 800327c:	6811      	ldr	r1, [r2, #0]
 800327e:	430b      	orrs	r3, r1
 8003280:	6013      	str	r3, [r2, #0]
 8003282:	eb00 0080 	add.w	r0, r0, r0, lsl #2
 8003286:	4629      	mov	r1, r5
 8003288:	4b06      	ldr	r3, [pc, #24]	@ (80032a4 <xTaskPriorityDisinherit+0xac>)
 800328a:	eb03 0080 	add.w	r0, r3, r0, lsl #2
 800328e:	f001 f835 	bl	80042fc <vListInsertEnd>
					xReturn = pdTRUE;
 8003292:	4620      	mov	r0, r4
 8003294:	e7d4      	b.n	8003240 <xTaskPriorityDisinherit+0x48>
	BaseType_t xReturn = pdFALSE;
 8003296:	2000      	movs	r0, #0
	}
 8003298:	4770      	bx	lr
	BaseType_t xReturn = pdFALSE;
 800329a:	2000      	movs	r0, #0
 800329c:	e7d0      	b.n	8003240 <xTaskPriorityDisinherit+0x48>
 800329e:	bf00      	nop
 80032a0:	20000168 	.word	0x20000168
 80032a4:	200000dc 	.word	0x200000dc
 80032a8:	20000060 	.word	0x20000060

080032ac <vTaskPriorityDisinheritAfterTimeout>:
		if( pxMutexHolder != NULL )
 80032ac:	2800      	cmp	r0, #0
 80032ae:	d050      	beq.n	8003352 <vTaskPriorityDisinheritAfterTimeout+0xa6>
	{
 80032b0:	b538      	push	{r3, r4, r5, lr}
 80032b2:	4604      	mov	r4, r0
			configASSERT( pxTCB->uxMutexesHeld );
 80032b4:	6e83      	ldr	r3, [r0, #104]	@ 0x68
 80032b6:	b943      	cbnz	r3, 80032ca <vTaskPriorityDisinheritAfterTimeout+0x1e>
 80032b8:	f04f 0350 	mov.w	r3, #80	@ 0x50
 80032bc:	f383 8811 	msr	BASEPRI, r3
 80032c0:	f3bf 8f6f 	isb	sy
 80032c4:	f3bf 8f4f 	dsb	sy
 80032c8:	e7fe      	b.n	80032c8 <vTaskPriorityDisinheritAfterTimeout+0x1c>
			if( pxTCB->uxBasePriority < uxHighestPriorityWaitingTask )
 80032ca:	6e42      	ldr	r2, [r0, #100]	@ 0x64
 80032cc:	428a      	cmp	r2, r1
 80032ce:	d200      	bcs.n	80032d2 <vTaskPriorityDisinheritAfterTimeout+0x26>
				uxPriorityToUse = uxHighestPriorityWaitingTask;
 80032d0:	460a      	mov	r2, r1
			if( pxTCB->uxPriority != uxPriorityToUse )
 80032d2:	6ce1      	ldr	r1, [r4, #76]	@ 0x4c
 80032d4:	4291      	cmp	r1, r2
 80032d6:	d001      	beq.n	80032dc <vTaskPriorityDisinheritAfterTimeout+0x30>
				if( pxTCB->uxMutexesHeld == uxOnlyOneMutexHeld )
 80032d8:	2b01      	cmp	r3, #1
 80032da:	d000      	beq.n	80032de <vTaskPriorityDisinheritAfterTimeout+0x32>
	}
 80032dc:	bd38      	pop	{r3, r4, r5, pc}
					configASSERT( pxTCB != pxCurrentTCB );
 80032de:	4b1d      	ldr	r3, [pc, #116]	@ (8003354 <vTaskPriorityDisinheritAfterTimeout+0xa8>)
 80032e0:	681b      	ldr	r3, [r3, #0]
 80032e2:	42a3      	cmp	r3, r4
 80032e4:	d02c      	beq.n	8003340 <vTaskPriorityDisinheritAfterTimeout+0x94>
					pxTCB->uxPriority = uxPriorityToUse;
 80032e6:	64e2      	str	r2, [r4, #76]	@ 0x4c
					if( ( listGET_LIST_ITEM_VALUE( &( pxTCB->xEventListItem ) ) & taskEVENT_LIST_ITEM_VALUE_IN_USE ) == 0UL )
 80032e8:	6ba3      	ldr	r3, [r4, #56]	@ 0x38
 80032ea:	2b00      	cmp	r3, #0
 80032ec:	db02      	blt.n	80032f4 <vTaskPriorityDisinheritAfterTimeout+0x48>
						listSET_LIST_ITEM_VALUE( &( pxTCB->xEventListItem ), ( TickType_t ) configMAX_PRIORITIES - ( TickType_t ) uxPriorityToUse ); /*lint !e961 MISRA exception as the casts are only redundant for some ports. */
 80032ee:	f1c2 0207 	rsb	r2, r2, #7
 80032f2:	63a2      	str	r2, [r4, #56]	@ 0x38
					if( listIS_CONTAINED_WITHIN( &( pxReadyTasksLists[ uxPriorityUsedOnEntry ] ), &( pxTCB->xStateListItem ) ) != pdFALSE )
 80032f4:	6b62      	ldr	r2, [r4, #52]	@ 0x34
 80032f6:	eb01 0181 	add.w	r1, r1, r1, lsl #2
 80032fa:	4b17      	ldr	r3, [pc, #92]	@ (8003358 <vTaskPriorityDisinheritAfterTimeout+0xac>)
 80032fc:	eb03 0381 	add.w	r3, r3, r1, lsl #2
 8003300:	429a      	cmp	r2, r3
 8003302:	d1eb      	bne.n	80032dc <vTaskPriorityDisinheritAfterTimeout+0x30>
						if( uxListRemove( &( pxTCB->xStateListItem ) ) == ( UBaseType_t ) 0 )
 8003304:	f104 0524 	add.w	r5, r4, #36	@ 0x24
 8003308:	4628      	mov	r0, r5
 800330a:	f001 f81b 	bl	8004344 <uxListRemove>
 800330e:	b938      	cbnz	r0, 8003320 <vTaskPriorityDisinheritAfterTimeout+0x74>
							portRESET_READY_PRIORITY( pxTCB->uxPriority, uxTopReadyPriority );
 8003310:	6ce3      	ldr	r3, [r4, #76]	@ 0x4c
 8003312:	2201      	movs	r2, #1
 8003314:	409a      	lsls	r2, r3
 8003316:	4911      	ldr	r1, [pc, #68]	@ (800335c <vTaskPriorityDisinheritAfterTimeout+0xb0>)
 8003318:	680b      	ldr	r3, [r1, #0]
 800331a:	ea23 0302 	bic.w	r3, r3, r2
 800331e:	600b      	str	r3, [r1, #0]
						prvAddTaskToReadyList( pxTCB );
 8003320:	6ce0      	ldr	r0, [r4, #76]	@ 0x4c
 8003322:	2301      	movs	r3, #1
 8003324:	4083      	lsls	r3, r0
 8003326:	4a0d      	ldr	r2, [pc, #52]	@ (800335c <vTaskPriorityDisinheritAfterTimeout+0xb0>)
 8003328:	6811      	ldr	r1, [r2, #0]
 800332a:	430b      	orrs	r3, r1
 800332c:	6013      	str	r3, [r2, #0]
 800332e:	eb00 0080 	add.w	r0, r0, r0, lsl #2
 8003332:	4629      	mov	r1, r5
 8003334:	4b08      	ldr	r3, [pc, #32]	@ (8003358 <vTaskPriorityDisinheritAfterTimeout+0xac>)
 8003336:	eb03 0080 	add.w	r0, r3, r0, lsl #2
 800333a:	f000 ffdf 	bl	80042fc <vListInsertEnd>
	}
 800333e:	e7cd      	b.n	80032dc <vTaskPriorityDisinheritAfterTimeout+0x30>
 8003340:	f04f 0350 	mov.w	r3, #80	@ 0x50
 8003344:	f383 8811 	msr	BASEPRI, r3
 8003348:	f3bf 8f6f 	isb	sy
 800334c:	f3bf 8f4f 	dsb	sy
					configASSERT( pxTCB != pxCurrentTCB );
 8003350:	e7fe      	b.n	8003350 <vTaskPriorityDisinheritAfterTimeout+0xa4>
 8003352:	4770      	bx	lr
 8003354:	20000168 	.word	0x20000168
 8003358:	200000dc 	.word	0x200000dc
 800335c:	20000060 	.word	0x20000060

08003360 <xTaskCatchUpTicks>:
	configASSERT( uxSchedulerSuspended == 0 );
 8003360:	4b0b      	ldr	r3, [pc, #44]	@ (8003390 <xTaskCatchUpTicks+0x30>)
 8003362:	681b      	ldr	r3, [r3, #0]
 8003364:	b143      	cbz	r3, 8003378 <xTaskCatchUpTicks+0x18>
 8003366:	f04f 0350 	mov.w	r3, #80	@ 0x50
 800336a:	f383 8811 	msr	BASEPRI, r3
 800336e:	f3bf 8f6f 	isb	sy
 8003372:	f3bf 8f4f 	dsb	sy
 8003376:	e7fe      	b.n	8003376 <xTaskCatchUpTicks+0x16>
{
 8003378:	b510      	push	{r4, lr}
 800337a:	4604      	mov	r4, r0
	vTaskSuspendAll();
 800337c:	f7ff f942 	bl	8002604 <vTaskSuspendAll>
	xPendedTicks += xTicksToCatchUp;
 8003380:	4a04      	ldr	r2, [pc, #16]	@ (8003394 <xTaskCatchUpTicks+0x34>)
 8003382:	6813      	ldr	r3, [r2, #0]
 8003384:	4423      	add	r3, r4
 8003386:	6013      	str	r3, [r2, #0]
	xYieldRequired = xTaskResumeAll();
 8003388:	f7ff fc32 	bl	8002bf0 <xTaskResumeAll>
}
 800338c:	bd10      	pop	{r4, pc}
 800338e:	bf00      	nop
 8003390:	20000040 	.word	0x20000040
 8003394:	20000058 	.word	0x20000058

08003398 <pvTaskIncrementMutexHeldCount>:
		if( pxCurrentTCB != NULL )
 8003398:	4b05      	ldr	r3, [pc, #20]	@ (80033b0 <pvTaskIncrementMutexHeldCount+0x18>)
 800339a:	681b      	ldr	r3, [r3, #0]
 800339c:	b123      	cbz	r3, 80033a8 <pvTaskIncrementMutexHeldCount+0x10>
			( pxCurrentTCB->uxMutexesHeld )++;
 800339e:	4b04      	ldr	r3, [pc, #16]	@ (80033b0 <pvTaskIncrementMutexHeldCount+0x18>)
 80033a0:	681a      	ldr	r2, [r3, #0]
 80033a2:	6e93      	ldr	r3, [r2, #104]	@ 0x68
 80033a4:	3301      	adds	r3, #1
 80033a6:	6693      	str	r3, [r2, #104]	@ 0x68
		return pxCurrentTCB;
 80033a8:	4b01      	ldr	r3, [pc, #4]	@ (80033b0 <pvTaskIncrementMutexHeldCount+0x18>)
 80033aa:	6818      	ldr	r0, [r3, #0]
	}
 80033ac:	4770      	bx	lr
 80033ae:	bf00      	nop
 80033b0:	20000168 	.word	0x20000168

080033b4 <vTaskInternalSetTimeOutState>:
	pxTimeOut->xOverflowCount = xNumOfOverflows;
 80033b4:	4b03      	ldr	r3, [pc, #12]	@ (80033c4 <vTaskInternalSetTimeOutState+0x10>)
 80033b6:	681b      	ldr	r3, [r3, #0]
 80033b8:	6003      	str	r3, [r0, #0]
	pxTimeOut->xTimeOnEntering = xTickCount;
 80033ba:	4b03      	ldr	r3, [pc, #12]	@ (80033c8 <vTaskInternalSetTimeOutState+0x14>)
 80033bc:	681b      	ldr	r3, [r3, #0]
 80033be:	6043      	str	r3, [r0, #4]
}
 80033c0:	4770      	bx	lr
 80033c2:	bf00      	nop
 80033c4:	20000050 	.word	0x20000050
 80033c8:	20000064 	.word	0x20000064

080033cc <xTaskCheckForTimeOut>:
{
 80033cc:	b5f8      	push	{r3, r4, r5, r6, r7, lr}
	configASSERT( pxTimeOut );
 80033ce:	b1c8      	cbz	r0, 8003404 <xTaskCheckForTimeOut+0x38>
 80033d0:	460c      	mov	r4, r1
 80033d2:	4605      	mov	r5, r0
	configASSERT( pxTicksToWait );
 80033d4:	b1f9      	cbz	r1, 8003416 <xTaskCheckForTimeOut+0x4a>
	taskENTER_CRITICAL();
 80033d6:	f001 f87b 	bl	80044d0 <vPortEnterCritical>
		const TickType_t xConstTickCount = xTickCount;
 80033da:	4b1b      	ldr	r3, [pc, #108]	@ (8003448 <xTaskCheckForTimeOut+0x7c>)
 80033dc:	6819      	ldr	r1, [r3, #0]
		const TickType_t xElapsedTime = xConstTickCount - pxTimeOut->xTimeOnEntering;
 80033de:	686b      	ldr	r3, [r5, #4]
 80033e0:	1ac8      	subs	r0, r1, r3
			if( *pxTicksToWait == portMAX_DELAY )
 80033e2:	6822      	ldr	r2, [r4, #0]
 80033e4:	f1b2 3fff 	cmp.w	r2, #4294967295	@ 0xffffffff
 80033e8:	d026      	beq.n	8003438 <xTaskCheckForTimeOut+0x6c>
		if( ( xNumOfOverflows != pxTimeOut->xOverflowCount ) && ( xConstTickCount >= pxTimeOut->xTimeOnEntering ) ) /*lint !e525 Indentation preferred as is to make code within pre-processor directives clearer. */
 80033ea:	4e18      	ldr	r6, [pc, #96]	@ (800344c <xTaskCheckForTimeOut+0x80>)
 80033ec:	6836      	ldr	r6, [r6, #0]
 80033ee:	682f      	ldr	r7, [r5, #0]
 80033f0:	42b7      	cmp	r7, r6
 80033f2:	d001      	beq.n	80033f8 <xTaskCheckForTimeOut+0x2c>
 80033f4:	428b      	cmp	r3, r1
 80033f6:	d924      	bls.n	8003442 <xTaskCheckForTimeOut+0x76>
		else if( xElapsedTime < *pxTicksToWait ) /*lint !e961 Explicit casting is only redundant with some compilers, whereas others require it to prevent integer conversion errors. */
 80033f8:	4282      	cmp	r2, r0
 80033fa:	d815      	bhi.n	8003428 <xTaskCheckForTimeOut+0x5c>
			*pxTicksToWait = 0;
 80033fc:	2300      	movs	r3, #0
 80033fe:	6023      	str	r3, [r4, #0]
			xReturn = pdTRUE;
 8003400:	2401      	movs	r4, #1
 8003402:	e01a      	b.n	800343a <xTaskCheckForTimeOut+0x6e>
 8003404:	f04f 0350 	mov.w	r3, #80	@ 0x50
 8003408:	f383 8811 	msr	BASEPRI, r3
 800340c:	f3bf 8f6f 	isb	sy
 8003410:	f3bf 8f4f 	dsb	sy
	configASSERT( pxTimeOut );
 8003414:	e7fe      	b.n	8003414 <xTaskCheckForTimeOut+0x48>
 8003416:	f04f 0350 	mov.w	r3, #80	@ 0x50
 800341a:	f383 8811 	msr	BASEPRI, r3
 800341e:	f3bf 8f6f 	isb	sy
 8003422:	f3bf 8f4f 	dsb	sy
	configASSERT( pxTicksToWait );
 8003426:	e7fe      	b.n	8003426 <xTaskCheckForTimeOut+0x5a>
			*pxTicksToWait -= xElapsedTime;
 8003428:	1a5b      	subs	r3, r3, r1
 800342a:	4413      	add	r3, r2
 800342c:	6023      	str	r3, [r4, #0]
			vTaskInternalSetTimeOutState( pxTimeOut );
 800342e:	4628      	mov	r0, r5
 8003430:	f7ff ffc0 	bl	80033b4 <vTaskInternalSetTimeOutState>
			xReturn = pdFALSE;
 8003434:	2400      	movs	r4, #0
 8003436:	e000      	b.n	800343a <xTaskCheckForTimeOut+0x6e>
				xReturn = pdFALSE;
 8003438:	2400      	movs	r4, #0
	taskEXIT_CRITICAL();
 800343a:	f001 f85d 	bl	80044f8 <vPortExitCritical>
}
 800343e:	4620      	mov	r0, r4
 8003440:	bdf8      	pop	{r3, r4, r5, r6, r7, pc}
			xReturn = pdTRUE;
 8003442:	2401      	movs	r4, #1
 8003444:	e7f9      	b.n	800343a <xTaskCheckForTimeOut+0x6e>
 8003446:	bf00      	nop
 8003448:	20000064 	.word	0x20000064
 800344c:	20000050 	.word	0x20000050

Disassembly of section .text:

08003450 <xPortRaisePrivilege>:
 */
void vPortResetPrivilege( BaseType_t xRunningPrivileged );
/*-----------------------------------------------------------*/

BaseType_t xPortRaisePrivilege( void ) /* FREERTOS_SYSTEM_CALL */
{
 8003450:	b508      	push	{r3, lr}
BaseType_t xRunningPrivileged;

	/* Check whether the processor is already privileged. */
	xRunningPrivileged = portIS_PRIVILEGED();
 8003452:	f001 f885 	bl	8004560 <xIsPrivileged>

	/* If the processor is not already privileged, raise privilege. */
	if( xRunningPrivileged != pdTRUE )
 8003456:	2801      	cmp	r0, #1
 8003458:	d000      	beq.n	800345c <xPortRaisePrivilege+0xc>
	{
		portRAISE_PRIVILEGE();
 800345a:	df02      	svc	2
	}

	return xRunningPrivileged;
}
 800345c:	bd08      	pop	{r3, pc}

0800345e <MPU_xTaskCreateStatic>:
#endif /* configSUPPORT_DYNAMIC_ALLOCATION */
/*-----------------------------------------------------------*/

#if( configSUPPORT_STATIC_ALLOCATION == 1 )
	TaskHandle_t MPU_xTaskCreateStatic( TaskFunction_t pxTaskCode, const char * const pcName, const uint32_t ulStackDepth, void * const pvParameters, UBaseType_t uxPriority, StackType_t * const puxStackBuffer, StaticTask_t * const pxTaskBuffer ) /* FREERTOS_SYSTEM_CALL */
	{
 800345e:	e92d 41f0 	stmdb	sp!, {r4, r5, r6, r7, r8, lr}
 8003462:	b084      	sub	sp, #16
 8003464:	4604      	mov	r4, r0
 8003466:	460e      	mov	r6, r1
 8003468:	4617      	mov	r7, r2
 800346a:	4698      	mov	r8, r3
	TaskHandle_t xReturn;
	BaseType_t xRunningPrivileged = xPortRaisePrivilege();
 800346c:	f7ff fff0 	bl	8003450 <xPortRaisePrivilege>
 8003470:	4605      	mov	r5, r0

		xReturn = xTaskCreateStatic( pxTaskCode, pcName, ulStackDepth, pvParameters, uxPriority, puxStackBuffer, pxTaskBuffer );
 8003472:	9b0c      	ldr	r3, [sp, #48]	@ 0x30
 8003474:	9302      	str	r3, [sp, #8]
 8003476:	9b0b      	ldr	r3, [sp, #44]	@ 0x2c
 8003478:	9301      	str	r3, [sp, #4]
 800347a:	9b0a      	ldr	r3, [sp, #40]	@ 0x28
 800347c:	9300      	str	r3, [sp, #0]
 800347e:	4643      	mov	r3, r8
 8003480:	463a      	mov	r2, r7
 8003482:	4631      	mov	r1, r6
 8003484:	4620      	mov	r0, r4
 8003486:	f7fe fe5b 	bl	8002140 <xTaskCreateStatic>
 800348a:	4604      	mov	r4, r0
		vPortResetPrivilege( xRunningPrivileged );
 800348c:	4628      	mov	r0, r5
 800348e:	f001 f80d 	bl	80044ac <vPortResetPrivilege>
		return xReturn;
	}
 8003492:	4620      	mov	r0, r4
 8003494:	b004      	add	sp, #16
 8003496:	e8bd 81f0 	ldmia.w	sp!, {r4, r5, r6, r7, r8, pc}

0800349a <MPU_xTaskCreateRestrictedStatic>:
	{
 800349a:	b570      	push	{r4, r5, r6, lr}
 800349c:	4604      	mov	r4, r0
 800349e:	460e      	mov	r6, r1
	BaseType_t xRunningPrivileged = xPortRaisePrivilege();
 80034a0:	f7ff ffd6 	bl	8003450 <xPortRaisePrivilege>
 80034a4:	4605      	mov	r5, r0
		xReturn = xTaskCreateRestrictedStatic( pxTaskDefinition, pxCreatedTask );
 80034a6:	4631      	mov	r1, r6
 80034a8:	4620      	mov	r0, r4
 80034aa:	f7fe fe81 	bl	80021b0 <xTaskCreateRestrictedStatic>
 80034ae:	4604      	mov	r4, r0
		vPortResetPrivilege( xRunningPrivileged );
 80034b0:	4628      	mov	r0, r5
 80034b2:	f000 fffb 	bl	80044ac <vPortResetPrivilege>
	}
 80034b6:	4620      	mov	r0, r4
 80034b8:	bd70      	pop	{r4, r5, r6, pc}

080034ba <MPU_vTaskAllocateMPURegions>:
#endif /* configSUPPORT_STATIC_ALLOCATION */
/*-----------------------------------------------------------*/

void MPU_vTaskAllocateMPURegions( TaskHandle_t xTask, const MemoryRegion_t * const xRegions ) /* FREERTOS_SYSTEM_CALL */
{
 80034ba:	b570      	push	{r4, r5, r6, lr}
 80034bc:	4605      	mov	r5, r0
 80034be:	460e      	mov	r6, r1
BaseType_t xRunningPrivileged = xPortRaisePrivilege();
 80034c0:	f7ff ffc6 	bl	8003450 <xPortRaisePrivilege>
 80034c4:	4604      	mov	r4, r0

	vTaskAllocateMPURegions( xTask, xRegions );
 80034c6:	4631      	mov	r1, r6
 80034c8:	4628      	mov	r0, r5
 80034ca:	f7fe fe9d 	bl	8002208 <vTaskAllocateMPURegions>
	vPortResetPrivilege( xRunningPrivileged );
 80034ce:	4620      	mov	r0, r4
 80034d0:	f000 ffec 	bl	80044ac <vPortResetPrivilege>
}
 80034d4:	bd70      	pop	{r4, r5, r6, pc}

080034d6 <MPU_vTaskDelete>:
/*-----------------------------------------------------------*/

#if ( INCLUDE_vTaskDelete == 1 )
	void MPU_vTaskDelete( TaskHandle_t pxTaskToDelete ) /* FREERTOS_SYSTEM_CALL */
	{
 80034d6:	b538      	push	{r3, r4, r5, lr}
 80034d8:	4605      	mov	r5, r0
	BaseType_t xRunningPrivileged = xPortRaisePrivilege();
 80034da:	f7ff ffb9 	bl	8003450 <xPortRaisePrivilege>
 80034de:	4604      	mov	r4, r0

		vTaskDelete( pxTaskToDelete );
 80034e0:	4628      	mov	r0, r5
 80034e2:	f7fe fe9f 	bl	8002224 <vTaskDelete>
		vPortResetPrivilege( xRunningPrivileged );
 80034e6:	4620      	mov	r0, r4
 80034e8:	f000 ffe0 	bl	80044ac <vPortResetPrivilege>
	}
 80034ec:	bd38      	pop	{r3, r4, r5, pc}

080034ee <MPU_vTaskDelay>:
#endif
/*-----------------------------------------------------------*/

#if ( INCLUDE_vTaskDelay == 1 )
	void MPU_vTaskDelay( TickType_t xTicksToDelay ) /* FREERTOS_SYSTEM_CALL */
	{
 80034ee:	b538      	push	{r3, r4, r5, lr}
 80034f0:	4605      	mov	r5, r0
	BaseType_t xRunningPrivileged = xPortRaisePrivilege();
 80034f2:	f7ff ffad 	bl	8003450 <xPortRaisePrivilege>
 80034f6:	4604      	mov	r4, r0

		vTaskDelay( xTicksToDelay );
 80034f8:	4628      	mov	r0, r5
 80034fa:	f7ff fbf5 	bl	8002ce8 <vTaskDelay>
		vPortResetPrivilege( xRunningPrivileged );
 80034fe:	4620      	mov	r0, r4
 8003500:	f000 ffd4 	bl	80044ac <vPortResetPrivilege>
	}
 8003504:	bd38      	pop	{r3, r4, r5, pc}

08003506 <MPU_vTaskDelayUntil>:
	{
 8003506:	b570      	push	{r4, r5, r6, lr}
 8003508:	4605      	mov	r5, r0
 800350a:	460e      	mov	r6, r1
	BaseType_t xRunningPrivileged = xPortRaisePrivilege();
 800350c:	f7ff ffa0 	bl	8003450 <xPortRaisePrivilege>
 8003510:	4604      	mov	r4, r0
		vTaskDelayUntil( pxPreviousWakeTime, xTimeIncrement );
 8003512:	4631      	mov	r1, r6
 8003514:	4628      	mov	r0, r5
 8003516:	f7ff fc0d 	bl	8002d34 <vTaskDelayUntil>
		vPortResetPrivilege( xRunningPrivileged );
 800351a:	4620      	mov	r0, r4
 800351c:	f000 ffc6 	bl	80044ac <vPortResetPrivilege>
	}
 8003520:	bd70      	pop	{r4, r5, r6, pc}

08003522 <MPU_uxTaskPriorityGet>:
#endif
/*-----------------------------------------------------------*/

#if ( INCLUDE_uxTaskPriorityGet == 1 )
	UBaseType_t MPU_uxTaskPriorityGet( const TaskHandle_t pxTask ) /* FREERTOS_SYSTEM_CALL */
	{
 8003522:	b538      	push	{r3, r4, r5, lr}
 8003524:	4604      	mov	r4, r0
	UBaseType_t uxReturn;
	BaseType_t xRunningPrivileged = xPortRaisePrivilege();
 8003526:	f7ff ff93 	bl	8003450 <xPortRaisePrivilege>
 800352a:	4605      	mov	r5, r0

		uxReturn = uxTaskPriorityGet( pxTask );
 800352c:	4620      	mov	r0, r4
 800352e:	f7fe fee7 	bl	8002300 <uxTaskPriorityGet>
 8003532:	4604      	mov	r4, r0
		vPortResetPrivilege( xRunningPrivileged );
 8003534:	4628      	mov	r0, r5
 8003536:	f000 ffb9 	bl	80044ac <vPortResetPrivilege>
		return uxReturn;
	}
 800353a:	4620      	mov	r0, r4
 800353c:	bd38      	pop	{r3, r4, r5, pc}

0800353e <MPU_vTaskPrioritySet>:
#endif
/*-----------------------------------------------------------*/

#if ( INCLUDE_vTaskPrioritySet == 1 )
	void MPU_vTaskPrioritySet( TaskHandle_t pxTask, UBaseType_t uxNewPriority ) /* FREERTOS_SYSTEM_CALL */
	{
 800353e:	b570      	push	{r4, r5, r6, lr}
 8003540:	4605      	mov	r5, r0
 8003542:	460e      	mov	r6, r1
	BaseType_t xRunningPrivileged = xPortRaisePrivilege();
 8003544:	f7ff ff84 	bl	8003450 <xPortRaisePrivilege>
 8003548:	4604      	mov	r4, r0

		vTaskPrioritySet( pxTask, uxNewPriority );
 800354a:	4631      	mov	r1, r6
 800354c:	4628      	mov	r0, r5
 800354e:	f7fe feff 	bl	8002350 <vTaskPrioritySet>
		vPortResetPrivilege( xRunningPrivileged );
 8003552:	4620      	mov	r0, r4
 8003554:	f000 ffaa 	bl	80044ac <vPortResetPrivilege>
	}
 8003558:	bd70      	pop	{r4, r5, r6, pc}

0800355a <MPU_vTaskSuspend>:
#endif
/*-----------------------------------------------------------*/

#if ( INCLUDE_vTaskSuspend == 1 )
	void MPU_vTaskSuspend( TaskHandle_t pxTaskToSuspend ) /* FREERTOS_SYSTEM_CALL */
	{
 800355a:	b538      	push	{r3, r4, r5, lr}
 800355c:	4605      	mov	r5, r0
	BaseType_t xRunningPrivileged = xPortRaisePrivilege();
 800355e:	f7ff ff77 	bl	8003450 <xPortRaisePrivilege>
 8003562:	4604      	mov	r4, r0

		vTaskSuspend( pxTaskToSuspend );
 8003564:	4628      	mov	r0, r5
 8003566:	f7ff fd53 	bl	8003010 <vTaskSuspend>
		vPortResetPrivilege( xRunningPrivileged );
 800356a:	4620      	mov	r0, r4
 800356c:	f000 ff9e 	bl	80044ac <vPortResetPrivilege>
	}
 8003570:	bd38      	pop	{r3, r4, r5, pc}

08003572 <MPU_vTaskResume>:
#endif
/*-----------------------------------------------------------*/

#if ( INCLUDE_vTaskSuspend == 1 )
	void MPU_vTaskResume( TaskHandle_t pxTaskToResume ) /* FREERTOS_SYSTEM_CALL */
	{
 8003572:	b538      	push	{r3, r4, r5, lr}
 8003574:	4605      	mov	r5, r0
	BaseType_t xRunningPrivileged = xPortRaisePrivilege();
 8003576:	f7ff ff6b 	bl	8003450 <xPortRaisePrivilege>
 800357a:	4604      	mov	r4, r0

		vTaskResume( pxTaskToResume );
 800357c:	4628      	mov	r0, r5
 800357e:	f7fe ff5b 	bl	8002438 <vTaskResume>
		vPortResetPrivilege( xRunningPrivileged );
 8003582:	4620      	mov	r0, r4
 8003584:	f000 ff92 	bl	80044ac <vPortResetPrivilege>
	}
 8003588:	bd38      	pop	{r3, r4, r5, pc}

0800358a <MPU_vTaskSuspendAll>:
#endif
/*-----------------------------------------------------------*/

void MPU_vTaskSuspendAll( void ) /* FREERTOS_SYSTEM_CALL */
{
 800358a:	b510      	push	{r4, lr}
BaseType_t xRunningPrivileged = xPortRaisePrivilege();
 800358c:	f7ff ff60 	bl	8003450 <xPortRaisePrivilege>
 8003590:	4604      	mov	r4, r0

	vTaskSuspendAll();
 8003592:	f7ff f837 	bl	8002604 <vTaskSuspendAll>
	vPortResetPrivilege( xRunningPrivileged );
 8003596:	4620      	mov	r0, r4
 8003598:	f000 ff88 	bl	80044ac <vPortResetPrivilege>
}
 800359c:	bd10      	pop	{r4, pc}

0800359e <MPU_xTaskResumeAll>:
/*-----------------------------------------------------------*/

BaseType_t MPU_xTaskResumeAll( void ) /* FREERTOS_SYSTEM_CALL */
{
 800359e:	b538      	push	{r3, r4, r5, lr}
BaseType_t xReturn;
BaseType_t xRunningPrivileged = xPortRaisePrivilege();
 80035a0:	f7ff ff56 	bl	8003450 <xPortRaisePrivilege>
 80035a4:	4605      	mov	r5, r0

	xReturn = xTaskResumeAll();
 80035a6:	f7ff fb23 	bl	8002bf0 <xTaskResumeAll>
 80035aa:	4604      	mov	r4, r0
	vPortResetPrivilege( xRunningPrivileged );
 80035ac:	4628      	mov	r0, r5
 80035ae:	f000 ff7d 	bl	80044ac <vPortResetPrivilege>
	return xReturn;
}
 80035b2:	4620      	mov	r0, r4
 80035b4:	bd38      	pop	{r3, r4, r5, pc}

080035b6 <MPU_xTaskGetTickCount>:
/*-----------------------------------------------------------*/

TickType_t MPU_xTaskGetTickCount( void ) /* FREERTOS_SYSTEM_CALL */
{
 80035b6:	b538      	push	{r3, r4, r5, lr}
TickType_t xReturn;
BaseType_t xRunningPrivileged = xPortRaisePrivilege();
 80035b8:	f7ff ff4a 	bl	8003450 <xPortRaisePrivilege>
 80035bc:	4605      	mov	r5, r0

	xReturn = xTaskGetTickCount();
 80035be:	f7ff f829 	bl	8002614 <xTaskGetTickCount>
 80035c2:	4604      	mov	r4, r0
	vPortResetPrivilege( xRunningPrivileged );
 80035c4:	4628      	mov	r0, r5
 80035c6:	f000 ff71 	bl	80044ac <vPortResetPrivilege>
	return xReturn;
}
 80035ca:	4620      	mov	r0, r4
 80035cc:	bd38      	pop	{r3, r4, r5, pc}

080035ce <MPU_uxTaskGetNumberOfTasks>:
/*-----------------------------------------------------------*/

UBaseType_t MPU_uxTaskGetNumberOfTasks( void ) /* FREERTOS_SYSTEM_CALL */
{
 80035ce:	b538      	push	{r3, r4, r5, lr}
UBaseType_t uxReturn;
BaseType_t xRunningPrivileged = xPortRaisePrivilege();
 80035d0:	f7ff ff3e 	bl	8003450 <xPortRaisePrivilege>
 80035d4:	4605      	mov	r5, r0

	uxReturn = uxTaskGetNumberOfTasks();
 80035d6:	f7ff f82b 	bl	8002630 <uxTaskGetNumberOfTasks>
 80035da:	4604      	mov	r4, r0
	vPortResetPrivilege( xRunningPrivileged );
 80035dc:	4628      	mov	r0, r5
 80035de:	f000 ff65 	bl	80044ac <vPortResetPrivilege>
	return uxReturn;
}
 80035e2:	4620      	mov	r0, r4
 80035e4:	bd38      	pop	{r3, r4, r5, pc}

080035e6 <MPU_pcTaskGetName>:
/*-----------------------------------------------------------*/

char * MPU_pcTaskGetName( TaskHandle_t xTaskToQuery ) /* FREERTOS_SYSTEM_CALL */
{
 80035e6:	b538      	push	{r3, r4, r5, lr}
 80035e8:	4604      	mov	r4, r0
char *pcReturn;
BaseType_t xRunningPrivileged = xPortRaisePrivilege();
 80035ea:	f7ff ff31 	bl	8003450 <xPortRaisePrivilege>
 80035ee:	4605      	mov	r5, r0

	pcReturn = pcTaskGetName( xTaskToQuery );
 80035f0:	4620      	mov	r0, r4
 80035f2:	f7ff f823 	bl	800263c <pcTaskGetName>
 80035f6:	4604      	mov	r4, r0
	vPortResetPrivilege( xRunningPrivileged );
 80035f8:	4628      	mov	r0, r5
 80035fa:	f000 ff57 	bl	80044ac <vPortResetPrivilege>
	return pcReturn;
}
 80035fe:	4620      	mov	r0, r4
 8003600:	bd38      	pop	{r3, r4, r5, pc}

08003602 <MPU_xTaskGenericNotify>:
}
/*-----------------------------------------------------------*/

#if( configUSE_TASK_NOTIFICATIONS == 1 )
	BaseType_t MPU_xTaskGenericNotify( TaskHandle_t xTaskToNotify, uint32_t ulValue, eNotifyAction eAction, uint32_t *pulPreviousNotificationValue ) /* FREERTOS_SYSTEM_CALL */
	{
 8003602:	e92d 41f0 	stmdb	sp!, {r4, r5, r6, r7, r8, lr}
 8003606:	4604      	mov	r4, r0
 8003608:	460e      	mov	r6, r1
 800360a:	4617      	mov	r7, r2
 800360c:	4698      	mov	r8, r3
	BaseType_t xReturn;
	BaseType_t xRunningPrivileged = xPortRaisePrivilege();
 800360e:	f7ff ff1f 	bl	8003450 <xPortRaisePrivilege>
 8003612:	4605      	mov	r5, r0

		xReturn = xTaskGenericNotify( xTaskToNotify, ulValue, eAction, pulPreviousNotificationValue );
 8003614:	4643      	mov	r3, r8
 8003616:	463a      	mov	r2, r7
 8003618:	4631      	mov	r1, r6
 800361a:	4620      	mov	r0, r4
 800361c:	f7ff f822 	bl	8002664 <xTaskGenericNotify>
 8003620:	4604      	mov	r4, r0
		vPortResetPrivilege( xRunningPrivileged );
 8003622:	4628      	mov	r0, r5
 8003624:	f000 ff42 	bl	80044ac <vPortResetPrivilege>
		return xReturn;
	}
 8003628:	4620      	mov	r0, r4
 800362a:	e8bd 81f0 	ldmia.w	sp!, {r4, r5, r6, r7, r8, pc}

0800362e <MPU_xTaskNotifyWait>:
#endif
/*-----------------------------------------------------------*/

#if( configUSE_TASK_NOTIFICATIONS == 1 )
	BaseType_t MPU_xTaskNotifyWait( uint32_t ulBitsToClearOnEntry, uint32_t ulBitsToClearOnExit, uint32_t *pulNotificationValue, TickType_t xTicksToWait ) /* FREERTOS_SYSTEM_CALL */
	{
 800362e:	e92d 41f0 	stmdb	sp!, {r4, r5, r6, r7, r8, lr}
 8003632:	4604      	mov	r4, r0
 8003634:	460e      	mov	r6, r1
 8003636:	4617      	mov	r7, r2
 8003638:	4698      	mov	r8, r3
	BaseType_t xReturn;
	BaseType_t xRunningPrivileged = xPortRaisePrivilege();
 800363a:	f7ff ff09 	bl	8003450 <xPortRaisePrivilege>
 800363e:	4605      	mov	r5, r0

		xReturn = xTaskNotifyWait( ulBitsToClearOnEntry, ulBitsToClearOnExit, pulNotificationValue, xTicksToWait );
 8003640:	4643      	mov	r3, r8
 8003642:	463a      	mov	r2, r7
 8003644:	4631      	mov	r1, r6
 8003646:	4620      	mov	r0, r4
 8003648:	f7ff f920 	bl	800288c <xTaskNotifyWait>
 800364c:	4604      	mov	r4, r0
		vPortResetPrivilege( xRunningPrivileged );
 800364e:	4628      	mov	r0, r5
 8003650:	f000 ff2c 	bl	80044ac <vPortResetPrivilege>
		return xReturn;
	}
 8003654:	4620      	mov	r0, r4
 8003656:	e8bd 81f0 	ldmia.w	sp!, {r4, r5, r6, r7, r8, pc}

0800365a <MPU_ulTaskNotifyTake>:
#endif
/*-----------------------------------------------------------*/

#if( configUSE_TASK_NOTIFICATIONS == 1 )
	uint32_t MPU_ulTaskNotifyTake( BaseType_t xClearCountOnExit, TickType_t xTicksToWait ) /* FREERTOS_SYSTEM_CALL */
	{
 800365a:	b570      	push	{r4, r5, r6, lr}
 800365c:	4604      	mov	r4, r0
 800365e:	460e      	mov	r6, r1
	uint32_t ulReturn;
	BaseType_t xRunningPrivileged = xPortRaisePrivilege();
 8003660:	f7ff fef6 	bl	8003450 <xPortRaisePrivilege>
 8003664:	4605      	mov	r5, r0

		ulReturn = ulTaskNotifyTake( xClearCountOnExit, xTicksToWait );
 8003666:	4631      	mov	r1, r6
 8003668:	4620      	mov	r0, r4
 800366a:	f7ff f9c5 	bl	80029f8 <ulTaskNotifyTake>
 800366e:	4604      	mov	r4, r0
		vPortResetPrivilege( xRunningPrivileged );
 8003670:	4628      	mov	r0, r5
 8003672:	f000 ff1b 	bl	80044ac <vPortResetPrivilege>
		return ulReturn;
	}
 8003676:	4620      	mov	r0, r4
 8003678:	bd70      	pop	{r4, r5, r6, pc}

0800367a <MPU_xTaskNotifyStateClear>:
#endif
/*-----------------------------------------------------------*/

#if( configUSE_TASK_NOTIFICATIONS == 1 )
	BaseType_t MPU_xTaskNotifyStateClear( TaskHandle_t xTask ) /* FREERTOS_SYSTEM_CALL */
	{
 800367a:	b538      	push	{r3, r4, r5, lr}
 800367c:	4604      	mov	r4, r0
	BaseType_t xReturn;
	BaseType_t xRunningPrivileged = xPortRaisePrivilege();
 800367e:	f7ff fee7 	bl	8003450 <xPortRaisePrivilege>
 8003682:	4605      	mov	r5, r0

		xReturn = xTaskNotifyStateClear( xTask );
 8003684:	4620      	mov	r0, r4
 8003686:	f002 fae9 	bl	8005c5c <xTaskNotifyStateClear>
 800368a:	4604      	mov	r4, r0
		vPortResetPrivilege( xRunningPrivileged );
 800368c:	4628      	mov	r0, r5
 800368e:	f000 ff0d 	bl	80044ac <vPortResetPrivilege>
		return xReturn;
	}
 8003692:	4620      	mov	r0, r4
 8003694:	bd38      	pop	{r3, r4, r5, pc}

08003696 <MPU_ulTaskNotifyValueClear>:
#endif
/*-----------------------------------------------------------*/

#if( configUSE_TASK_NOTIFICATIONS == 1 )
	uint32_t MPU_ulTaskNotifyValueClear( TaskHandle_t xTask, uint32_t ulBitsToClear ) /* FREERTOS_SYSTEM_CALL */
	{
 8003696:	b570      	push	{r4, r5, r6, lr}
 8003698:	4604      	mov	r4, r0
 800369a:	460e      	mov	r6, r1
	uint32_t ulReturn;
	BaseType_t xRunningPrivileged = xPortRaisePrivilege();
 800369c:	f7ff fed8 	bl	8003450 <xPortRaisePrivilege>
 80036a0:	4605      	mov	r5, r0

		ulReturn = ulTaskNotifyValueClear( xTask, ulBitsToClear );
 80036a2:	4631      	mov	r1, r6
 80036a4:	4620      	mov	r0, r4
 80036a6:	f7ff f9e3 	bl	8002a70 <ulTaskNotifyValueClear>
 80036aa:	4604      	mov	r4, r0
		vPortResetPrivilege( xRunningPrivileged );
 80036ac:	4628      	mov	r0, r5
 80036ae:	f000 fefd 	bl	80044ac <vPortResetPrivilege>
		return ulReturn;
	}
 80036b2:	4620      	mov	r0, r4
 80036b4:	bd70      	pop	{r4, r5, r6, pc}

080036b6 <MPU_vTaskSetTimeOutState>:
{
 80036b6:	b538      	push	{r3, r4, r5, lr}
 80036b8:	4605      	mov	r5, r0
BaseType_t xRunningPrivileged = xPortRaisePrivilege();
 80036ba:	f7ff fec9 	bl	8003450 <xPortRaisePrivilege>
 80036be:	4604      	mov	r4, r0
	vTaskSetTimeOutState( pxTimeOut );
 80036c0:	4628      	mov	r0, r5
 80036c2:	f7ff f9eb 	bl	8002a9c <vTaskSetTimeOutState>
	vPortResetPrivilege( xRunningPrivileged );
 80036c6:	4620      	mov	r0, r4
 80036c8:	f000 fef0 	bl	80044ac <vPortResetPrivilege>
}
 80036cc:	bd38      	pop	{r3, r4, r5, pc}

080036ce <MPU_xTaskCheckForTimeOut>:
{
 80036ce:	b570      	push	{r4, r5, r6, lr}
 80036d0:	4604      	mov	r4, r0
 80036d2:	460e      	mov	r6, r1
BaseType_t xRunningPrivileged = xPortRaisePrivilege();
 80036d4:	f7ff febc 	bl	8003450 <xPortRaisePrivilege>
 80036d8:	4605      	mov	r5, r0
	xReturn = xTaskCheckForTimeOut( pxTimeOut, pxTicksToWait );
 80036da:	4631      	mov	r1, r6
 80036dc:	4620      	mov	r0, r4
 80036de:	f7ff fe75 	bl	80033cc <xTaskCheckForTimeOut>
 80036e2:	4604      	mov	r4, r0
	vPortResetPrivilege( xRunningPrivileged );
 80036e4:	4628      	mov	r0, r5
 80036e6:	f000 fee1 	bl	80044ac <vPortResetPrivilege>
}
 80036ea:	4620      	mov	r0, r4
 80036ec:	bd70      	pop	{r4, r5, r6, pc}

080036ee <MPU_xTaskGetSchedulerState>:
	{
 80036ee:	b538      	push	{r3, r4, r5, lr}
	BaseType_t xRunningPrivileged = xPortRaisePrivilege();
 80036f0:	f7ff feae 	bl	8003450 <xPortRaisePrivilege>
 80036f4:	4605      	mov	r5, r0
		xReturn = xTaskGetSchedulerState();
 80036f6:	f7ff fd19 	bl	800312c <xTaskGetSchedulerState>
 80036fa:	4604      	mov	r4, r0
		vPortResetPrivilege( xRunningPrivileged );
 80036fc:	4628      	mov	r0, r5
 80036fe:	f000 fed5 	bl	80044ac <vPortResetPrivilege>
	}
 8003702:	4620      	mov	r0, r4
 8003704:	bd38      	pop	{r3, r4, r5, pc}

08003706 <MPU_xTaskCatchUpTicks>:
{
 8003706:	b538      	push	{r3, r4, r5, lr}
 8003708:	4604      	mov	r4, r0
BaseType_t xRunningPrivileged = xPortRaisePrivilege();
 800370a:	f7ff fea1 	bl	8003450 <xPortRaisePrivilege>
 800370e:	4605      	mov	r5, r0
	xReturn = xTaskCatchUpTicks( xTicksToCatchUp );
 8003710:	4620      	mov	r0, r4
 8003712:	f7ff fe25 	bl	8003360 <xTaskCatchUpTicks>
 8003716:	4604      	mov	r4, r0
	vPortResetPrivilege( xRunningPrivileged );
 8003718:	4628      	mov	r0, r5
 800371a:	f000 fec7 	bl	80044ac <vPortResetPrivilege>
}
 800371e:	4620      	mov	r0, r4
 8003720:	bd38      	pop	{r3, r4, r5, pc}

08003722 <MPU_xQueueGenericSend>:
	return xReturn;
}
/*-----------------------------------------------------------*/

BaseType_t MPU_xQueueGenericSend( QueueHandle_t xQueue, const void * const pvItemToQueue, TickType_t xTicksToWait, BaseType_t xCopyPosition ) /* FREERTOS_SYSTEM_CALL */
{
 8003722:	e92d 41f0 	stmdb	sp!, {r4, r5, r6, r7, r8, lr}
 8003726:	4604      	mov	r4, r0
 8003728:	460e      	mov	r6, r1
 800372a:	4617      	mov	r7, r2
 800372c:	4698      	mov	r8, r3
BaseType_t xReturn;
BaseType_t xRunningPrivileged = xPortRaisePrivilege();
 800372e:	f7ff fe8f 	bl	8003450 <xPortRaisePrivilege>
 8003732:	4605      	mov	r5, r0

	xReturn = xQueueGenericSend( xQueue, pvItemToQueue, xTicksToWait, xCopyPosition );
 8003734:	4643      	mov	r3, r8
 8003736:	463a      	mov	r2, r7
 8003738:	4631      	mov	r1, r6
 800373a:	4620      	mov	r0, r4
 800373c:	f7fd f9e4 	bl	8000b08 <xQueueGenericSend>
 8003740:	4604      	mov	r4, r0
	vPortResetPrivilege( xRunningPrivileged );
 8003742:	4628      	mov	r0, r5
 8003744:	f000 feb2 	bl	80044ac <vPortResetPrivilege>
	return xReturn;
}
 8003748:	4620      	mov	r0, r4
 800374a:	e8bd 81f0 	ldmia.w	sp!, {r4, r5, r6, r7, r8, pc}

0800374e <MPU_xQueueReceive>:
	return uxReturn;
}
/*-----------------------------------------------------------*/

BaseType_t MPU_xQueueReceive( QueueHandle_t pxQueue, void * const pvBuffer, TickType_t xTicksToWait ) /* FREERTOS_SYSTEM_CALL */
{
 800374e:	b5f8      	push	{r3, r4, r5, r6, r7, lr}
 8003750:	4604      	mov	r4, r0
 8003752:	460e      	mov	r6, r1
 8003754:	4617      	mov	r7, r2
BaseType_t xRunningPrivileged = xPortRaisePrivilege();
 8003756:	f7ff fe7b 	bl	8003450 <xPortRaisePrivilege>
 800375a:	4605      	mov	r5, r0
BaseType_t xReturn;

	xReturn = xQueueReceive( pxQueue, pvBuffer, xTicksToWait );
 800375c:	463a      	mov	r2, r7
 800375e:	4631      	mov	r1, r6
 8003760:	4620      	mov	r0, r4
 8003762:	f7fd fb8f 	bl	8000e84 <xQueueReceive>
 8003766:	4604      	mov	r4, r0
	vPortResetPrivilege( xRunningPrivileged );
 8003768:	4628      	mov	r0, r5
 800376a:	f000 fe9f 	bl	80044ac <vPortResetPrivilege>
	return xReturn;
}
 800376e:	4620      	mov	r0, r4
 8003770:	bdf8      	pop	{r3, r4, r5, r6, r7, pc}

08003772 <MPU_xQueuePeek>:
/*-----------------------------------------------------------*/

BaseType_t MPU_xQueuePeek( QueueHandle_t xQueue, void * const pvBuffer, TickType_t xTicksToWait ) /* FREERTOS_SYSTEM_CALL */
{
 8003772:	b5f8      	push	{r3, r4, r5, r6, r7, lr}
 8003774:	4604      	mov	r4, r0
 8003776:	460e      	mov	r6, r1
 8003778:	4617      	mov	r7, r2
BaseType_t xRunningPrivileged = xPortRaisePrivilege();
 800377a:	f7ff fe69 	bl	8003450 <xPortRaisePrivilege>
 800377e:	4605      	mov	r5, r0
BaseType_t xReturn;

	xReturn = xQueuePeek( xQueue, pvBuffer, xTicksToWait );
 8003780:	463a      	mov	r2, r7
 8003782:	4631      	mov	r1, r6
 8003784:	4620      	mov	r0, r4
 8003786:	f7fd fa8f 	bl	8000ca8 <xQueuePeek>
 800378a:	4604      	mov	r4, r0
	vPortResetPrivilege( xRunningPrivileged );
 800378c:	4628      	mov	r0, r5
 800378e:	f000 fe8d 	bl	80044ac <vPortResetPrivilege>
	return xReturn;
}
 8003792:	4620      	mov	r0, r4
 8003794:	bdf8      	pop	{r3, r4, r5, r6, r7, pc}

08003796 <MPU_xQueueSemaphoreTake>:
/*-----------------------------------------------------------*/

BaseType_t MPU_xQueueSemaphoreTake( QueueHandle_t xQueue, TickType_t xTicksToWait ) /* FREERTOS_SYSTEM_CALL */
{
 8003796:	b570      	push	{r4, r5, r6, lr}
 8003798:	4604      	mov	r4, r0
 800379a:	460e      	mov	r6, r1
BaseType_t xRunningPrivileged = xPortRaisePrivilege();
 800379c:	f7ff fe58 	bl	8003450 <xPortRaisePrivilege>
 80037a0:	4605      	mov	r5, r0
BaseType_t xReturn;

	xReturn = xQueueSemaphoreTake( xQueue, xTicksToWait );
 80037a2:	4631      	mov	r1, r6
 80037a4:	4620      	mov	r0, r4
 80037a6:	f7fd fd89 	bl	80012bc <xQueueSemaphoreTake>
 80037aa:	4604      	mov	r4, r0
	vPortResetPrivilege( xRunningPrivileged );
 80037ac:	4628      	mov	r0, r5
 80037ae:	f000 fe7d 	bl	80044ac <vPortResetPrivilege>
	return xReturn;
}
 80037b2:	4620      	mov	r0, r4
 80037b4:	bd70      	pop	{r4, r5, r6, pc}

080037b6 <MPU_uxQueueMessagesWaiting>:
{
 80037b6:	b538      	push	{r3, r4, r5, lr}
 80037b8:	4604      	mov	r4, r0
BaseType_t xRunningPrivileged = xPortRaisePrivilege();
 80037ba:	f7ff fe49 	bl	8003450 <xPortRaisePrivilege>
 80037be:	4605      	mov	r5, r0
	uxReturn = uxQueueMessagesWaiting( pxQueue );
 80037c0:	4620      	mov	r0, r4
 80037c2:	f7fd fc0e 	bl	8000fe2 <uxQueueMessagesWaiting>
 80037c6:	4604      	mov	r4, r0
	vPortResetPrivilege( xRunningPrivileged );
 80037c8:	4628      	mov	r0, r5
 80037ca:	f000 fe6f 	bl	80044ac <vPortResetPrivilege>
}
 80037ce:	4620      	mov	r0, r4
 80037d0:	bd38      	pop	{r3, r4, r5, pc}

080037d2 <MPU_uxQueueSpacesAvailable>:
{
 80037d2:	b538      	push	{r3, r4, r5, lr}
 80037d4:	4604      	mov	r4, r0
BaseType_t xRunningPrivileged = xPortRaisePrivilege();
 80037d6:	f7ff fe3b 	bl	8003450 <xPortRaisePrivilege>
 80037da:	4605      	mov	r5, r0
	uxReturn = uxQueueSpacesAvailable( xQueue );
 80037dc:	4620      	mov	r0, r4
 80037de:	f7fd fc13 	bl	8001008 <uxQueueSpacesAvailable>
 80037e2:	4604      	mov	r4, r0
	vPortResetPrivilege( xRunningPrivileged );
 80037e4:	4628      	mov	r0, r5
 80037e6:	f000 fe61 	bl	80044ac <vPortResetPrivilege>
}
 80037ea:	4620      	mov	r0, r4
 80037ec:	bd38      	pop	{r3, r4, r5, pc}

080037ee <MPU_vQueueDelete>:
	}
#endif
/*-----------------------------------------------------------*/

void MPU_vQueueDelete( QueueHandle_t xQueue ) /* FREERTOS_SYSTEM_CALL */
{
 80037ee:	b538      	push	{r3, r4, r5, lr}
 80037f0:	4605      	mov	r5, r0
BaseType_t xRunningPrivileged = xPortRaisePrivilege();
 80037f2:	f7ff fe2d 	bl	8003450 <xPortRaisePrivilege>
 80037f6:	4604      	mov	r4, r0

	vQueueDelete( xQueue );
 80037f8:	4628      	mov	r0, r5
 80037fa:	f7fd fe5b 	bl	80014b4 <vQueueDelete>

	vPortResetPrivilege( xRunningPrivileged );
 80037fe:	4620      	mov	r0, r4
 8003800:	f000 fe54 	bl	80044ac <vPortResetPrivilege>
}
 8003804:	bd38      	pop	{r3, r4, r5, pc}

08003806 <MPU_xQueueCreateMutexStatic>:
	{
 8003806:	b570      	push	{r4, r5, r6, lr}
 8003808:	4604      	mov	r4, r0
 800380a:	460e      	mov	r6, r1
	BaseType_t xRunningPrivileged = xPortRaisePrivilege();
 800380c:	f7ff fe20 	bl	8003450 <xPortRaisePrivilege>
 8003810:	4605      	mov	r5, r0
		xReturn = xQueueCreateMutexStatic( ucQueueType, pxStaticQueue );
 8003812:	4631      	mov	r1, r6
 8003814:	4620      	mov	r0, r4
 8003816:	f7fd ff06 	bl	8001626 <xQueueCreateMutexStatic>
 800381a:	4604      	mov	r4, r0
		vPortResetPrivilege( xRunningPrivileged );
 800381c:	4628      	mov	r0, r5
 800381e:	f000 fe45 	bl	80044ac <vPortResetPrivilege>
	}
 8003822:	4620      	mov	r0, r4
 8003824:	bd70      	pop	{r4, r5, r6, pc}

08003826 <MPU_vQueueAddToRegistry>:
	{
 8003826:	b570      	push	{r4, r5, r6, lr}
 8003828:	4605      	mov	r5, r0
 800382a:	460e      	mov	r6, r1
	BaseType_t xRunningPrivileged = xPortRaisePrivilege();
 800382c:	f7ff fe10 	bl	8003450 <xPortRaisePrivilege>
 8003830:	4604      	mov	r4, r0
		vQueueAddToRegistry( xQueue, pcName );
 8003832:	4631      	mov	r1, r6
 8003834:	4628      	mov	r0, r5
 8003836:	f7fd fe14 	bl	8001462 <vQueueAddToRegistry>
		vPortResetPrivilege( xRunningPrivileged );
 800383a:	4620      	mov	r0, r4
 800383c:	f000 fe36 	bl	80044ac <vPortResetPrivilege>
	}
 8003840:	bd70      	pop	{r4, r5, r6, pc}

08003842 <MPU_vQueueUnregisterQueue>:
	{
 8003842:	b538      	push	{r3, r4, r5, lr}
 8003844:	4605      	mov	r5, r0
	BaseType_t xRunningPrivileged = xPortRaisePrivilege();
 8003846:	f7ff fe03 	bl	8003450 <xPortRaisePrivilege>
 800384a:	4604      	mov	r4, r0
		vQueueUnregisterQueue( xQueue );
 800384c:	4628      	mov	r0, r5
 800384e:	f7fd fe1b 	bl	8001488 <vQueueUnregisterQueue>
		vPortResetPrivilege( xRunningPrivileged );
 8003852:	4620      	mov	r0, r4
 8003854:	f000 fe2a 	bl	80044ac <vPortResetPrivilege>
	}
 8003858:	bd38      	pop	{r3, r4, r5, pc}

0800385a <MPU_pcQueueGetName>:
	{
 800385a:	b538      	push	{r3, r4, r5, lr}
 800385c:	4604      	mov	r4, r0
	BaseType_t xRunningPrivileged = xPortRaisePrivilege();
 800385e:	f7ff fdf7 	bl	8003450 <xPortRaisePrivilege>
 8003862:	4605      	mov	r5, r0
		pcReturn = pcQueueGetName( xQueue );
 8003864:	4620      	mov	r0, r4
 8003866:	f7fd fe33 	bl	80014d0 <pcQueueGetName>
 800386a:	4604      	mov	r4, r0
		vPortResetPrivilege( xRunningPrivileged );
 800386c:	4628      	mov	r0, r5
 800386e:	f000 fe1d 	bl	80044ac <vPortResetPrivilege>
	}
 8003872:	4620      	mov	r0, r4
 8003874:	bd38      	pop	{r3, r4, r5, pc}

08003876 <MPU_xQueueGenericCreateStatic>:
	{
 8003876:	e92d 41f0 	stmdb	sp!, {r4, r5, r6, r7, r8, lr}
 800387a:	b082      	sub	sp, #8
 800387c:	4604      	mov	r4, r0
 800387e:	460e      	mov	r6, r1
 8003880:	4617      	mov	r7, r2
 8003882:	4698      	mov	r8, r3
	BaseType_t xRunningPrivileged = xPortRaisePrivilege();
 8003884:	f7ff fde4 	bl	8003450 <xPortRaisePrivilege>
 8003888:	4605      	mov	r5, r0
		xReturn = xQueueGenericCreateStatic( uxQueueLength, uxItemSize, pucQueueStorage, pxStaticQueue, ucQueueType );
 800388a:	f89d 3020 	ldrb.w	r3, [sp, #32]
 800388e:	9300      	str	r3, [sp, #0]
 8003890:	4643      	mov	r3, r8
 8003892:	463a      	mov	r2, r7
 8003894:	4631      	mov	r1, r6
 8003896:	4620      	mov	r0, r4
 8003898:	f7fd fe7e 	bl	8001598 <xQueueGenericCreateStatic>
 800389c:	4604      	mov	r4, r0
		vPortResetPrivilege( xRunningPrivileged );
 800389e:	4628      	mov	r0, r5
 80038a0:	f000 fe04 	bl	80044ac <vPortResetPrivilege>
	}
 80038a4:	4620      	mov	r0, r4
 80038a6:	b002      	add	sp, #8
 80038a8:	e8bd 81f0 	ldmia.w	sp!, {r4, r5, r6, r7, r8, pc}

080038ac <MPU_xQueueGenericReset>:
{
 80038ac:	b570      	push	{r4, r5, r6, lr}
 80038ae:	4604      	mov	r4, r0
 80038b0:	460e      	mov	r6, r1
BaseType_t xRunningPrivileged = xPortRaisePrivilege();
 80038b2:	f7ff fdcd 	bl	8003450 <xPortRaisePrivilege>
 80038b6:	4605      	mov	r5, r0
	xReturn = xQueueGenericReset( pxQueue, xNewQueue );
 80038b8:	4631      	mov	r1, r6
 80038ba:	4620      	mov	r0, r4
 80038bc:	f7fd fe1c 	bl	80014f8 <xQueueGenericReset>
 80038c0:	4604      	mov	r4, r0
	vPortResetPrivilege( xRunningPrivileged );
 80038c2:	4628      	mov	r0, r5
 80038c4:	f000 fdf2 	bl	80044ac <vPortResetPrivilege>
}
 80038c8:	4620      	mov	r0, r4
 80038ca:	bd70      	pop	{r4, r5, r6, pc}

080038cc <MPU_xEventGroupCreateStatic>:
#endif
/*-----------------------------------------------------------*/

#if( configSUPPORT_STATIC_ALLOCATION == 1 )
	EventGroupHandle_t MPU_xEventGroupCreateStatic( StaticEventGroup_t *pxEventGroupBuffer ) /* FREERTOS_SYSTEM_CALL */
	{
 80038cc:	b538      	push	{r3, r4, r5, lr}
 80038ce:	4604      	mov	r4, r0
	EventGroupHandle_t xReturn;
	BaseType_t xRunningPrivileged = xPortRaisePrivilege();
 80038d0:	f7ff fdbe 	bl	8003450 <xPortRaisePrivilege>
 80038d4:	4605      	mov	r5, r0

		xReturn = xEventGroupCreateStatic( pxEventGroupBuffer );
 80038d6:	4620      	mov	r0, r4
 80038d8:	f7fc fc6b 	bl	80001b2 <xEventGroupCreateStatic>
 80038dc:	4604      	mov	r4, r0
		vPortResetPrivilege( xRunningPrivileged );
 80038de:	4628      	mov	r0, r5
 80038e0:	f000 fde4 	bl	80044ac <vPortResetPrivilege>

		return xReturn;
	}
 80038e4:	4620      	mov	r0, r4
 80038e6:	bd38      	pop	{r3, r4, r5, pc}

080038e8 <MPU_xEventGroupWaitBits>:
#endif
/*-----------------------------------------------------------*/

EventBits_t MPU_xEventGroupWaitBits( EventGroupHandle_t xEventGroup, const EventBits_t uxBitsToWaitFor, const BaseType_t xClearOnExit, const BaseType_t xWaitForAllBits, TickType_t xTicksToWait ) /* FREERTOS_SYSTEM_CALL */
{
 80038e8:	e92d 41f0 	stmdb	sp!, {r4, r5, r6, r7, r8, lr}
 80038ec:	b082      	sub	sp, #8
 80038ee:	4604      	mov	r4, r0
 80038f0:	460e      	mov	r6, r1
 80038f2:	4617      	mov	r7, r2
 80038f4:	4698      	mov	r8, r3
EventBits_t xReturn;
BaseType_t xRunningPrivileged = xPortRaisePrivilege();
 80038f6:	f7ff fdab 	bl	8003450 <xPortRaisePrivilege>
 80038fa:	4605      	mov	r5, r0

	xReturn = xEventGroupWaitBits( xEventGroup, uxBitsToWaitFor, xClearOnExit, xWaitForAllBits, xTicksToWait );
 80038fc:	9b08      	ldr	r3, [sp, #32]
 80038fe:	9300      	str	r3, [sp, #0]
 8003900:	4643      	mov	r3, r8
 8003902:	463a      	mov	r2, r7
 8003904:	4631      	mov	r1, r6
 8003906:	4620      	mov	r0, r4
 8003908:	f7fc fc76 	bl	80001f8 <xEventGroupWaitBits>
 800390c:	4604      	mov	r4, r0
	vPortResetPrivilege( xRunningPrivileged );
 800390e:	4628      	mov	r0, r5
 8003910:	f000 fdcc 	bl	80044ac <vPortResetPrivilege>

	return xReturn;
}
 8003914:	4620      	mov	r0, r4
 8003916:	b002      	add	sp, #8
 8003918:	e8bd 81f0 	ldmia.w	sp!, {r4, r5, r6, r7, r8, pc}

0800391c <MPU_xEventGroupClearBits>:
/*-----------------------------------------------------------*/

EventBits_t MPU_xEventGroupClearBits( EventGroupHandle_t xEventGroup, const EventBits_t uxBitsToClear ) /* FREERTOS_SYSTEM_CALL */
{
 800391c:	b570      	push	{r4, r5, r6, lr}
 800391e:	4604      	mov	r4, r0
 8003920:	460e      	mov	r6, r1
EventBits_t xReturn;
BaseType_t xRunningPrivileged = xPortRaisePrivilege();
 8003922:	f7ff fd95 	bl	8003450 <xPortRaisePrivilege>
 8003926:	4605      	mov	r5, r0

	xReturn = xEventGroupClearBits( xEventGroup, uxBitsToClear );
 8003928:	4631      	mov	r1, r6
 800392a:	4620      	mov	r0, r4
 800392c:	f7fc fce9 	bl	8000302 <xEventGroupClearBits>
 8003930:	4604      	mov	r4, r0
	vPortResetPrivilege( xRunningPrivileged );
 8003932:	4628      	mov	r0, r5
 8003934:	f000 fdba 	bl	80044ac <vPortResetPrivilege>

	return xReturn;
}
 8003938:	4620      	mov	r0, r4
 800393a:	bd70      	pop	{r4, r5, r6, pc}

0800393c <MPU_xEventGroupSetBits>:
/*-----------------------------------------------------------*/

EventBits_t MPU_xEventGroupSetBits( EventGroupHandle_t xEventGroup, const EventBits_t uxBitsToSet ) /* FREERTOS_SYSTEM_CALL */
{
 800393c:	b570      	push	{r4, r5, r6, lr}
 800393e:	4604      	mov	r4, r0
 8003940:	460e      	mov	r6, r1
EventBits_t xReturn;
BaseType_t xRunningPrivileged = xPortRaisePrivilege();
 8003942:	f7ff fd85 	bl	8003450 <xPortRaisePrivilege>
 8003946:	4605      	mov	r5, r0

	xReturn = xEventGroupSetBits( xEventGroup, uxBitsToSet );
 8003948:	4631      	mov	r1, r6
 800394a:	4620      	mov	r0, r4
 800394c:	f7fc fcfc 	bl	8000348 <xEventGroupSetBits>
 8003950:	4604      	mov	r4, r0
	vPortResetPrivilege( xRunningPrivileged );
 8003952:	4628      	mov	r0, r5
 8003954:	f000 fdaa 	bl	80044ac <vPortResetPrivilege>

	return xReturn;
}
 8003958:	4620      	mov	r0, r4
 800395a:	bd70      	pop	{r4, r5, r6, pc}

0800395c <MPU_xEventGroupSync>:
/*-----------------------------------------------------------*/

EventBits_t MPU_xEventGroupSync( EventGroupHandle_t xEventGroup, const EventBits_t uxBitsToSet, const EventBits_t uxBitsToWaitFor, TickType_t xTicksToWait ) /* FREERTOS_SYSTEM_CALL */
{
 800395c:	e92d 41f0 	stmdb	sp!, {r4, r5, r6, r7, r8, lr}
 8003960:	4604      	mov	r4, r0
 8003962:	460e      	mov	r6, r1
 8003964:	4617      	mov	r7, r2
 8003966:	4698      	mov	r8, r3
EventBits_t xReturn;
BaseType_t xRunningPrivileged = xPortRaisePrivilege();
 8003968:	f7ff fd72 	bl	8003450 <xPortRaisePrivilege>
 800396c:	4605      	mov	r5, r0

	xReturn = xEventGroupSync( xEventGroup, uxBitsToSet, uxBitsToWaitFor, xTicksToWait );
 800396e:	4643      	mov	r3, r8
 8003970:	463a      	mov	r2, r7
 8003972:	4631      	mov	r1, r6
 8003974:	4620      	mov	r0, r4
 8003976:	f7fc fd2e 	bl	80003d6 <xEventGroupSync>
 800397a:	4604      	mov	r4, r0
	vPortResetPrivilege( xRunningPrivileged );
 800397c:	4628      	mov	r0, r5
 800397e:	f000 fd95 	bl	80044ac <vPortResetPrivilege>

	return xReturn;
}
 8003982:	4620      	mov	r0, r4
 8003984:	e8bd 81f0 	ldmia.w	sp!, {r4, r5, r6, r7, r8, pc}

08003988 <MPU_vEventGroupDelete>:
/*-----------------------------------------------------------*/

void MPU_vEventGroupDelete( EventGroupHandle_t xEventGroup ) /* FREERTOS_SYSTEM_CALL */
{
 8003988:	b538      	push	{r3, r4, r5, lr}
 800398a:	4605      	mov	r5, r0
BaseType_t xRunningPrivileged = xPortRaisePrivilege();
 800398c:	f7ff fd60 	bl	8003450 <xPortRaisePrivilege>
 8003990:	4604      	mov	r4, r0

	vEventGroupDelete( xEventGroup );
 8003992:	4628      	mov	r0, r5
 8003994:	f7fc fd99 	bl	80004ca <vEventGroupDelete>
	vPortResetPrivilege( xRunningPrivileged );
 8003998:	4620      	mov	r0, r4
 800399a:	f000 fd87 	bl	80044ac <vPortResetPrivilege>
}
 800399e:	bd38      	pop	{r3, r4, r5, pc}

080039a0 <MPU_xStreamBufferSend>:
/*-----------------------------------------------------------*/

size_t MPU_xStreamBufferSend( StreamBufferHandle_t xStreamBuffer, const void *pvTxData, size_t xDataLengthBytes, TickType_t xTicksToWait ) /* FREERTOS_SYSTEM_CALL */
{
 80039a0:	e92d 41f0 	stmdb	sp!, {r4, r5, r6, r7, r8, lr}
 80039a4:	4604      	mov	r4, r0
 80039a6:	460e      	mov	r6, r1
 80039a8:	4617      	mov	r7, r2
 80039aa:	4698      	mov	r8, r3
size_t xReturn;
BaseType_t xRunningPrivileged = xPortRaisePrivilege();
 80039ac:	f7ff fd50 	bl	8003450 <xPortRaisePrivilege>
 80039b0:	4605      	mov	r5, r0

	xReturn = xStreamBufferSend( xStreamBuffer, pvTxData, xDataLengthBytes, xTicksToWait );
 80039b2:	4643      	mov	r3, r8
 80039b4:	463a      	mov	r2, r7
 80039b6:	4631      	mov	r1, r6
 80039b8:	4620      	mov	r0, r4
 80039ba:	f7fe f86d 	bl	8001a98 <xStreamBufferSend>
 80039be:	4604      	mov	r4, r0
	vPortResetPrivilege( xRunningPrivileged );
 80039c0:	4628      	mov	r0, r5
 80039c2:	f000 fd73 	bl	80044ac <vPortResetPrivilege>

	return xReturn;
}
 80039c6:	4620      	mov	r0, r4
 80039c8:	e8bd 81f0 	ldmia.w	sp!, {r4, r5, r6, r7, r8, pc}

080039cc <MPU_xStreamBufferReceive>:
	return xReturn;
}
/*-----------------------------------------------------------*/

size_t MPU_xStreamBufferReceive( StreamBufferHandle_t xStreamBuffer, void *pvRxData, size_t xBufferLengthBytes, TickType_t xTicksToWait ) /* FREERTOS_SYSTEM_CALL */
{
 80039cc:	e92d 41f0 	stmdb	sp!, {r4, r5, r6, r7, r8, lr}
 80039d0:	4604      	mov	r4, r0
 80039d2:	460e      	mov	r6, r1
 80039d4:	4617      	mov	r7, r2
 80039d6:	4698      	mov	r8, r3
size_t xReturn;
BaseType_t xRunningPrivileged = xPortRaisePrivilege();
 80039d8:	f7ff fd3a 	bl	8003450 <xPortRaisePrivilege>
 80039dc:	4605      	mov	r5, r0

	xReturn = xStreamBufferReceive( xStreamBuffer, pvRxData, xBufferLengthBytes, xTicksToWait );
 80039de:	4643      	mov	r3, r8
 80039e0:	463a      	mov	r2, r7
 80039e2:	4631      	mov	r1, r6
 80039e4:	4620      	mov	r0, r4
 80039e6:	f7fd ff25 	bl	8001834 <xStreamBufferReceive>
 80039ea:	4604      	mov	r4, r0
	vPortResetPrivilege( xRunningPrivileged );
 80039ec:	4628      	mov	r0, r5
 80039ee:	f000 fd5d 	bl	80044ac <vPortResetPrivilege>

	return xReturn;
}
 80039f2:	4620      	mov	r0, r4
 80039f4:	e8bd 81f0 	ldmia.w	sp!, {r4, r5, r6, r7, r8, pc}

080039f8 <MPU_xStreamBufferNextMessageLengthBytes>:
{
 80039f8:	b538      	push	{r3, r4, r5, lr}
 80039fa:	4604      	mov	r4, r0
BaseType_t xRunningPrivileged = xPortRaisePrivilege();
 80039fc:	f7ff fd28 	bl	8003450 <xPortRaisePrivilege>
 8003a00:	4605      	mov	r5, r0
	xReturn = xStreamBufferNextMessageLengthBytes( xStreamBuffer );
 8003a02:	4620      	mov	r0, r4
 8003a04:	f7fe fa02 	bl	8001e0c <xStreamBufferNextMessageLengthBytes>
 8003a08:	4604      	mov	r4, r0
	vPortResetPrivilege( xRunningPrivileged );
 8003a0a:	4628      	mov	r0, r5
 8003a0c:	f000 fd4e 	bl	80044ac <vPortResetPrivilege>
}
 8003a10:	4620      	mov	r0, r4
 8003a12:	bd38      	pop	{r3, r4, r5, pc}

08003a14 <MPU_vStreamBufferDelete>:
/*-----------------------------------------------------------*/

void MPU_vStreamBufferDelete( StreamBufferHandle_t xStreamBuffer ) /* FREERTOS_SYSTEM_CALL */
{
 8003a14:	b538      	push	{r3, r4, r5, lr}
 8003a16:	4605      	mov	r5, r0
BaseType_t xRunningPrivileged = xPortRaisePrivilege();
 8003a18:	f7ff fd1a 	bl	8003450 <xPortRaisePrivilege>
 8003a1c:	4604      	mov	r4, r0

	vStreamBufferDelete( xStreamBuffer );
 8003a1e:	4628      	mov	r0, r5
 8003a20:	f7fd ffce 	bl	80019c0 <vStreamBufferDelete>
	vPortResetPrivilege( xRunningPrivileged );
 8003a24:	4620      	mov	r0, r4
 8003a26:	f000 fd41 	bl	80044ac <vPortResetPrivilege>
}
 8003a2a:	bd38      	pop	{r3, r4, r5, pc}

08003a2c <MPU_xStreamBufferIsFull>:
/*-----------------------------------------------------------*/

BaseType_t MPU_xStreamBufferIsFull( StreamBufferHandle_t xStreamBuffer ) /* FREERTOS_SYSTEM_CALL */
{
 8003a2c:	b538      	push	{r3, r4, r5, lr}
 8003a2e:	4604      	mov	r4, r0
BaseType_t xReturn;
BaseType_t xRunningPrivileged = xPortRaisePrivilege();
 8003a30:	f7ff fd0e 	bl	8003450 <xPortRaisePrivilege>
 8003a34:	4605      	mov	r5, r0

	xReturn = xStreamBufferIsFull( xStreamBuffer );
 8003a36:	4620      	mov	r0, r4
 8003a38:	f7fe f904 	bl	8001c44 <xStreamBufferIsFull>
 8003a3c:	4604      	mov	r4, r0
	vPortResetPrivilege( xRunningPrivileged );
 8003a3e:	4628      	mov	r0, r5
 8003a40:	f000 fd34 	bl	80044ac <vPortResetPrivilege>

	return xReturn;
}
 8003a44:	4620      	mov	r0, r4
 8003a46:	bd38      	pop	{r3, r4, r5, pc}

08003a48 <MPU_xStreamBufferIsEmpty>:
/*-----------------------------------------------------------*/

BaseType_t MPU_xStreamBufferIsEmpty( StreamBufferHandle_t xStreamBuffer ) /* FREERTOS_SYSTEM_CALL */
{
 8003a48:	b538      	push	{r3, r4, r5, lr}
 8003a4a:	4604      	mov	r4, r0
BaseType_t xReturn;
BaseType_t xRunningPrivileged = xPortRaisePrivilege();
 8003a4c:	f7ff fd00 	bl	8003450 <xPortRaisePrivilege>
 8003a50:	4605      	mov	r5, r0

	xReturn = xStreamBufferIsEmpty( xStreamBuffer );
 8003a52:	4620      	mov	r0, r4
 8003a54:	f7fd ffd4 	bl	8001a00 <xStreamBufferIsEmpty>
 8003a58:	4604      	mov	r4, r0
	vPortResetPrivilege( xRunningPrivileged );
 8003a5a:	4628      	mov	r0, r5
 8003a5c:	f000 fd26 	bl	80044ac <vPortResetPrivilege>

	return xReturn;
}
 8003a60:	4620      	mov	r0, r4
 8003a62:	bd38      	pop	{r3, r4, r5, pc}

08003a64 <MPU_xStreamBufferReset>:
/*-----------------------------------------------------------*/

BaseType_t MPU_xStreamBufferReset( StreamBufferHandle_t xStreamBuffer ) /* FREERTOS_SYSTEM_CALL */
{
 8003a64:	b538      	push	{r3, r4, r5, lr}
 8003a66:	4604      	mov	r4, r0
BaseType_t xReturn;
BaseType_t xRunningPrivileged = xPortRaisePrivilege();
 8003a68:	f7ff fcf2 	bl	8003450 <xPortRaisePrivilege>
 8003a6c:	4605      	mov	r5, r0

	xReturn = xStreamBufferReset( xStreamBuffer );
 8003a6e:	4620      	mov	r0, r4
 8003a70:	f7fd ffd8 	bl	8001a24 <xStreamBufferReset>
 8003a74:	4604      	mov	r4, r0
	vPortResetPrivilege( xRunningPrivileged );
 8003a76:	4628      	mov	r0, r5
 8003a78:	f000 fd18 	bl	80044ac <vPortResetPrivilege>

	return xReturn;
}
 8003a7c:	4620      	mov	r0, r4
 8003a7e:	bd38      	pop	{r3, r4, r5, pc}

08003a80 <MPU_xStreamBufferSpacesAvailable>:
/*-----------------------------------------------------------*/

size_t MPU_xStreamBufferSpacesAvailable( StreamBufferHandle_t xStreamBuffer ) /* FREERTOS_SYSTEM_CALL */
{
 8003a80:	b538      	push	{r3, r4, r5, lr}
 8003a82:	4604      	mov	r4, r0
size_t xReturn;
BaseType_t xRunningPrivileged = xPortRaisePrivilege();
 8003a84:	f7ff fce4 	bl	8003450 <xPortRaisePrivilege>
 8003a88:	4605      	mov	r5, r0

	xReturn = xStreamBufferSpacesAvailable( xStreamBuffer );
 8003a8a:	4620      	mov	r0, r4
 8003a8c:	f7fd ffef 	bl	8001a6e <xStreamBufferSpacesAvailable>
 8003a90:	4604      	mov	r4, r0
	vPortResetPrivilege( xRunningPrivileged );
 8003a92:	4628      	mov	r0, r5
 8003a94:	f000 fd0a 	bl	80044ac <vPortResetPrivilege>

	return xReturn;
}
 8003a98:	4620      	mov	r0, r4
 8003a9a:	bd38      	pop	{r3, r4, r5, pc}

08003a9c <MPU_xStreamBufferBytesAvailable>:
/*-----------------------------------------------------------*/

size_t MPU_xStreamBufferBytesAvailable( StreamBufferHandle_t xStreamBuffer ) /* FREERTOS_SYSTEM_CALL */
{
 8003a9c:	b538      	push	{r3, r4, r5, lr}
 8003a9e:	4604      	mov	r4, r0
size_t xReturn;
BaseType_t xRunningPrivileged = xPortRaisePrivilege();
 8003aa0:	f7ff fcd6 	bl	8003450 <xPortRaisePrivilege>
 8003aa4:	4605      	mov	r5, r0

	xReturn = xStreamBufferBytesAvailable( xStreamBuffer );
 8003aa6:	4620      	mov	r0, r4
 8003aa8:	f7fe f8e8 	bl	8001c7c <xStreamBufferBytesAvailable>
 8003aac:	4604      	mov	r4, r0
	vPortResetPrivilege( xRunningPrivileged );
 8003aae:	4628      	mov	r0, r5
 8003ab0:	f000 fcfc 	bl	80044ac <vPortResetPrivilege>

	return xReturn;
}
 8003ab4:	4620      	mov	r0, r4
 8003ab6:	bd38      	pop	{r3, r4, r5, pc}

08003ab8 <MPU_xStreamBufferSetTriggerLevel>:
/*-----------------------------------------------------------*/

BaseType_t MPU_xStreamBufferSetTriggerLevel( StreamBufferHandle_t xStreamBuffer, size_t xTriggerLevel ) /* FREERTOS_SYSTEM_CALL */
{
 8003ab8:	b570      	push	{r4, r5, r6, lr}
 8003aba:	4604      	mov	r4, r0
 8003abc:	460e      	mov	r6, r1
BaseType_t xReturn;
BaseType_t xRunningPrivileged = xPortRaisePrivilege();
 8003abe:	f7ff fcc7 	bl	8003450 <xPortRaisePrivilege>
 8003ac2:	4605      	mov	r5, r0

	xReturn = xStreamBufferSetTriggerLevel( xStreamBuffer, xTriggerLevel );
 8003ac4:	4631      	mov	r1, r6
 8003ac6:	4620      	mov	r0, r4
 8003ac8:	f7fe f8e6 	bl	8001c98 <xStreamBufferSetTriggerLevel>
 8003acc:	4604      	mov	r4, r0
	vPortResetPrivilege( xRunningPrivileged );
 8003ace:	4628      	mov	r0, r5
 8003ad0:	f000 fcec 	bl	80044ac <vPortResetPrivilege>

	return xReturn;
}
 8003ad4:	4620      	mov	r0, r4
 8003ad6:	bd70      	pop	{r4, r5, r6, pc}

08003ad8 <MPU_xStreamBufferGenericCreateStatic>:
#endif /* configSUPPORT_DYNAMIC_ALLOCATION */
/*-----------------------------------------------------------*/

#if( configSUPPORT_STATIC_ALLOCATION == 1 )
	StreamBufferHandle_t MPU_xStreamBufferGenericCreateStatic( size_t xBufferSizeBytes, size_t xTriggerLevelBytes, BaseType_t xIsMessageBuffer, uint8_t * const pucStreamBufferStorageArea, StaticStreamBuffer_t * const pxStaticStreamBuffer ) /* FREERTOS_SYSTEM_CALL */
	{
 8003ad8:	e92d 41f0 	stmdb	sp!, {r4, r5, r6, r7, r8, lr}
 8003adc:	b082      	sub	sp, #8
 8003ade:	4604      	mov	r4, r0
 8003ae0:	460e      	mov	r6, r1
 8003ae2:	4617      	mov	r7, r2
 8003ae4:	4698      	mov	r8, r3
	StreamBufferHandle_t xReturn;
	BaseType_t xRunningPrivileged = xPortRaisePrivilege();
 8003ae6:	f7ff fcb3 	bl	8003450 <xPortRaisePrivilege>
 8003aea:	4605      	mov	r5, r0

		xReturn = xStreamBufferGenericCreateStatic( xBufferSizeBytes, xTriggerLevelBytes, xIsMessageBuffer, pucStreamBufferStorageArea, pxStaticStreamBuffer );
 8003aec:	9b08      	ldr	r3, [sp, #32]
 8003aee:	9300      	str	r3, [sp, #0]
 8003af0:	4643      	mov	r3, r8
 8003af2:	463a      	mov	r2, r7
 8003af4:	4631      	mov	r1, r6
 8003af6:	4620      	mov	r0, r4
 8003af8:	f7fe f935 	bl	8001d66 <xStreamBufferGenericCreateStatic>
 8003afc:	4604      	mov	r4, r0
		vPortResetPrivilege( xRunningPrivileged );
 8003afe:	4628      	mov	r0, r5
 8003b00:	f000 fcd4 	bl	80044ac <vPortResetPrivilege>

		return xReturn;
	}
 8003b04:	4620      	mov	r0, r4
 8003b06:	b002      	add	sp, #8
 8003b08:	e8bd 81f0 	ldmia.w	sp!, {r4, r5, r6, r7, r8, pc}

08003b0c <deregister_tm_clones>:
 8003b0c:	4803      	ldr	r0, [pc, #12]	@ (8003b1c <deregister_tm_clones+0x10>)
 8003b0e:	4b04      	ldr	r3, [pc, #16]	@ (8003b20 <deregister_tm_clones+0x14>)
 8003b10:	4283      	cmp	r3, r0
 8003b12:	d002      	beq.n	8003b1a <deregister_tm_clones+0xe>
 8003b14:	4b03      	ldr	r3, [pc, #12]	@ (8003b24 <deregister_tm_clones+0x18>)
 8003b16:	b103      	cbz	r3, 8003b1a <deregister_tm_clones+0xe>
 8003b18:	4718      	bx	r3
 8003b1a:	4770      	bx	lr
 8003b1c:	200001fc 	.word	0x200001fc
 8003b20:	200001fc 	.word	0x200001fc
 8003b24:	00000000 	.word	0x00000000

08003b28 <register_tm_clones>:
 8003b28:	4805      	ldr	r0, [pc, #20]	@ (8003b40 <register_tm_clones+0x18>)
 8003b2a:	4b06      	ldr	r3, [pc, #24]	@ (8003b44 <register_tm_clones+0x1c>)
 8003b2c:	1a1b      	subs	r3, r3, r0
 8003b2e:	0fd9      	lsrs	r1, r3, #31
 8003b30:	eb01 01a3 	add.w	r1, r1, r3, asr #2
 8003b34:	1049      	asrs	r1, r1, #1
 8003b36:	d002      	beq.n	8003b3e <register_tm_clones+0x16>
 8003b38:	4b03      	ldr	r3, [pc, #12]	@ (8003b48 <register_tm_clones+0x20>)
 8003b3a:	b103      	cbz	r3, 8003b3e <register_tm_clones+0x16>
 8003b3c:	4718      	bx	r3
 8003b3e:	4770      	bx	lr
 8003b40:	200001fc 	.word	0x200001fc
 8003b44:	200001fc 	.word	0x200001fc
 8003b48:	00000000 	.word	0x00000000

08003b4c <__do_global_dtors_aux>:
 8003b4c:	b510      	push	{r4, lr}
 8003b4e:	4c06      	ldr	r4, [pc, #24]	@ (8003b68 <__do_global_dtors_aux+0x1c>)
 8003b50:	7823      	ldrb	r3, [r4, #0]
 8003b52:	b943      	cbnz	r3, 8003b66 <__do_global_dtors_aux+0x1a>
 8003b54:	f7ff ffda 	bl	8003b0c <deregister_tm_clones>
 8003b58:	4b04      	ldr	r3, [pc, #16]	@ (8003b6c <__do_global_dtors_aux+0x20>)
 8003b5a:	b113      	cbz	r3, 8003b62 <__do_global_dtors_aux+0x16>
 8003b5c:	4804      	ldr	r0, [pc, #16]	@ (8003b70 <__do_global_dtors_aux+0x24>)
 8003b5e:	f3af 8000 	nop.w
 8003b62:	2301      	movs	r3, #1
 8003b64:	7023      	strb	r3, [r4, #0]
 8003b66:	bd10      	pop	{r4, pc}
 8003b68:	20000400 	.word	0x20000400
 8003b6c:	00000000 	.word	0x00000000
 8003b70:	08005e28 	.word	0x08005e28

08003b74 <frame_dummy>:
 8003b74:	b508      	push	{r3, lr}
 8003b76:	4b04      	ldr	r3, [pc, #16]	@ (8003b88 <frame_dummy+0x14>)
 8003b78:	b11b      	cbz	r3, 8003b82 <frame_dummy+0xe>
 8003b7a:	4904      	ldr	r1, [pc, #16]	@ (8003b8c <frame_dummy+0x18>)
 8003b7c:	4804      	ldr	r0, [pc, #16]	@ (8003b90 <frame_dummy+0x1c>)
 8003b7e:	f3af 8000 	nop.w
 8003b82:	e8bd 4008 	ldmia.w	sp!, {r3, lr}
 8003b86:	e7cf      	b.n	8003b28 <register_tm_clones>
 8003b88:	00000000 	.word	0x00000000
 8003b8c:	20000404 	.word	0x20000404
 8003b90:	08005e28 	.word	0x08005e28

08003b94 <__libc_init_array>:
 8003b94:	b570      	push	{r4, r5, r6, lr}
 8003b96:	4b0f      	ldr	r3, [pc, #60]	@ (8003bd4 <__libc_init_array+0x40>)
 8003b98:	4d0f      	ldr	r5, [pc, #60]	@ (8003bd8 <__libc_init_array+0x44>)
 8003b9a:	42ab      	cmp	r3, r5
 8003b9c:	eba3 0605 	sub.w	r6, r3, r5
 8003ba0:	d007      	beq.n	8003bb2 <__libc_init_array+0x1e>
 8003ba2:	10b6      	asrs	r6, r6, #2
 8003ba4:	2400      	movs	r4, #0
 8003ba6:	f855 3b04 	ldr.w	r3, [r5], #4
 8003baa:	3401      	adds	r4, #1
 8003bac:	4798      	blx	r3
 8003bae:	42a6      	cmp	r6, r4
 8003bb0:	d8f9      	bhi.n	8003ba6 <__libc_init_array+0x12>
 8003bb2:	f002 f939 	bl	8005e28 <_init>
 8003bb6:	4d09      	ldr	r5, [pc, #36]	@ (8003bdc <__libc_init_array+0x48>)
 8003bb8:	4b09      	ldr	r3, [pc, #36]	@ (8003be0 <__libc_init_array+0x4c>)
 8003bba:	1b5e      	subs	r6, r3, r5
 8003bbc:	42ab      	cmp	r3, r5
 8003bbe:	ea4f 06a6 	mov.w	r6, r6, asr #2
 8003bc2:	d006      	beq.n	8003bd2 <__libc_init_array+0x3e>
 8003bc4:	2400      	movs	r4, #0
 8003bc6:	f855 3b04 	ldr.w	r3, [r5], #4
 8003bca:	3401      	adds	r4, #1
 8003bcc:	4798      	blx	r3
 8003bce:	42a6      	cmp	r6, r4
 8003bd0:	d8f9      	bhi.n	8003bc6 <__libc_init_array+0x32>
 8003bd2:	bd70      	pop	{r4, r5, r6, pc}
 8003bd4:	08005ea8 	.word	0x08005ea8
 8003bd8:	08005ea8 	.word	0x08005ea8
 8003bdc:	08005ea8 	.word	0x08005ea8
 8003be0:	08005eac 	.word	0x08005eac

08003be4 <memcpy>:
 8003be4:	4684      	mov	ip, r0
 8003be6:	ea41 0300 	orr.w	r3, r1, r0
 8003bea:	f013 0303 	ands.w	r3, r3, #3
 8003bee:	d16d      	bne.n	8003ccc <memcpy+0xe8>
 8003bf0:	3a40      	subs	r2, #64	@ 0x40
 8003bf2:	d341      	bcc.n	8003c78 <memcpy+0x94>
 8003bf4:	f851 3b04 	ldr.w	r3, [r1], #4
 8003bf8:	f840 3b04 	str.w	r3, [r0], #4
 8003bfc:	f851 3b04 	ldr.w	r3, [r1], #4
 8003c00:	f840 3b04 	str.w	r3, [r0], #4
 8003c04:	f851 3b04 	ldr.w	r3, [r1], #4
 8003c08:	f840 3b04 	str.w	r3, [r0], #4
 8003c0c:	f851 3b04 	ldr.w	r3, [r1], #4
 8003c10:	f840 3b04 	str.w	r3, [r0], #4
 8003c14:	f851 3b04 	ldr.w	r3, [r1], #4
 8003c18:	f840 3b04 	str.w	r3, [r0], #4
 8003c1c:	f851 3b04 	ldr.w	r3, [r1], #4
 8003c20:	f840 3b04 	str.w	r3, [r0], #4
 8003c24:	f851 3b04 	ldr.w	r3, [r1], #4
 8003c28:	f840 3b04 	str.w	r3, [r0], #4
 8003c2c:	f851 3b04 	ldr.w	r3, [r1], #4
 8003c30:	f840 3b04 	str.w	r3, [r0], #4
 8003c34:	f851 3b04 	ldr.w	r3, [r1], #4
 8003c38:	f840 3b04 	str.w	r3, [r0], #4
 8003c3c:	f851 3b04 	ldr.w	r3, [r1], #4
 8003c40:	f840 3b04 	str.w	r3, [r0], #4
 8003c44:	f851 3b04 	ldr.w	r3, [r1], #4
 8003c48:	f840 3b04 	str.w	r3, [r0], #4
 8003c4c:	f851 3b04 	ldr.w	r3, [r1], #4
 8003c50:	f840 3b04 	str.w	r3, [r0], #4
 8003c54:	f851 3b04 	ldr.w	r3, [r1], #4
 8003c58:	f840 3b04 	str.w	r3, [r0], #4
 8003c5c:	f851 3b04 	ldr.w	r3, [r1], #4
 8003c60:	f840 3b04 	str.w	r3, [r0], #4
 8003c64:	f851 3b04 	ldr.w	r3, [r1], #4
 8003c68:	f840 3b04 	str.w	r3, [r0], #4
 8003c6c:	f851 3b04 	ldr.w	r3, [r1], #4
 8003c70:	f840 3b04 	str.w	r3, [r0], #4
 8003c74:	3a40      	subs	r2, #64	@ 0x40
 8003c76:	d2bd      	bcs.n	8003bf4 <memcpy+0x10>
 8003c78:	3230      	adds	r2, #48	@ 0x30
 8003c7a:	d311      	bcc.n	8003ca0 <memcpy+0xbc>
 8003c7c:	f851 3b04 	ldr.w	r3, [r1], #4
 8003c80:	f840 3b04 	str.w	r3, [r0], #4
 8003c84:	f851 3b04 	ldr.w	r3, [r1], #4
 8003c88:	f840 3b04 	str.w	r3, [r0], #4
 8003c8c:	f851 3b04 	ldr.w	r3, [r1], #4
 8003c90:	f840 3b04 	str.w	r3, [r0], #4
 8003c94:	f851 3b04 	ldr.w	r3, [r1], #4
 8003c98:	f840 3b04 	str.w	r3, [r0], #4
 8003c9c:	3a10      	subs	r2, #16
 8003c9e:	d2ed      	bcs.n	8003c7c <memcpy+0x98>
 8003ca0:	320c      	adds	r2, #12
 8003ca2:	d305      	bcc.n	8003cb0 <memcpy+0xcc>
 8003ca4:	f851 3b04 	ldr.w	r3, [r1], #4
 8003ca8:	f840 3b04 	str.w	r3, [r0], #4
 8003cac:	3a04      	subs	r2, #4
 8003cae:	d2f9      	bcs.n	8003ca4 <memcpy+0xc0>
 8003cb0:	3204      	adds	r2, #4
 8003cb2:	d008      	beq.n	8003cc6 <memcpy+0xe2>
 8003cb4:	07d2      	lsls	r2, r2, #31
 8003cb6:	bf1c      	itt	ne
 8003cb8:	f811 3b01 	ldrbne.w	r3, [r1], #1
 8003cbc:	f800 3b01 	strbne.w	r3, [r0], #1
 8003cc0:	d301      	bcc.n	8003cc6 <memcpy+0xe2>
 8003cc2:	880b      	ldrh	r3, [r1, #0]
 8003cc4:	8003      	strh	r3, [r0, #0]
 8003cc6:	4660      	mov	r0, ip
 8003cc8:	4770      	bx	lr
 8003cca:	bf00      	nop
 8003ccc:	2a08      	cmp	r2, #8
 8003cce:	d313      	bcc.n	8003cf8 <memcpy+0x114>
 8003cd0:	078b      	lsls	r3, r1, #30
 8003cd2:	d08d      	beq.n	8003bf0 <memcpy+0xc>
 8003cd4:	f010 0303 	ands.w	r3, r0, #3
 8003cd8:	d08a      	beq.n	8003bf0 <memcpy+0xc>
 8003cda:	f1c3 0304 	rsb	r3, r3, #4
 8003cde:	1ad2      	subs	r2, r2, r3
 8003ce0:	07db      	lsls	r3, r3, #31
 8003ce2:	bf1c      	itt	ne
 8003ce4:	f811 3b01 	ldrbne.w	r3, [r1], #1
 8003ce8:	f800 3b01 	strbne.w	r3, [r0], #1
 8003cec:	d380      	bcc.n	8003bf0 <memcpy+0xc>
 8003cee:	f831 3b02 	ldrh.w	r3, [r1], #2
 8003cf2:	f820 3b02 	strh.w	r3, [r0], #2
 8003cf6:	e77b      	b.n	8003bf0 <memcpy+0xc>
 8003cf8:	3a04      	subs	r2, #4
 8003cfa:	d3d9      	bcc.n	8003cb0 <memcpy+0xcc>
 8003cfc:	3a01      	subs	r2, #1
 8003cfe:	f811 3b01 	ldrb.w	r3, [r1], #1
 8003d02:	f800 3b01 	strb.w	r3, [r0], #1
 8003d06:	d2f9      	bcs.n	8003cfc <memcpy+0x118>
 8003d08:	780b      	ldrb	r3, [r1, #0]
 8003d0a:	7003      	strb	r3, [r0, #0]
 8003d0c:	784b      	ldrb	r3, [r1, #1]
 8003d0e:	7043      	strb	r3, [r0, #1]
 8003d10:	788b      	ldrb	r3, [r1, #2]
 8003d12:	7083      	strb	r3, [r0, #2]
 8003d14:	4660      	mov	r0, ip
 8003d16:	4770      	bx	lr

08003d18 <memset>:
 8003d18:	0783      	lsls	r3, r0, #30
 8003d1a:	b530      	push	{r4, r5, lr}
 8003d1c:	d047      	beq.n	8003dae <memset+0x96>
 8003d1e:	1e54      	subs	r4, r2, #1
 8003d20:	2a00      	cmp	r2, #0
 8003d22:	d03e      	beq.n	8003da2 <memset+0x8a>
 8003d24:	b2ca      	uxtb	r2, r1
 8003d26:	4603      	mov	r3, r0
 8003d28:	e001      	b.n	8003d2e <memset+0x16>
 8003d2a:	3c01      	subs	r4, #1
 8003d2c:	d339      	bcc.n	8003da2 <memset+0x8a>
 8003d2e:	f803 2b01 	strb.w	r2, [r3], #1
 8003d32:	079d      	lsls	r5, r3, #30
 8003d34:	d1f9      	bne.n	8003d2a <memset+0x12>
 8003d36:	2c03      	cmp	r4, #3
 8003d38:	d92c      	bls.n	8003d94 <memset+0x7c>
 8003d3a:	b2cd      	uxtb	r5, r1
 8003d3c:	eb05 2505 	add.w	r5, r5, r5, lsl #8
 8003d40:	2c0f      	cmp	r4, #15
 8003d42:	eb05 4505 	add.w	r5, r5, r5, lsl #16
 8003d46:	d935      	bls.n	8003db4 <memset+0x9c>
 8003d48:	f1a4 0210 	sub.w	r2, r4, #16
 8003d4c:	f022 0c0f 	bic.w	ip, r2, #15
 8003d50:	f103 0e10 	add.w	lr, r3, #16
 8003d54:	44e6      	add	lr, ip
 8003d56:	ea4f 1c12 	mov.w	ip, r2, lsr #4
 8003d5a:	461a      	mov	r2, r3
 8003d5c:	6015      	str	r5, [r2, #0]
 8003d5e:	6055      	str	r5, [r2, #4]
 8003d60:	6095      	str	r5, [r2, #8]
 8003d62:	60d5      	str	r5, [r2, #12]
 8003d64:	3210      	adds	r2, #16
 8003d66:	4572      	cmp	r2, lr
 8003d68:	d1f8      	bne.n	8003d5c <memset+0x44>
 8003d6a:	f10c 0201 	add.w	r2, ip, #1
 8003d6e:	f014 0f0c 	tst.w	r4, #12
 8003d72:	eb03 1202 	add.w	r2, r3, r2, lsl #4
 8003d76:	f004 0c0f 	and.w	ip, r4, #15
 8003d7a:	d013      	beq.n	8003da4 <memset+0x8c>
 8003d7c:	f1ac 0304 	sub.w	r3, ip, #4
 8003d80:	f023 0303 	bic.w	r3, r3, #3
 8003d84:	3304      	adds	r3, #4
 8003d86:	4413      	add	r3, r2
 8003d88:	f842 5b04 	str.w	r5, [r2], #4
 8003d8c:	429a      	cmp	r2, r3
 8003d8e:	d1fb      	bne.n	8003d88 <memset+0x70>
 8003d90:	f00c 0403 	and.w	r4, ip, #3
 8003d94:	b12c      	cbz	r4, 8003da2 <memset+0x8a>
 8003d96:	b2c9      	uxtb	r1, r1
 8003d98:	441c      	add	r4, r3
 8003d9a:	f803 1b01 	strb.w	r1, [r3], #1
 8003d9e:	429c      	cmp	r4, r3
 8003da0:	d1fb      	bne.n	8003d9a <memset+0x82>
 8003da2:	bd30      	pop	{r4, r5, pc}
 8003da4:	4664      	mov	r4, ip
 8003da6:	4613      	mov	r3, r2
 8003da8:	2c00      	cmp	r4, #0
 8003daa:	d1f4      	bne.n	8003d96 <memset+0x7e>
 8003dac:	e7f9      	b.n	8003da2 <memset+0x8a>
 8003dae:	4603      	mov	r3, r0
 8003db0:	4614      	mov	r4, r2
 8003db2:	e7c0      	b.n	8003d36 <memset+0x1e>
 8003db4:	461a      	mov	r2, r3
 8003db6:	46a4      	mov	ip, r4
 8003db8:	e7e0      	b.n	8003d7c <memset+0x64>
 8003dba:	bf00      	nop

08003dbc <__aeabi_uldivmod>:
 8003dbc:	b953      	cbnz	r3, 8003dd4 <__aeabi_uldivmod+0x18>
 8003dbe:	b94a      	cbnz	r2, 8003dd4 <__aeabi_uldivmod+0x18>
 8003dc0:	2900      	cmp	r1, #0
 8003dc2:	bf08      	it	eq
 8003dc4:	2800      	cmpeq	r0, #0
 8003dc6:	bf1c      	itt	ne
 8003dc8:	f04f 31ff 	movne.w	r1, #4294967295	@ 0xffffffff
 8003dcc:	f04f 30ff 	movne.w	r0, #4294967295	@ 0xffffffff
 8003dd0:	f000 b96a 	b.w	80040a8 <__aeabi_idiv0>
 8003dd4:	f1ad 0c08 	sub.w	ip, sp, #8
 8003dd8:	e96d ce04 	strd	ip, lr, [sp, #-16]!
 8003ddc:	f000 f806 	bl	8003dec <__udivmoddi4>
 8003de0:	f8dd e004 	ldr.w	lr, [sp, #4]
 8003de4:	e9dd 2302 	ldrd	r2, r3, [sp, #8]
 8003de8:	b004      	add	sp, #16
 8003dea:	4770      	bx	lr

08003dec <__udivmoddi4>:
 8003dec:	e92d 47f0 	stmdb	sp!, {r4, r5, r6, r7, r8, r9, sl, lr}
 8003df0:	9d08      	ldr	r5, [sp, #32]
 8003df2:	460c      	mov	r4, r1
 8003df4:	2b00      	cmp	r3, #0
 8003df6:	d14e      	bne.n	8003e96 <__udivmoddi4+0xaa>
 8003df8:	4694      	mov	ip, r2
 8003dfa:	458c      	cmp	ip, r1
 8003dfc:	4686      	mov	lr, r0
 8003dfe:	fab2 f282 	clz	r2, r2
 8003e02:	d962      	bls.n	8003eca <__udivmoddi4+0xde>
 8003e04:	b14a      	cbz	r2, 8003e1a <__udivmoddi4+0x2e>
 8003e06:	f1c2 0320 	rsb	r3, r2, #32
 8003e0a:	4091      	lsls	r1, r2
 8003e0c:	fa20 f303 	lsr.w	r3, r0, r3
 8003e10:	fa0c fc02 	lsl.w	ip, ip, r2
 8003e14:	4319      	orrs	r1, r3
 8003e16:	fa00 fe02 	lsl.w	lr, r0, r2
 8003e1a:	ea4f 471c 	mov.w	r7, ip, lsr #16
 8003e1e:	fa1f f68c 	uxth.w	r6, ip
 8003e22:	fbb1 f4f7 	udiv	r4, r1, r7
 8003e26:	ea4f 431e 	mov.w	r3, lr, lsr #16
 8003e2a:	fb07 1114 	mls	r1, r7, r4, r1
 8003e2e:	ea43 4301 	orr.w	r3, r3, r1, lsl #16
 8003e32:	fb04 f106 	mul.w	r1, r4, r6
 8003e36:	4299      	cmp	r1, r3
 8003e38:	d90a      	bls.n	8003e50 <__udivmoddi4+0x64>
 8003e3a:	eb1c 0303 	adds.w	r3, ip, r3
 8003e3e:	f104 30ff 	add.w	r0, r4, #4294967295	@ 0xffffffff
 8003e42:	f080 8113 	bcs.w	800406c <__udivmoddi4+0x280>
 8003e46:	4299      	cmp	r1, r3
 8003e48:	f240 8110 	bls.w	800406c <__udivmoddi4+0x280>
 8003e4c:	3c02      	subs	r4, #2
 8003e4e:	4463      	add	r3, ip
 8003e50:	1a59      	subs	r1, r3, r1
 8003e52:	fa1f f38e 	uxth.w	r3, lr
 8003e56:	fbb1 f0f7 	udiv	r0, r1, r7
 8003e5a:	fb07 1110 	mls	r1, r7, r0, r1
 8003e5e:	ea43 4301 	orr.w	r3, r3, r1, lsl #16
 8003e62:	fb00 f606 	mul.w	r6, r0, r6
 8003e66:	429e      	cmp	r6, r3
 8003e68:	d90a      	bls.n	8003e80 <__udivmoddi4+0x94>
 8003e6a:	eb1c 0303 	adds.w	r3, ip, r3
 8003e6e:	f100 31ff 	add.w	r1, r0, #4294967295	@ 0xffffffff
 8003e72:	f080 80fd 	bcs.w	8004070 <__udivmoddi4+0x284>
 8003e76:	429e      	cmp	r6, r3
 8003e78:	f240 80fa 	bls.w	8004070 <__udivmoddi4+0x284>
 8003e7c:	4463      	add	r3, ip
 8003e7e:	3802      	subs	r0, #2
 8003e80:	1b9b      	subs	r3, r3, r6
 8003e82:	ea40 4004 	orr.w	r0, r0, r4, lsl #16
 8003e86:	2100      	movs	r1, #0
 8003e88:	b11d      	cbz	r5, 8003e92 <__udivmoddi4+0xa6>
 8003e8a:	40d3      	lsrs	r3, r2
 8003e8c:	2200      	movs	r2, #0
 8003e8e:	e9c5 3200 	strd	r3, r2, [r5]
 8003e92:	e8bd 87f0 	ldmia.w	sp!, {r4, r5, r6, r7, r8, r9, sl, pc}
 8003e96:	428b      	cmp	r3, r1
 8003e98:	d905      	bls.n	8003ea6 <__udivmoddi4+0xba>
 8003e9a:	b10d      	cbz	r5, 8003ea0 <__udivmoddi4+0xb4>
 8003e9c:	e9c5 0100 	strd	r0, r1, [r5]
 8003ea0:	2100      	movs	r1, #0
 8003ea2:	4608      	mov	r0, r1
 8003ea4:	e7f5      	b.n	8003e92 <__udivmoddi4+0xa6>
 8003ea6:	fab3 f183 	clz	r1, r3
 8003eaa:	2900      	cmp	r1, #0
 8003eac:	d146      	bne.n	8003f3c <__udivmoddi4+0x150>
 8003eae:	42a3      	cmp	r3, r4
 8003eb0:	d302      	bcc.n	8003eb8 <__udivmoddi4+0xcc>
 8003eb2:	4290      	cmp	r0, r2
 8003eb4:	f0c0 80f1 	bcc.w	800409a <__udivmoddi4+0x2ae>
 8003eb8:	1a86      	subs	r6, r0, r2
 8003eba:	eb64 0303 	sbc.w	r3, r4, r3
 8003ebe:	2001      	movs	r0, #1
 8003ec0:	2d00      	cmp	r5, #0
 8003ec2:	d0e6      	beq.n	8003e92 <__udivmoddi4+0xa6>
 8003ec4:	e9c5 6300 	strd	r6, r3, [r5]
 8003ec8:	e7e3      	b.n	8003e92 <__udivmoddi4+0xa6>
 8003eca:	2a00      	cmp	r2, #0
 8003ecc:	f040 8091 	bne.w	8003ff2 <__udivmoddi4+0x206>
 8003ed0:	eba1 040c 	sub.w	r4, r1, ip
 8003ed4:	ea4f 481c 	mov.w	r8, ip, lsr #16
 8003ed8:	fa1f f78c 	uxth.w	r7, ip
 8003edc:	2101      	movs	r1, #1
 8003ede:	fbb4 f6f8 	udiv	r6, r4, r8
 8003ee2:	ea4f 431e 	mov.w	r3, lr, lsr #16
 8003ee6:	fb08 4416 	mls	r4, r8, r6, r4
 8003eea:	ea43 4304 	orr.w	r3, r3, r4, lsl #16
 8003eee:	fb07 f006 	mul.w	r0, r7, r6
 8003ef2:	4298      	cmp	r0, r3
 8003ef4:	d908      	bls.n	8003f08 <__udivmoddi4+0x11c>
 8003ef6:	eb1c 0303 	adds.w	r3, ip, r3
 8003efa:	f106 34ff 	add.w	r4, r6, #4294967295	@ 0xffffffff
 8003efe:	d202      	bcs.n	8003f06 <__udivmoddi4+0x11a>
 8003f00:	4298      	cmp	r0, r3
 8003f02:	f200 80ce 	bhi.w	80040a2 <__udivmoddi4+0x2b6>
 8003f06:	4626      	mov	r6, r4
 8003f08:	1a1c      	subs	r4, r3, r0
 8003f0a:	fa1f f38e 	uxth.w	r3, lr
 8003f0e:	fbb4 f0f8 	udiv	r0, r4, r8
 8003f12:	fb08 4410 	mls	r4, r8, r0, r4
 8003f16:	ea43 4304 	orr.w	r3, r3, r4, lsl #16
 8003f1a:	fb00 f707 	mul.w	r7, r0, r7
 8003f1e:	429f      	cmp	r7, r3
 8003f20:	d908      	bls.n	8003f34 <__udivmoddi4+0x148>
 8003f22:	eb1c 0303 	adds.w	r3, ip, r3
 8003f26:	f100 34ff 	add.w	r4, r0, #4294967295	@ 0xffffffff
 8003f2a:	d202      	bcs.n	8003f32 <__udivmoddi4+0x146>
 8003f2c:	429f      	cmp	r7, r3
 8003f2e:	f200 80b1 	bhi.w	8004094 <__udivmoddi4+0x2a8>
 8003f32:	4620      	mov	r0, r4
 8003f34:	1bdb      	subs	r3, r3, r7
 8003f36:	ea40 4006 	orr.w	r0, r0, r6, lsl #16
 8003f3a:	e7a5      	b.n	8003e88 <__udivmoddi4+0x9c>
 8003f3c:	f1c1 0620 	rsb	r6, r1, #32
 8003f40:	408b      	lsls	r3, r1
 8003f42:	fa22 f706 	lsr.w	r7, r2, r6
 8003f46:	431f      	orrs	r7, r3
 8003f48:	fa20 fc06 	lsr.w	ip, r0, r6
 8003f4c:	fa04 f301 	lsl.w	r3, r4, r1
 8003f50:	ea43 030c 	orr.w	r3, r3, ip
 8003f54:	40f4      	lsrs	r4, r6
 8003f56:	fa00 f801 	lsl.w	r8, r0, r1
 8003f5a:	0c38      	lsrs	r0, r7, #16
 8003f5c:	ea4f 4913 	mov.w	r9, r3, lsr #16
 8003f60:	fbb4 fef0 	udiv	lr, r4, r0
 8003f64:	fa1f fc87 	uxth.w	ip, r7
 8003f68:	fb00 441e 	mls	r4, r0, lr, r4
 8003f6c:	ea49 4404 	orr.w	r4, r9, r4, lsl #16
 8003f70:	fb0e f90c 	mul.w	r9, lr, ip
 8003f74:	45a1      	cmp	r9, r4
 8003f76:	fa02 f201 	lsl.w	r2, r2, r1
 8003f7a:	d90a      	bls.n	8003f92 <__udivmoddi4+0x1a6>
 8003f7c:	193c      	adds	r4, r7, r4
 8003f7e:	f10e 3aff 	add.w	sl, lr, #4294967295	@ 0xffffffff
 8003f82:	f080 8085 	bcs.w	8004090 <__udivmoddi4+0x2a4>
 8003f86:	45a1      	cmp	r9, r4
 8003f88:	f240 8082 	bls.w	8004090 <__udivmoddi4+0x2a4>
 8003f8c:	f1ae 0e02 	sub.w	lr, lr, #2
 8003f90:	443c      	add	r4, r7
 8003f92:	eba4 0409 	sub.w	r4, r4, r9
 8003f96:	fa1f f983 	uxth.w	r9, r3
 8003f9a:	fbb4 f3f0 	udiv	r3, r4, r0
 8003f9e:	fb00 4413 	mls	r4, r0, r3, r4
 8003fa2:	ea49 4404 	orr.w	r4, r9, r4, lsl #16
 8003fa6:	fb03 fc0c 	mul.w	ip, r3, ip
 8003faa:	45a4      	cmp	ip, r4
 8003fac:	d907      	bls.n	8003fbe <__udivmoddi4+0x1d2>
 8003fae:	193c      	adds	r4, r7, r4
 8003fb0:	f103 30ff 	add.w	r0, r3, #4294967295	@ 0xffffffff
 8003fb4:	d268      	bcs.n	8004088 <__udivmoddi4+0x29c>
 8003fb6:	45a4      	cmp	ip, r4
 8003fb8:	d966      	bls.n	8004088 <__udivmoddi4+0x29c>
 8003fba:	3b02      	subs	r3, #2
 8003fbc:	443c      	add	r4, r7
 8003fbe:	ea43 400e 	orr.w	r0, r3, lr, lsl #16
 8003fc2:	fba0 9302 	umull	r9, r3, r0, r2
 8003fc6:	eba4 040c 	sub.w	r4, r4, ip
 8003fca:	429c      	cmp	r4, r3
 8003fcc:	46ce      	mov	lr, r9
 8003fce:	469c      	mov	ip, r3
 8003fd0:	d352      	bcc.n	8004078 <__udivmoddi4+0x28c>
 8003fd2:	d04f      	beq.n	8004074 <__udivmoddi4+0x288>
 8003fd4:	b155      	cbz	r5, 8003fec <__udivmoddi4+0x200>
 8003fd6:	ebb8 030e 	subs.w	r3, r8, lr
 8003fda:	eb64 040c 	sbc.w	r4, r4, ip
 8003fde:	fa04 f606 	lsl.w	r6, r4, r6
 8003fe2:	40cb      	lsrs	r3, r1
 8003fe4:	40cc      	lsrs	r4, r1
 8003fe6:	431e      	orrs	r6, r3
 8003fe8:	e9c5 6400 	strd	r6, r4, [r5]
 8003fec:	2100      	movs	r1, #0
 8003fee:	e8bd 87f0 	ldmia.w	sp!, {r4, r5, r6, r7, r8, r9, sl, pc}
 8003ff2:	f1c2 0320 	rsb	r3, r2, #32
 8003ff6:	fa20 f103 	lsr.w	r1, r0, r3
 8003ffa:	fa0c fc02 	lsl.w	ip, ip, r2
 8003ffe:	fa24 f303 	lsr.w	r3, r4, r3
 8004002:	4094      	lsls	r4, r2
 8004004:	430c      	orrs	r4, r1
 8004006:	ea4f 481c 	mov.w	r8, ip, lsr #16
 800400a:	fa00 fe02 	lsl.w	lr, r0, r2
 800400e:	fa1f f78c 	uxth.w	r7, ip
 8004012:	fbb3 f0f8 	udiv	r0, r3, r8
 8004016:	fb08 3110 	mls	r1, r8, r0, r3
 800401a:	0c23      	lsrs	r3, r4, #16
 800401c:	ea43 4301 	orr.w	r3, r3, r1, lsl #16
 8004020:	fb00 f107 	mul.w	r1, r0, r7
 8004024:	4299      	cmp	r1, r3
 8004026:	d908      	bls.n	800403a <__udivmoddi4+0x24e>
 8004028:	eb1c 0303 	adds.w	r3, ip, r3
 800402c:	f100 36ff 	add.w	r6, r0, #4294967295	@ 0xffffffff
 8004030:	d22c      	bcs.n	800408c <__udivmoddi4+0x2a0>
 8004032:	4299      	cmp	r1, r3
 8004034:	d92a      	bls.n	800408c <__udivmoddi4+0x2a0>
 8004036:	3802      	subs	r0, #2
 8004038:	4463      	add	r3, ip
 800403a:	1a5b      	subs	r3, r3, r1
 800403c:	b2a4      	uxth	r4, r4
 800403e:	fbb3 f1f8 	udiv	r1, r3, r8
 8004042:	fb08 3311 	mls	r3, r8, r1, r3
 8004046:	ea44 4403 	orr.w	r4, r4, r3, lsl #16
 800404a:	fb01 f307 	mul.w	r3, r1, r7
 800404e:	42a3      	cmp	r3, r4
 8004050:	d908      	bls.n	8004064 <__udivmoddi4+0x278>
 8004052:	eb1c 0404 	adds.w	r4, ip, r4
 8004056:	f101 36ff 	add.w	r6, r1, #4294967295	@ 0xffffffff
 800405a:	d213      	bcs.n	8004084 <__udivmoddi4+0x298>
 800405c:	42a3      	cmp	r3, r4
 800405e:	d911      	bls.n	8004084 <__udivmoddi4+0x298>
 8004060:	3902      	subs	r1, #2
 8004062:	4464      	add	r4, ip
 8004064:	1ae4      	subs	r4, r4, r3
 8004066:	ea41 4100 	orr.w	r1, r1, r0, lsl #16
 800406a:	e738      	b.n	8003ede <__udivmoddi4+0xf2>
 800406c:	4604      	mov	r4, r0
 800406e:	e6ef      	b.n	8003e50 <__udivmoddi4+0x64>
 8004070:	4608      	mov	r0, r1
 8004072:	e705      	b.n	8003e80 <__udivmoddi4+0x94>
 8004074:	45c8      	cmp	r8, r9
 8004076:	d2ad      	bcs.n	8003fd4 <__udivmoddi4+0x1e8>
 8004078:	ebb9 0e02 	subs.w	lr, r9, r2
 800407c:	eb63 0c07 	sbc.w	ip, r3, r7
 8004080:	3801      	subs	r0, #1
 8004082:	e7a7      	b.n	8003fd4 <__udivmoddi4+0x1e8>
 8004084:	4631      	mov	r1, r6
 8004086:	e7ed      	b.n	8004064 <__udivmoddi4+0x278>
 8004088:	4603      	mov	r3, r0
 800408a:	e798      	b.n	8003fbe <__udivmoddi4+0x1d2>
 800408c:	4630      	mov	r0, r6
 800408e:	e7d4      	b.n	800403a <__udivmoddi4+0x24e>
 8004090:	46d6      	mov	lr, sl
 8004092:	e77e      	b.n	8003f92 <__udivmoddi4+0x1a6>
 8004094:	4463      	add	r3, ip
 8004096:	3802      	subs	r0, #2
 8004098:	e74c      	b.n	8003f34 <__udivmoddi4+0x148>
 800409a:	4606      	mov	r6, r0
 800409c:	4623      	mov	r3, r4
 800409e:	4608      	mov	r0, r1
 80040a0:	e70e      	b.n	8003ec0 <__udivmoddi4+0xd4>
 80040a2:	3e02      	subs	r6, #2
 80040a4:	4463      	add	r3, ip
 80040a6:	e72f      	b.n	8003f08 <__udivmoddi4+0x11c>

080040a8 <__aeabi_idiv0>:
 80040a8:	4770      	bx	lr
 80040aa:	bf00      	nop

080040ac <MX_ADC1_Init>:

ADC_HandleTypeDef hadc1;

/* ADC1 init function */
void MX_ADC1_Init(void)
{
 80040ac:	b500      	push	{lr}
 80040ae:	b085      	sub	sp, #20

  /* USER CODE BEGIN ADC1_Init 0 */

  /* USER CODE END ADC1_Init 0 */

  ADC_ChannelConfTypeDef sConfig = {0};
 80040b0:	2300      	movs	r3, #0
 80040b2:	9300      	str	r3, [sp, #0]
 80040b4:	9301      	str	r3, [sp, #4]
 80040b6:	9302      	str	r3, [sp, #8]
 80040b8:	9303      	str	r3, [sp, #12]

  /* USER CODE END ADC1_Init 1 */

  /** Configure the global features of the ADC (Clock, Resolution, Data Alignment and number of conversion)
  */
  hadc1.Instance = ADC1;
 80040ba:	4817      	ldr	r0, [pc, #92]	@ (8004118 <MX_ADC1_Init+0x6c>)
 80040bc:	4a17      	ldr	r2, [pc, #92]	@ (800411c <MX_ADC1_Init+0x70>)
 80040be:	6002      	str	r2, [r0, #0]
  hadc1.Init.ClockPrescaler = ADC_CLOCK_SYNC_PCLK_DIV4;
 80040c0:	f44f 3280 	mov.w	r2, #65536	@ 0x10000
 80040c4:	6042      	str	r2, [r0, #4]
  hadc1.Init.Resolution = ADC_RESOLUTION_12B;
 80040c6:	6083      	str	r3, [r0, #8]
  hadc1.Init.ScanConvMode = DISABLE;
 80040c8:	6103      	str	r3, [r0, #16]
  hadc1.Init.ContinuousConvMode = DISABLE;
 80040ca:	7603      	strb	r3, [r0, #24]
  hadc1.Init.DiscontinuousConvMode = DISABLE;
 80040cc:	f880 3020 	strb.w	r3, [r0, #32]
  hadc1.Init.ExternalTrigConvEdge = ADC_EXTERNALTRIGCONVEDGE_RISING;
 80040d0:	f04f 5280 	mov.w	r2, #268435456	@ 0x10000000
 80040d4:	62c2      	str	r2, [r0, #44]	@ 0x2c
  hadc1.Init.ExternalTrigConv = ADC_EXTERNALTRIGCONV_T3_TRGO;
 80040d6:	f04f 6200 	mov.w	r2, #134217728	@ 0x8000000
 80040da:	6282      	str	r2, [r0, #40]	@ 0x28
  hadc1.Init.DataAlign = ADC_DATAALIGN_RIGHT;
 80040dc:	60c3      	str	r3, [r0, #12]
  hadc1.Init.NbrOfConversion = 1;
 80040de:	2201      	movs	r2, #1
 80040e0:	61c2      	str	r2, [r0, #28]
  hadc1.Init.DMAContinuousRequests = DISABLE;
 80040e2:	f880 3030 	strb.w	r3, [r0, #48]	@ 0x30
  hadc1.Init.EOCSelection = ADC_EOC_SEQ_CONV;
 80040e6:	6143      	str	r3, [r0, #20]
  if (HAL_ADC_Init(&hadc1) != HAL_OK)
 80040e8:	f000 fb3e 	bl	8004768 <HAL_ADC_Init>
 80040ec:	b968      	cbnz	r0, 800410a <MX_ADC1_Init+0x5e>
    Error_Handler();
  }

  /** Configure for the selected ADC regular channel its corresponding rank in the sequencer and its sample time.
  */
  sConfig.Channel = ADC_CHANNEL_TEMPSENSOR;
 80040ee:	4b0c      	ldr	r3, [pc, #48]	@ (8004120 <MX_ADC1_Init+0x74>)
 80040f0:	9300      	str	r3, [sp, #0]
  sConfig.Rank = 1;
 80040f2:	2301      	movs	r3, #1
 80040f4:	9301      	str	r3, [sp, #4]
  sConfig.SamplingTime = ADC_SAMPLETIME_3CYCLES;
 80040f6:	2300      	movs	r3, #0
 80040f8:	9302      	str	r3, [sp, #8]
  if (HAL_ADC_ConfigChannel(&hadc1, &sConfig) != HAL_OK)
 80040fa:	4669      	mov	r1, sp
 80040fc:	4806      	ldr	r0, [pc, #24]	@ (8004118 <MX_ADC1_Init+0x6c>)
 80040fe:	f000 fc03 	bl	8004908 <HAL_ADC_ConfigChannel>
 8004102:	b928      	cbnz	r0, 8004110 <MX_ADC1_Init+0x64>
  }
  /* USER CODE BEGIN ADC1_Init 2 */

  /* USER CODE END ADC1_Init 2 */

}
 8004104:	b005      	add	sp, #20
 8004106:	f85d fb04 	ldr.w	pc, [sp], #4
    Error_Handler();
 800410a:	f000 f957 	bl	80043bc <Error_Handler>
 800410e:	e7ee      	b.n	80040ee <MX_ADC1_Init+0x42>
    Error_Handler();
 8004110:	f000 f954 	bl	80043bc <Error_Handler>
}
 8004114:	e7f6      	b.n	8004104 <MX_ADC1_Init+0x58>
 8004116:	bf00      	nop
 8004118:	2000041c 	.word	0x2000041c
 800411c:	40012000 	.word	0x40012000
 8004120:	10000012 	.word	0x10000012

08004124 <HAL_ADC_MspInit>:

void HAL_ADC_MspInit(ADC_HandleTypeDef* adcHandle)
{

  if(adcHandle->Instance==ADC1)
 8004124:	6802      	ldr	r2, [r0, #0]
 8004126:	4b0e      	ldr	r3, [pc, #56]	@ (8004160 <HAL_ADC_MspInit+0x3c>)
 8004128:	429a      	cmp	r2, r3
 800412a:	d000      	beq.n	800412e <HAL_ADC_MspInit+0xa>
 800412c:	4770      	bx	lr
{
 800412e:	b500      	push	{lr}
 8004130:	b083      	sub	sp, #12
  {
  /* USER CODE BEGIN ADC1_MspInit 0 */

  /* USER CODE END ADC1_MspInit 0 */
    /* ADC1 clock enable */
    __HAL_RCC_ADC1_CLK_ENABLE();
 8004132:	2200      	movs	r2, #0
 8004134:	9201      	str	r2, [sp, #4]
 8004136:	f503 338c 	add.w	r3, r3, #71680	@ 0x11800
 800413a:	6c59      	ldr	r1, [r3, #68]	@ 0x44
 800413c:	f441 7180 	orr.w	r1, r1, #256	@ 0x100
 8004140:	6459      	str	r1, [r3, #68]	@ 0x44
 8004142:	6c5b      	ldr	r3, [r3, #68]	@ 0x44
 8004144:	f403 7380 	and.w	r3, r3, #256	@ 0x100
 8004148:	9301      	str	r3, [sp, #4]
 800414a:	9b01      	ldr	r3, [sp, #4]

    /* ADC1 interrupt Init */
    HAL_NVIC_SetPriority(ADC_IRQn, 5, 0);
 800414c:	2105      	movs	r1, #5
 800414e:	2012      	movs	r0, #18
 8004150:	f000 fd06 	bl	8004b60 <HAL_NVIC_SetPriority>
    HAL_NVIC_EnableIRQ(ADC_IRQn);
 8004154:	2012      	movs	r0, #18
 8004156:	f000 fd13 	bl	8004b80 <HAL_NVIC_EnableIRQ>
  /* USER CODE BEGIN ADC1_MspInit 1 */

  /* USER CODE END ADC1_MspInit 1 */
  }
}
 800415a:	b003      	add	sp, #12
 800415c:	f85d fb04 	ldr.w	pc, [sp], #4
 8004160:	40012000 	.word	0x40012000

08004164 <makeFreeRtosPriority>:
/* Convert from CMSIS type osPriority to FreeRTOS priority number */
static unsigned portBASE_TYPE makeFreeRtosPriority (osPriority priority)
{
  unsigned portBASE_TYPE fpriority = tskIDLE_PRIORITY;
  
  if (priority != osPriorityError) {
 8004164:	2884      	cmp	r0, #132	@ 0x84
 8004166:	d001      	beq.n	800416c <makeFreeRtosPriority+0x8>
    fpriority += (priority - osPriorityIdle);
 8004168:	3003      	adds	r0, #3
 800416a:	4770      	bx	lr
  unsigned portBASE_TYPE fpriority = tskIDLE_PRIORITY;
 800416c:	2000      	movs	r0, #0
  }
  
  return fpriority;
}
 800416e:	4770      	bx	lr

08004170 <osKernelStart>:
* @param  argument      pointer that is passed to the thread function as start argument.
* @retval status code that indicates the execution status of the function
* @note   MUST REMAIN UNCHANGED: \b osKernelStart shall be consistent in every CMSIS-RTOS.
*/
osStatus osKernelStart (void)
{
 8004170:	b508      	push	{r3, lr}
  vTaskStartScheduler();
 8004172:	f7fe f9f9 	bl	8002568 <vTaskStartScheduler>
  
  return osOK;
}
 8004176:	2000      	movs	r0, #0
 8004178:	bd08      	pop	{r3, pc}

0800417a <osThreadCreate>:
* @param  argument      pointer that is passed to the thread function as start argument.
* @retval thread ID for reference by other functions or NULL in case of error.
* @note   MUST REMAIN UNCHANGED: \b osThreadCreate shall be consistent in every CMSIS-RTOS.
*/
osThreadId osThreadCreate (const osThreadDef_t *thread_def, void *argument)
{
 800417a:	e92d 41f0 	stmdb	sp!, {r4, r5, r6, r7, r8, lr}
 800417e:	b084      	sub	sp, #16
 8004180:	4604      	mov	r4, r0
 8004182:	460d      	mov	r5, r1
      return NULL;
    } 
  }
#elif( configSUPPORT_STATIC_ALLOCATION == 1 )

    handle = xTaskCreateStatic((TaskFunction_t)thread_def->pthread,(const portCHAR *)thread_def->name,
 8004184:	6846      	ldr	r6, [r0, #4]
 8004186:	6807      	ldr	r7, [r0, #0]
              thread_def->stacksize, argument, makeFreeRtosPriority(thread_def->tpriority),
 8004188:	f8d0 8010 	ldr.w	r8, [r0, #16]
    handle = xTaskCreateStatic((TaskFunction_t)thread_def->pthread,(const portCHAR *)thread_def->name,
 800418c:	f9b0 0008 	ldrsh.w	r0, [r0, #8]
 8004190:	f7ff ffe8 	bl	8004164 <makeFreeRtosPriority>
              thread_def->buffer, thread_def->controlblock);
 8004194:	6963      	ldr	r3, [r4, #20]
 8004196:	69a2      	ldr	r2, [r4, #24]
    handle = xTaskCreateStatic((TaskFunction_t)thread_def->pthread,(const portCHAR *)thread_def->name,
 8004198:	9202      	str	r2, [sp, #8]
 800419a:	9301      	str	r3, [sp, #4]
 800419c:	9000      	str	r0, [sp, #0]
 800419e:	462b      	mov	r3, r5
 80041a0:	4642      	mov	r2, r8
 80041a2:	4639      	mov	r1, r7
 80041a4:	4630      	mov	r0, r6
 80041a6:	f7ff f95a 	bl	800345e <MPU_xTaskCreateStatic>
    return NULL;
  }     
#endif
  
  return handle;
}
 80041aa:	b004      	add	sp, #16
 80041ac:	e8bd 81f0 	ldmia.w	sp!, {r4, r5, r6, r7, r8, pc}

080041b0 <osDelay>:
* @brief   Wait for Timeout (Time Delay)
* @param   millisec      time delay value
* @retval  status code that indicates the execution status of the function.
*/
osStatus osDelay (uint32_t millisec)
{
 80041b0:	b508      	push	{r3, lr}
#if INCLUDE_vTaskDelay
  TickType_t ticks = millisec / portTICK_PERIOD_MS;
  
  vTaskDelay(ticks ? ticks : 1);          /* Minimum delay = 1 tick */
 80041b2:	b900      	cbnz	r0, 80041b6 <osDelay+0x6>
 80041b4:	2001      	movs	r0, #1
 80041b6:	f7ff f99a 	bl	80034ee <MPU_vTaskDelay>
#else
  (void) millisec;
  
  return osErrorResource;
#endif
}
 80041ba:	2000      	movs	r0, #0
 80041bc:	bd08      	pop	{r3, pc}

080041be <StartDefaultTask>:
  * @param  argument: Not used
  * @retval None
  */
/* USER CODE END Header_StartDefaultTask */
void StartDefaultTask(void const * argument)
{
 80041be:	b508      	push	{r3, lr}
  /* USER CODE BEGIN StartDefaultTask */
  /* Infinite loop */
  for(;;)
  {
    osDelay(1);
 80041c0:	2001      	movs	r0, #1
 80041c2:	f7ff fff5 	bl	80041b0 <osDelay>
  for(;;)
 80041c6:	e7fb      	b.n	80041c0 <StartDefaultTask+0x2>

080041c8 <vApplicationGetIdleTaskMemory>:
  *ppxIdleTaskTCBBuffer = &xIdleTaskTCBBuffer;
 80041c8:	4b03      	ldr	r3, [pc, #12]	@ (80041d8 <vApplicationGetIdleTaskMemory+0x10>)
 80041ca:	6003      	str	r3, [r0, #0]
  *ppxIdleTaskStackBuffer = &xIdleStack[0];
 80041cc:	4b03      	ldr	r3, [pc, #12]	@ (80041dc <vApplicationGetIdleTaskMemory+0x14>)
 80041ce:	600b      	str	r3, [r1, #0]
  *pulIdleTaskStackSize = configMINIMAL_STACK_SIZE;
 80041d0:	f44f 7380 	mov.w	r3, #256	@ 0x100
 80041d4:	6013      	str	r3, [r2, #0]
}
 80041d6:	4770      	bx	lr
 80041d8:	20000864 	.word	0x20000864
 80041dc:	20000464 	.word	0x20000464

080041e0 <MX_FREERTOS_Init>:
void MX_FREERTOS_Init(void) {
 80041e0:	b510      	push	{r4, lr}
 80041e2:	b088      	sub	sp, #32
  osThreadStaticDef(defaultTask, StartDefaultTask, osPriorityNormal, 0, 128, defaultTaskBuffer, &defaultTaskControlBlock);
 80041e4:	f10d 0c04 	add.w	ip, sp, #4
 80041e8:	4c07      	ldr	r4, [pc, #28]	@ (8004208 <MX_FREERTOS_Init+0x28>)
 80041ea:	cc0f      	ldmia	r4!, {r0, r1, r2, r3}
 80041ec:	e8ac 000f 	stmia.w	ip!, {r0, r1, r2, r3}
 80041f0:	e894 0007 	ldmia.w	r4, {r0, r1, r2}
 80041f4:	e88c 0007 	stmia.w	ip, {r0, r1, r2}
  defaultTaskHandle = osThreadCreate(osThread(defaultTask), NULL);
 80041f8:	2100      	movs	r1, #0
 80041fa:	a801      	add	r0, sp, #4
 80041fc:	f7ff ffbd 	bl	800417a <osThreadCreate>
 8004200:	4b02      	ldr	r3, [pc, #8]	@ (800420c <MX_FREERTOS_Init+0x2c>)
 8004202:	6018      	str	r0, [r3, #0]
}
 8004204:	b008      	add	sp, #32
 8004206:	bd10      	pop	{r4, pc}
 8004208:	08005e40 	.word	0x08005e40
 800420c:	20000b4c 	.word	0x20000b4c

08004210 <MX_GPIO_Init>:
        * Output
        * EVENT_OUT
        * EXTI
*/
void MX_GPIO_Init(void)
{
 8004210:	b530      	push	{r4, r5, lr}
 8004212:	b08b      	sub	sp, #44	@ 0x2c

  GPIO_InitTypeDef GPIO_InitStruct = {0};
 8004214:	2400      	movs	r4, #0
 8004216:	9405      	str	r4, [sp, #20]
 8004218:	9406      	str	r4, [sp, #24]
 800421a:	9407      	str	r4, [sp, #28]
 800421c:	9408      	str	r4, [sp, #32]
 800421e:	9409      	str	r4, [sp, #36]	@ 0x24

  /* GPIO Ports Clock Enable */
  __HAL_RCC_GPIOC_CLK_ENABLE();
 8004220:	9401      	str	r4, [sp, #4]
 8004222:	4b22      	ldr	r3, [pc, #136]	@ (80042ac <MX_GPIO_Init+0x9c>)
 8004224:	6b1a      	ldr	r2, [r3, #48]	@ 0x30
 8004226:	f042 0204 	orr.w	r2, r2, #4
 800422a:	631a      	str	r2, [r3, #48]	@ 0x30
 800422c:	6b1a      	ldr	r2, [r3, #48]	@ 0x30
 800422e:	f002 0204 	and.w	r2, r2, #4
 8004232:	9201      	str	r2, [sp, #4]
 8004234:	9a01      	ldr	r2, [sp, #4]
  __HAL_RCC_GPIOH_CLK_ENABLE();
 8004236:	9402      	str	r4, [sp, #8]
 8004238:	6b1a      	ldr	r2, [r3, #48]	@ 0x30
 800423a:	f042 0280 	orr.w	r2, r2, #128	@ 0x80
 800423e:	631a      	str	r2, [r3, #48]	@ 0x30
 8004240:	6b1a      	ldr	r2, [r3, #48]	@ 0x30
 8004242:	f002 0280 	and.w	r2, r2, #128	@ 0x80
 8004246:	9202      	str	r2, [sp, #8]
 8004248:	9a02      	ldr	r2, [sp, #8]
  __HAL_RCC_GPIOA_CLK_ENABLE();
 800424a:	9403      	str	r4, [sp, #12]
 800424c:	6b1a      	ldr	r2, [r3, #48]	@ 0x30
 800424e:	f042 0201 	orr.w	r2, r2, #1
 8004252:	631a      	str	r2, [r3, #48]	@ 0x30
 8004254:	6b1a      	ldr	r2, [r3, #48]	@ 0x30
 8004256:	f002 0201 	and.w	r2, r2, #1
 800425a:	9203      	str	r2, [sp, #12]
 800425c:	9a03      	ldr	r2, [sp, #12]
  __HAL_RCC_GPIOB_CLK_ENABLE();
 800425e:	9404      	str	r4, [sp, #16]
 8004260:	6b1a      	ldr	r2, [r3, #48]	@ 0x30
 8004262:	f042 0202 	orr.w	r2, r2, #2
 8004266:	631a      	str	r2, [r3, #48]	@ 0x30
 8004268:	6b1b      	ldr	r3, [r3, #48]	@ 0x30
 800426a:	f003 0302 	and.w	r3, r3, #2
 800426e:	9304      	str	r3, [sp, #16]
 8004270:	9b04      	ldr	r3, [sp, #16]

  /*Configure GPIO pin Output Level */
  HAL_GPIO_WritePin(LD2_GPIO_Port, LD2_Pin, GPIO_PIN_RESET);
 8004272:	4d0f      	ldr	r5, [pc, #60]	@ (80042b0 <MX_GPIO_Init+0xa0>)
 8004274:	4622      	mov	r2, r4
 8004276:	2120      	movs	r1, #32
 8004278:	4628      	mov	r0, r5
 800427a:	f000 fd69 	bl	8004d50 <HAL_GPIO_WritePin>

  /*Configure GPIO pin : B1_Pin */
  GPIO_InitStruct.Pin = B1_Pin;
 800427e:	f44f 5300 	mov.w	r3, #8192	@ 0x2000
 8004282:	9305      	str	r3, [sp, #20]
  GPIO_InitStruct.Mode = GPIO_MODE_IT_FALLING;
 8004284:	f44f 1304 	mov.w	r3, #2162688	@ 0x210000
 8004288:	9306      	str	r3, [sp, #24]
  GPIO_InitStruct.Pull = GPIO_NOPULL;
 800428a:	9407      	str	r4, [sp, #28]
  HAL_GPIO_Init(B1_GPIO_Port, &GPIO_InitStruct);
 800428c:	a905      	add	r1, sp, #20
 800428e:	4809      	ldr	r0, [pc, #36]	@ (80042b4 <MX_GPIO_Init+0xa4>)
 8004290:	f000 fc7a 	bl	8004b88 <HAL_GPIO_Init>

  /*Configure GPIO pin : LD2_Pin */
  GPIO_InitStruct.Pin = LD2_Pin;
 8004294:	2320      	movs	r3, #32
 8004296:	9305      	str	r3, [sp, #20]
  GPIO_InitStruct.Mode = GPIO_MODE_OUTPUT_PP;
 8004298:	2301      	movs	r3, #1
 800429a:	9306      	str	r3, [sp, #24]
  GPIO_InitStruct.Pull = GPIO_NOPULL;
 800429c:	9407      	str	r4, [sp, #28]
  GPIO_InitStruct.Speed = GPIO_SPEED_FREQ_LOW;
 800429e:	9408      	str	r4, [sp, #32]
  HAL_GPIO_Init(LD2_GPIO_Port, &GPIO_InitStruct);
 80042a0:	a905      	add	r1, sp, #20
 80042a2:	4628      	mov	r0, r5
 80042a4:	f000 fc70 	bl	8004b88 <HAL_GPIO_Init>

}
 80042a8:	b00b      	add	sp, #44	@ 0x2c
 80042aa:	bd30      	pop	{r4, r5, pc}
 80042ac:	40023800 	.word	0x40023800
 80042b0:	40020000 	.word	0x40020000
 80042b4:	40020800 	.word	0x40020800

080042b8 <MX_IWDG_Init>:

IWDG_HandleTypeDef hiwdg;

/* IWDG init function */
void MX_IWDG_Init(void)
{
 80042b8:	b508      	push	{r3, lr}
  /* USER CODE END IWDG_Init 0 */

  /* USER CODE BEGIN IWDG_Init 1 */

  /* USER CODE END IWDG_Init 1 */
  hiwdg.Instance = IWDG;
 80042ba:	4807      	ldr	r0, [pc, #28]	@ (80042d8 <MX_IWDG_Init+0x20>)
 80042bc:	4b07      	ldr	r3, [pc, #28]	@ (80042dc <MX_IWDG_Init+0x24>)
 80042be:	6003      	str	r3, [r0, #0]
  hiwdg.Init.Prescaler = IWDG_PRESCALER_32;
 80042c0:	2303      	movs	r3, #3
 80042c2:	6043      	str	r3, [r0, #4]
  hiwdg.Init.Reload = 25-1;
 80042c4:	2318      	movs	r3, #24
 80042c6:	6083      	str	r3, [r0, #8]
  if (HAL_IWDG_Init(&hiwdg) != HAL_OK)
 80042c8:	f000 fd51 	bl	8004d6e <HAL_IWDG_Init>
 80042cc:	b900      	cbnz	r0, 80042d0 <MX_IWDG_Init+0x18>
  }
  /* USER CODE BEGIN IWDG_Init 2 */

  /* USER CODE END IWDG_Init 2 */

}
 80042ce:	bd08      	pop	{r3, pc}
    Error_Handler();
 80042d0:	f000 f874 	bl	80043bc <Error_Handler>
}
 80042d4:	e7fb      	b.n	80042ce <MX_IWDG_Init+0x16>
 80042d6:	bf00      	nop
 80042d8:	20000b50 	.word	0x20000b50
 80042dc:	40003000 	.word	0x40003000

080042e0 <vListInitialise>:
void vListInitialise( List_t * const pxList )
{
	/* The list structure contains a list item which is used to mark the
	end of the list.  To initialise the list the list end is inserted
	as the only list entry. */
	pxList->pxIndex = ( ListItem_t * ) &( pxList->xListEnd );			/*lint !e826 !e740 !e9087 The mini list structure is used as the list end to save RAM.  This is checked and valid. */
 80042e0:	f100 0308 	add.w	r3, r0, #8
 80042e4:	6043      	str	r3, [r0, #4]

	/* The list end value is the highest possible value in the list to
	ensure it remains at the end of the list. */
	pxList->xListEnd.xItemValue = portMAX_DELAY;
 80042e6:	f04f 32ff 	mov.w	r2, #4294967295	@ 0xffffffff
 80042ea:	6082      	str	r2, [r0, #8]

	/* The list end next and previous pointers point to itself so we know
	when the list is empty. */
	pxList->xListEnd.pxNext = ( ListItem_t * ) &( pxList->xListEnd );	/*lint !e826 !e740 !e9087 The mini list structure is used as the list end to save RAM.  This is checked and valid. */
 80042ec:	60c3      	str	r3, [r0, #12]
	pxList->xListEnd.pxPrevious = ( ListItem_t * ) &( pxList->xListEnd );/*lint !e826 !e740 !e9087 The mini list structure is used as the list end to save RAM.  This is checked and valid. */
 80042ee:	6103      	str	r3, [r0, #16]

	pxList->uxNumberOfItems = ( UBaseType_t ) 0U;
 80042f0:	2300      	movs	r3, #0
 80042f2:	6003      	str	r3, [r0, #0]

	/* Write known values into the list if
	configUSE_LIST_DATA_INTEGRITY_CHECK_BYTES is set to 1. */
	listSET_LIST_INTEGRITY_CHECK_1_VALUE( pxList );
	listSET_LIST_INTEGRITY_CHECK_2_VALUE( pxList );
}
 80042f4:	4770      	bx	lr

080042f6 <vListInitialiseItem>:
/*-----------------------------------------------------------*/

void vListInitialiseItem( ListItem_t * const pxItem )
{
	/* Make sure the list item is not recorded as being on a list. */
	pxItem->pxContainer = NULL;
 80042f6:	2300      	movs	r3, #0
 80042f8:	6103      	str	r3, [r0, #16]

	/* Write known values into the list item if
	configUSE_LIST_DATA_INTEGRITY_CHECK_BYTES is set to 1. */
	listSET_FIRST_LIST_ITEM_INTEGRITY_CHECK_VALUE( pxItem );
	listSET_SECOND_LIST_ITEM_INTEGRITY_CHECK_VALUE( pxItem );
}
 80042fa:	4770      	bx	lr

080042fc <vListInsertEnd>:
/*-----------------------------------------------------------*/

void vListInsertEnd( List_t * const pxList, ListItem_t * const pxNewListItem )
{
ListItem_t * const pxIndex = pxList->pxIndex;
 80042fc:	6843      	ldr	r3, [r0, #4]
	listTEST_LIST_ITEM_INTEGRITY( pxNewListItem );

	/* Insert a new list item into pxList, but rather than sort the list,
	makes the new list item the last item to be removed by a call to
	listGET_OWNER_OF_NEXT_ENTRY(). */
	pxNewListItem->pxNext = pxIndex;
 80042fe:	604b      	str	r3, [r1, #4]
	pxNewListItem->pxPrevious = pxIndex->pxPrevious;
 8004300:	689a      	ldr	r2, [r3, #8]
 8004302:	608a      	str	r2, [r1, #8]

	/* Only used during decision coverage testing. */
	mtCOVERAGE_TEST_DELAY();

	pxIndex->pxPrevious->pxNext = pxNewListItem;
 8004304:	6051      	str	r1, [r2, #4]
	pxIndex->pxPrevious = pxNewListItem;
 8004306:	6099      	str	r1, [r3, #8]

	/* Remember which list the item is in. */
	pxNewListItem->pxContainer = pxList;
 8004308:	6108      	str	r0, [r1, #16]

	( pxList->uxNumberOfItems )++;
 800430a:	6803      	ldr	r3, [r0, #0]
 800430c:	3301      	adds	r3, #1
 800430e:	6003      	str	r3, [r0, #0]
}
 8004310:	4770      	bx	lr

08004312 <vListInsert>:
/*-----------------------------------------------------------*/

void vListInsert( List_t * const pxList, ListItem_t * const pxNewListItem )
{
 8004312:	b430      	push	{r4, r5}
ListItem_t *pxIterator;
const TickType_t xValueOfInsertion = pxNewListItem->xItemValue;
 8004314:	680d      	ldr	r5, [r1, #0]
	new list item should be placed after it.  This ensures that TCBs which are
	stored in ready lists (all of which have the same xItemValue value) get a
	share of the CPU.  However, if the xItemValue is the same as the back marker
	the iteration loop below will not end.  Therefore the value is checked
	first, and the algorithm slightly modified if necessary. */
	if( xValueOfInsertion == portMAX_DELAY )
 8004316:	f1b5 3fff 	cmp.w	r5, #4294967295	@ 0xffffffff
 800431a:	d011      	beq.n	8004340 <vListInsert+0x2e>
			4) Using a queue or semaphore before it has been initialised or
			   before the scheduler has been started (are interrupts firing
			   before vTaskStartScheduler() has been called?).
		**********************************************************************/

		for( pxIterator = ( ListItem_t * ) &( pxList->xListEnd ); pxIterator->pxNext->xItemValue <= xValueOfInsertion; pxIterator = pxIterator->pxNext ) /*lint !e826 !e740 !e9087 The mini list structure is used as the list end to save RAM.  This is checked and valid. *//*lint !e440 The iterator moves to a different value, not xValueOfInsertion. */
 800431c:	f100 0308 	add.w	r3, r0, #8
 8004320:	461c      	mov	r4, r3
 8004322:	685b      	ldr	r3, [r3, #4]
 8004324:	681a      	ldr	r2, [r3, #0]
 8004326:	42aa      	cmp	r2, r5
 8004328:	d9fa      	bls.n	8004320 <vListInsert+0xe>
			/* There is nothing to do here, just iterating to the wanted
			insertion position. */
		}
	}

	pxNewListItem->pxNext = pxIterator->pxNext;
 800432a:	6863      	ldr	r3, [r4, #4]
 800432c:	604b      	str	r3, [r1, #4]
	pxNewListItem->pxNext->pxPrevious = pxNewListItem;
 800432e:	6099      	str	r1, [r3, #8]
	pxNewListItem->pxPrevious = pxIterator;
 8004330:	608c      	str	r4, [r1, #8]
	pxIterator->pxNext = pxNewListItem;
 8004332:	6061      	str	r1, [r4, #4]

	/* Remember which list the item is in.  This allows fast removal of the
	item later. */
	pxNewListItem->pxContainer = pxList;
 8004334:	6108      	str	r0, [r1, #16]

	( pxList->uxNumberOfItems )++;
 8004336:	6803      	ldr	r3, [r0, #0]
 8004338:	3301      	adds	r3, #1
 800433a:	6003      	str	r3, [r0, #0]
}
 800433c:	bc30      	pop	{r4, r5}
 800433e:	4770      	bx	lr
		pxIterator = pxList->xListEnd.pxPrevious;
 8004340:	6904      	ldr	r4, [r0, #16]
 8004342:	e7f2      	b.n	800432a <vListInsert+0x18>

08004344 <uxListRemove>:

UBaseType_t uxListRemove( ListItem_t * const pxItemToRemove )
{
/* The list item knows which list it is in.  Obtain the list from the list
item. */
List_t * const pxList = pxItemToRemove->pxContainer;
 8004344:	6903      	ldr	r3, [r0, #16]

	pxItemToRemove->pxNext->pxPrevious = pxItemToRemove->pxPrevious;
 8004346:	6841      	ldr	r1, [r0, #4]
 8004348:	6882      	ldr	r2, [r0, #8]
 800434a:	608a      	str	r2, [r1, #8]
	pxItemToRemove->pxPrevious->pxNext = pxItemToRemove->pxNext;
 800434c:	6841      	ldr	r1, [r0, #4]
 800434e:	6051      	str	r1, [r2, #4]

	/* Only used during decision coverage testing. */
	mtCOVERAGE_TEST_DELAY();

	/* Make sure the index is left pointing to a valid item. */
	if( pxList->pxIndex == pxItemToRemove )
 8004350:	685a      	ldr	r2, [r3, #4]
 8004352:	4282      	cmp	r2, r0
 8004354:	d006      	beq.n	8004364 <uxListRemove+0x20>
	else
	{
		mtCOVERAGE_TEST_MARKER();
	}

	pxItemToRemove->pxContainer = NULL;
 8004356:	2200      	movs	r2, #0
 8004358:	6102      	str	r2, [r0, #16]
	( pxList->uxNumberOfItems )--;
 800435a:	681a      	ldr	r2, [r3, #0]
 800435c:	3a01      	subs	r2, #1
 800435e:	601a      	str	r2, [r3, #0]

	return pxList->uxNumberOfItems;
 8004360:	6818      	ldr	r0, [r3, #0]
}
 8004362:	4770      	bx	lr
		pxList->pxIndex = pxItemToRemove->pxPrevious;
 8004364:	6882      	ldr	r2, [r0, #8]
 8004366:	605a      	str	r2, [r3, #4]
 8004368:	e7f5      	b.n	8004356 <uxListRemove+0x12>
	...

0800436c <blink_task>:
/* USER CODE END PFP */

/* Private user code ---------------------------------------------------------*/
/* USER CODE BEGIN 0 */
void blink_task(void *argument)
{
 800436c:	b508      	push	{r3, lr}
  /* USER CODE BEGIN 5 */
  /* Infinite loop */
  for(;;)
  {
    HAL_GPIO_TogglePin(GPIOA, GPIO_PIN_5);
 800436e:	2120      	movs	r1, #32
 8004370:	4803      	ldr	r0, [pc, #12]	@ (8004380 <blink_task+0x14>)
 8004372:	f000 fcf3 	bl	8004d5c <HAL_GPIO_TogglePin>
    vTaskDelay(500);
 8004376:	f44f 70fa 	mov.w	r0, #500	@ 0x1f4
 800437a:	f7ff f8b8 	bl	80034ee <MPU_vTaskDelay>
  for(;;)
 800437e:	e7f6      	b.n	800436e <blink_task+0x2>
 8004380:	40020000 	.word	0x40020000

08004384 <deadline_monitor_task>:
  }
  /* USER CODE END 5 */
}

void deadline_monitor_task(void *argument)
{
 8004384:	b500      	push	{lr}
 8004386:	b083      	sub	sp, #12
  /* USER CODE BEGIN 5 */
  TickType_t tick;
  /* Infinite loop */
  for(;;)
  {
    tick = xTaskGetTickCount();
 8004388:	f7ff f915 	bl	80035b6 <MPU_xTaskGetTickCount>
 800438c:	9001      	str	r0, [sp, #4]
    HAL_IWDG_Refresh(&hiwdg);
 800438e:	4804      	ldr	r0, [pc, #16]	@ (80043a0 <deadline_monitor_task+0x1c>)
 8004390:	f000 fd1b 	bl	8004dca <HAL_IWDG_Refresh>
    vTaskDelayUntil(&tick, pdMS_TO_TICKS(20));
 8004394:	2114      	movs	r1, #20
 8004396:	a801      	add	r0, sp, #4
 8004398:	f7ff f8b5 	bl	8003506 <MPU_vTaskDelayUntil>
  for(;;)
 800439c:	e7f4      	b.n	8004388 <deadline_monitor_task+0x4>
 800439e:	bf00      	nop
 80043a0:	20000b50 	.word	0x20000b50

080043a4 <HAL_TIM_PeriodElapsedCallback>:
  * a global variable "uwTick" used as application time base.
  * @param  htim : TIM handle
  * @retval None
  */
void HAL_TIM_PeriodElapsedCallback(TIM_HandleTypeDef *htim)
{
 80043a4:	b508      	push	{r3, lr}
  /* USER CODE BEGIN Callback 0 */

  /* USER CODE END Callback 0 */
  if (htim->Instance == TIM1)
 80043a6:	6802      	ldr	r2, [r0, #0]
 80043a8:	4b03      	ldr	r3, [pc, #12]	@ (80043b8 <HAL_TIM_PeriodElapsedCallback+0x14>)
 80043aa:	429a      	cmp	r2, r3
 80043ac:	d000      	beq.n	80043b0 <HAL_TIM_PeriodElapsedCallback+0xc>
    HAL_IncTick();
  }
  /* USER CODE BEGIN Callback 1 */

  /* USER CODE END Callback 1 */
}
 80043ae:	bd08      	pop	{r3, pc}
    HAL_IncTick();
 80043b0:	f000 f92e 	bl	8004610 <HAL_IncTick>
}
 80043b4:	e7fb      	b.n	80043ae <HAL_TIM_PeriodElapsedCallback+0xa>
 80043b6:	bf00      	nop
 80043b8:	40010000 	.word	0x40010000

080043bc <Error_Handler>:
  \details Disables IRQ interrupts by setting special-purpose register PRIMASK.
           Can only be executed in Privileged modes.
 */
__STATIC_FORCEINLINE void __disable_irq(void)
{
  __ASM volatile ("cpsid i" : : : "memory");
 80043bc:	b672      	cpsid	i
void Error_Handler(void)
{
  /* USER CODE BEGIN Error_Handler_Debug */
  /* User can add his own implementation to report the HAL error return state */
  __disable_irq();
  while (1)
 80043be:	e7fe      	b.n	80043be <Error_Handler+0x2>

080043c0 <SystemClock_Config>:
{
 80043c0:	b500      	push	{lr}
 80043c2:	b095      	sub	sp, #84	@ 0x54
  RCC_OscInitTypeDef RCC_OscInitStruct = {0};
 80043c4:	2230      	movs	r2, #48	@ 0x30
 80043c6:	2100      	movs	r1, #0
 80043c8:	a808      	add	r0, sp, #32
 80043ca:	f7ff fca5 	bl	8003d18 <memset>
  RCC_ClkInitTypeDef RCC_ClkInitStruct = {0};
 80043ce:	2300      	movs	r3, #0
 80043d0:	9303      	str	r3, [sp, #12]
 80043d2:	9304      	str	r3, [sp, #16]
 80043d4:	9305      	str	r3, [sp, #20]
 80043d6:	9306      	str	r3, [sp, #24]
 80043d8:	9307      	str	r3, [sp, #28]
  __HAL_RCC_PWR_CLK_ENABLE();
 80043da:	9301      	str	r3, [sp, #4]
 80043dc:	4a20      	ldr	r2, [pc, #128]	@ (8004460 <SystemClock_Config+0xa0>)
 80043de:	6c11      	ldr	r1, [r2, #64]	@ 0x40
 80043e0:	f041 5180 	orr.w	r1, r1, #268435456	@ 0x10000000
 80043e4:	6411      	str	r1, [r2, #64]	@ 0x40
 80043e6:	6c12      	ldr	r2, [r2, #64]	@ 0x40
 80043e8:	f002 5280 	and.w	r2, r2, #268435456	@ 0x10000000
 80043ec:	9201      	str	r2, [sp, #4]
 80043ee:	9a01      	ldr	r2, [sp, #4]
  __HAL_PWR_VOLTAGESCALING_CONFIG(PWR_REGULATOR_VOLTAGE_SCALE1);
 80043f0:	9302      	str	r3, [sp, #8]
 80043f2:	4b1c      	ldr	r3, [pc, #112]	@ (8004464 <SystemClock_Config+0xa4>)
 80043f4:	681a      	ldr	r2, [r3, #0]
 80043f6:	f442 4240 	orr.w	r2, r2, #49152	@ 0xc000
 80043fa:	601a      	str	r2, [r3, #0]
 80043fc:	681b      	ldr	r3, [r3, #0]
 80043fe:	f403 4340 	and.w	r3, r3, #49152	@ 0xc000
 8004402:	9302      	str	r3, [sp, #8]
 8004404:	9b02      	ldr	r3, [sp, #8]
  RCC_OscInitStruct.OscillatorType = RCC_OSCILLATORTYPE_LSI|RCC_OSCILLATORTYPE_HSE;
 8004406:	2309      	movs	r3, #9
 8004408:	9308      	str	r3, [sp, #32]
  RCC_OscInitStruct.HSEState = RCC_HSE_BYPASS;
 800440a:	f44f 23a0 	mov.w	r3, #327680	@ 0x50000
 800440e:	9309      	str	r3, [sp, #36]	@ 0x24
  RCC_OscInitStruct.LSIState = RCC_LSI_ON;
 8004410:	2301      	movs	r3, #1
 8004412:	930d      	str	r3, [sp, #52]	@ 0x34
  RCC_OscInitStruct.PLL.PLLState = RCC_PLL_ON;
 8004414:	2302      	movs	r3, #2
 8004416:	930e      	str	r3, [sp, #56]	@ 0x38
  RCC_OscInitStruct.PLL.PLLSource = RCC_PLLSOURCE_HSE;
 8004418:	f44f 0280 	mov.w	r2, #4194304	@ 0x400000
 800441c:	920f      	str	r2, [sp, #60]	@ 0x3c
  RCC_OscInitStruct.PLL.PLLM = 8;
 800441e:	2208      	movs	r2, #8
 8004420:	9210      	str	r2, [sp, #64]	@ 0x40
  RCC_OscInitStruct.PLL.PLLN = 200;
 8004422:	22c8      	movs	r2, #200	@ 0xc8
 8004424:	9211      	str	r2, [sp, #68]	@ 0x44
  RCC_OscInitStruct.PLL.PLLP = RCC_PLLP_DIV2;
 8004426:	9312      	str	r3, [sp, #72]	@ 0x48
  RCC_OscInitStruct.PLL.PLLQ = 4;
 8004428:	2304      	movs	r3, #4
 800442a:	9313      	str	r3, [sp, #76]	@ 0x4c
  if (HAL_RCC_OscConfig(&RCC_OscInitStruct) != HAL_OK)
 800442c:	a808      	add	r0, sp, #32
 800442e:	f000 fcf5 	bl	8004e1c <HAL_RCC_OscConfig>
 8004432:	b988      	cbnz	r0, 8004458 <SystemClock_Config+0x98>
  RCC_ClkInitStruct.ClockType = RCC_CLOCKTYPE_HCLK|RCC_CLOCKTYPE_SYSCLK
 8004434:	230f      	movs	r3, #15
 8004436:	9303      	str	r3, [sp, #12]
  RCC_ClkInitStruct.SYSCLKSource = RCC_SYSCLKSOURCE_PLLCLK;
 8004438:	2302      	movs	r3, #2
 800443a:	9304      	str	r3, [sp, #16]
  RCC_ClkInitStruct.AHBCLKDivider = RCC_SYSCLK_DIV1;
 800443c:	2300      	movs	r3, #0
 800443e:	9305      	str	r3, [sp, #20]
  RCC_ClkInitStruct.APB1CLKDivider = RCC_HCLK_DIV2;
 8004440:	f44f 5280 	mov.w	r2, #4096	@ 0x1000
 8004444:	9206      	str	r2, [sp, #24]
  RCC_ClkInitStruct.APB2CLKDivider = RCC_HCLK_DIV1;
 8004446:	9307      	str	r3, [sp, #28]
  if (HAL_RCC_ClockConfig(&RCC_ClkInitStruct, FLASH_LATENCY_3) != HAL_OK)
 8004448:	2103      	movs	r1, #3
 800444a:	a803      	add	r0, sp, #12
 800444c:	f000 ff50 	bl	80052f0 <HAL_RCC_ClockConfig>
 8004450:	b920      	cbnz	r0, 800445c <SystemClock_Config+0x9c>
}
 8004452:	b015      	add	sp, #84	@ 0x54
 8004454:	f85d fb04 	ldr.w	pc, [sp], #4
    Error_Handler();
 8004458:	f7ff ffb0 	bl	80043bc <Error_Handler>
    Error_Handler();
 800445c:	f7ff ffae 	bl	80043bc <Error_Handler>
 8004460:	40023800 	.word	0x40023800
 8004464:	40007000 	.word	0x40007000

08004468 <main>:
{
 8004468:	b508      	push	{r3, lr}
  HAL_Init();
 800446a:	f000 f8b7 	bl	80045dc <HAL_Init>
  SystemClock_Config();
 800446e:	f7ff ffa7 	bl	80043c0 <SystemClock_Config>
  MX_GPIO_Init();
 8004472:	f7ff fecd 	bl	8004210 <MX_GPIO_Init>
  MX_USART2_UART_Init();
 8004476:	f001 fc5b 	bl	8005d30 <MX_USART2_UART_Init>
  MX_ADC1_Init();
 800447a:	f7ff fe17 	bl	80040ac <MX_ADC1_Init>
  MX_IWDG_Init();
 800447e:	f7ff ff1b 	bl	80042b8 <MX_IWDG_Init>
  MX_TIM3_Init();
 8004482:	f001 fc05 	bl	8005c90 <MX_TIM3_Init>
  xTaskCreateRestrictedStatic(&blink_task_parameters, NULL);
 8004486:	2100      	movs	r1, #0
 8004488:	4806      	ldr	r0, [pc, #24]	@ (80044a4 <main+0x3c>)
 800448a:	f7fd fe91 	bl	80021b0 <xTaskCreateRestrictedStatic>
  xTaskCreateRestrictedStatic(&deadline_monitor_task_parameters, NULL);
 800448e:	2100      	movs	r1, #0
 8004490:	4805      	ldr	r0, [pc, #20]	@ (80044a8 <main+0x40>)
 8004492:	f7fd fe8d 	bl	80021b0 <xTaskCreateRestrictedStatic>
  vTaskStartScheduler();
 8004496:	f7fe f867 	bl	8002568 <vTaskStartScheduler>
  MX_FREERTOS_Init();
 800449a:	f7ff fea1 	bl	80041e0 <MX_FREERTOS_Init>
  osKernelStart();
 800449e:	f7ff fe67 	bl	8004170 <osKernelStart>
  while (1)
 80044a2:	e7fe      	b.n	80044a2 <main+0x3a>
 80044a4:	200001ac 	.word	0x200001ac
 80044a8:	2000016c 	.word	0x2000016c

080044ac <vPortResetPrivilege>:
	if( xRunningPrivileged != pdTRUE )
 80044ac:	2801      	cmp	r0, #1
 80044ae:	d100      	bne.n	80044b2 <vPortResetPrivilege+0x6>
 80044b0:	4770      	bx	lr
{
 80044b2:	b508      	push	{r3, lr}
		portRESET_PRIVILEGE();
 80044b4:	f000 f85c 	bl	8004570 <vResetPrivilege>
}
 80044b8:	bd08      	pop	{r3, pc}
	...

080044bc <vPortEnableVFP>:
	__asm volatile
 80044bc:	f8df 000c 	ldr.w	r0, [pc, #12]	@ 80044cc <vPortEnableVFP+0x10>
 80044c0:	6801      	ldr	r1, [r0, #0]
 80044c2:	f441 0170 	orr.w	r1, r1, #15728640	@ 0xf00000
 80044c6:	6001      	str	r1, [r0, #0]
 80044c8:	4770      	bx	lr
}
 80044ca:	0000      	.short	0x0000
 80044cc:	e000ed88 	.word	0xe000ed88

080044d0 <vPortEnterCritical>:
{
 80044d0:	b508      	push	{r3, lr}
BaseType_t xRunningPrivileged = xPortRaisePrivilege();
 80044d2:	f7fe ffbd 	bl	8003450 <xPortRaisePrivilege>
 80044d6:	f04f 0350 	mov.w	r3, #80	@ 0x50
 80044da:	f383 8811 	msr	BASEPRI, r3
 80044de:	f3bf 8f6f 	isb	sy
 80044e2:	f3bf 8f4f 	dsb	sy
	uxCriticalNesting++;
 80044e6:	4a03      	ldr	r2, [pc, #12]	@ (80044f4 <vPortEnterCritical+0x24>)
 80044e8:	6813      	ldr	r3, [r2, #0]
 80044ea:	3301      	adds	r3, #1
 80044ec:	6013      	str	r3, [r2, #0]
	vPortResetPrivilege( xRunningPrivileged );
 80044ee:	f7ff ffdd 	bl	80044ac <vPortResetPrivilege>
}
 80044f2:	bd08      	pop	{r3, pc}
 80044f4:	200001ec 	.word	0x200001ec

080044f8 <vPortExitCritical>:
{
 80044f8:	b508      	push	{r3, lr}
BaseType_t xRunningPrivileged = xPortRaisePrivilege();
 80044fa:	f7fe ffa9 	bl	8003450 <xPortRaisePrivilege>
	configASSERT( uxCriticalNesting );
 80044fe:	4b0a      	ldr	r3, [pc, #40]	@ (8004528 <vPortExitCritical+0x30>)
 8004500:	681b      	ldr	r3, [r3, #0]
 8004502:	b943      	cbnz	r3, 8004516 <vPortExitCritical+0x1e>
 8004504:	f04f 0350 	mov.w	r3, #80	@ 0x50
 8004508:	f383 8811 	msr	BASEPRI, r3
 800450c:	f3bf 8f6f 	isb	sy
 8004510:	f3bf 8f4f 	dsb	sy
 8004514:	e7fe      	b.n	8004514 <vPortExitCritical+0x1c>
	uxCriticalNesting--;
 8004516:	3b01      	subs	r3, #1
 8004518:	4a03      	ldr	r2, [pc, #12]	@ (8004528 <vPortExitCritical+0x30>)
 800451a:	6013      	str	r3, [r2, #0]
	if( uxCriticalNesting == 0 )
 800451c:	b90b      	cbnz	r3, 8004522 <vPortExitCritical+0x2a>
	__asm volatile
 800451e:	f383 8811 	msr	BASEPRI, r3
	vPortResetPrivilege( xRunningPrivileged );
 8004522:	f7ff ffc3 	bl	80044ac <vPortResetPrivilege>
}
 8004526:	bd08      	pop	{r3, pc}
 8004528:	200001ec 	.word	0x200001ec

0800452c <vPortSetupTimerInterrupt>:
	portNVIC_SYSTICK_CTRL_REG = 0UL;
 800452c:	f04f 22e0 	mov.w	r2, #3758153728	@ 0xe000e000
 8004530:	2300      	movs	r3, #0
 8004532:	6113      	str	r3, [r2, #16]
	portNVIC_SYSTICK_CURRENT_VALUE_REG = 0UL;
 8004534:	6193      	str	r3, [r2, #24]
	portNVIC_SYSTICK_LOAD_REG = ( configSYSTICK_CLOCK_HZ / configTICK_RATE_HZ ) - 1UL;
 8004536:	4b05      	ldr	r3, [pc, #20]	@ (800454c <vPortSetupTimerInterrupt+0x20>)
 8004538:	681b      	ldr	r3, [r3, #0]
 800453a:	4905      	ldr	r1, [pc, #20]	@ (8004550 <vPortSetupTimerInterrupt+0x24>)
 800453c:	fba1 1303 	umull	r1, r3, r1, r3
 8004540:	099b      	lsrs	r3, r3, #6
 8004542:	3b01      	subs	r3, #1
 8004544:	6153      	str	r3, [r2, #20]
	portNVIC_SYSTICK_CTRL_REG = ( portNVIC_SYSTICK_CLK | portNVIC_SYSTICK_INT | portNVIC_SYSTICK_ENABLE );
 8004546:	2307      	movs	r3, #7
 8004548:	6113      	str	r3, [r2, #16]
}
 800454a:	4770      	bx	lr
 800454c:	200001f8 	.word	0x200001f8
 8004550:	10624dd3 	.word	0x10624dd3
	...

08004560 <xIsPrivileged>:
	__asm volatile
 8004560:	f3ef 8014 	mrs	r0, CONTROL
 8004564:	f010 0f01 	tst.w	r0, #1
 8004568:	bf14      	ite	ne
 800456a:	2000      	movne	r0, #0
 800456c:	2001      	moveq	r0, #1
 800456e:	4770      	bx	lr

08004570 <vResetPrivilege>:
	__asm volatile
 8004570:	f3ef 8014 	mrs	r0, CONTROL
 8004574:	f040 0001 	orr.w	r0, r0, #1
 8004578:	f380 8814 	msr	CONTROL, r0
 800457c:	4770      	bx	lr
	...

08004580 <vPortValidateInterruptPriority>:
	{
	uint32_t ulCurrentInterrupt;
	uint8_t ucCurrentPriority;

		/* Obtain the number of the currently executing interrupt. */
		__asm volatile( "mrs %0, ipsr" : "=r"( ulCurrentInterrupt ) :: "memory" );
 8004580:	f3ef 8305 	mrs	r3, IPSR

		/* Is the interrupt number a user defined interrupt? */
		if( ulCurrentInterrupt >= portFIRST_USER_INTERRUPT_NUMBER )
 8004584:	2b0f      	cmp	r3, #15
 8004586:	d90f      	bls.n	80045a8 <vPortValidateInterruptPriority+0x28>
		{
			/* Look up the interrupt's priority. */
			ucCurrentPriority = pcInterruptPriorityRegisters[ ulCurrentInterrupt ];
 8004588:	4a11      	ldr	r2, [pc, #68]	@ (80045d0 <vPortValidateInterruptPriority+0x50>)
 800458a:	5c9b      	ldrb	r3, [r3, r2]
 800458c:	b2db      	uxtb	r3, r3
			interrupt entry is as fast and simple as possible.

			The following links provide detailed information:
			http://www.freertos.org/RTOS-Cortex-M3-M4.html
			http://www.freertos.org/FAQHelp.html */
			configASSERT( ucCurrentPriority >= ucMaxSysCallPriority );
 800458e:	4a11      	ldr	r2, [pc, #68]	@ (80045d4 <vPortValidateInterruptPriority+0x54>)
 8004590:	7812      	ldrb	r2, [r2, #0]
 8004592:	429a      	cmp	r2, r3
 8004594:	d908      	bls.n	80045a8 <vPortValidateInterruptPriority+0x28>
	__asm volatile
 8004596:	f04f 0350 	mov.w	r3, #80	@ 0x50
 800459a:	f383 8811 	msr	BASEPRI, r3
 800459e:	f3bf 8f6f 	isb	sy
 80045a2:	f3bf 8f4f 	dsb	sy
 80045a6:	e7fe      	b.n	80045a6 <vPortValidateInterruptPriority+0x26>
		configuration then the correct setting can be achieved on all Cortex-M
		devices by calling NVIC_SetPriorityGrouping( 0 ); before starting the
		scheduler.  Note however that some vendor specific peripheral libraries
		assume a non-zero priority group setting, in which cases using a value
		of zero will result in unpredicable behaviour. */
		configASSERT( ( portAIRCR_REG & portPRIORITY_GROUP_MASK ) <= ulMaxPRIGROUPValue );
 80045a8:	f04f 23e0 	mov.w	r3, #3758153728	@ 0xe000e000
 80045ac:	f8d3 3d0c 	ldr.w	r3, [r3, #3340]	@ 0xd0c
 80045b0:	f403 63e0 	and.w	r3, r3, #1792	@ 0x700
 80045b4:	4a08      	ldr	r2, [pc, #32]	@ (80045d8 <vPortValidateInterruptPriority+0x58>)
 80045b6:	6812      	ldr	r2, [r2, #0]
 80045b8:	4293      	cmp	r3, r2
 80045ba:	d908      	bls.n	80045ce <vPortValidateInterruptPriority+0x4e>
 80045bc:	f04f 0350 	mov.w	r3, #80	@ 0x50
 80045c0:	f383 8811 	msr	BASEPRI, r3
 80045c4:	f3bf 8f6f 	isb	sy
 80045c8:	f3bf 8f4f 	dsb	sy
 80045cc:	e7fe      	b.n	80045cc <vPortValidateInterruptPriority+0x4c>
	}
 80045ce:	4770      	bx	lr
 80045d0:	e000e3f0 	.word	0xe000e3f0
 80045d4:	20001804 	.word	0x20001804
 80045d8:	20001800 	.word	0x20001800

080045dc <HAL_Init>:
  *         need to ensure that the SysTick time base is always set to 1 millisecond
  *         to have correct HAL operation.
  * @retval HAL status
  */
HAL_StatusTypeDef HAL_Init(void)
{
 80045dc:	b508      	push	{r3, lr}
  /* Configure Flash prefetch, Instruction cache, Data cache */ 
#if (INSTRUCTION_CACHE_ENABLE != 0U)
  __HAL_FLASH_INSTRUCTION_CACHE_ENABLE();
 80045de:	4b0b      	ldr	r3, [pc, #44]	@ (800460c <HAL_Init+0x30>)
 80045e0:	681a      	ldr	r2, [r3, #0]
 80045e2:	f442 7200 	orr.w	r2, r2, #512	@ 0x200
 80045e6:	601a      	str	r2, [r3, #0]
#endif /* INSTRUCTION_CACHE_ENABLE */

#if (DATA_CACHE_ENABLE != 0U)
  __HAL_FLASH_DATA_CACHE_ENABLE();
 80045e8:	681a      	ldr	r2, [r3, #0]
 80045ea:	f442 6280 	orr.w	r2, r2, #1024	@ 0x400
 80045ee:	601a      	str	r2, [r3, #0]
#endif /* DATA_CACHE_ENABLE */

#if (PREFETCH_ENABLE != 0U)
  __HAL_FLASH_PREFETCH_BUFFER_ENABLE();
 80045f0:	681a      	ldr	r2, [r3, #0]
 80045f2:	f442 7280 	orr.w	r2, r2, #256	@ 0x100
 80045f6:	601a      	str	r2, [r3, #0]
#endif /* PREFETCH_ENABLE */

  /* Set Interrupt Group Priority */
  HAL_NVIC_SetPriorityGrouping(NVIC_PRIORITYGROUP_4);
 80045f8:	2003      	movs	r0, #3
 80045fa:	f000 fa9f 	bl	8004b3c <HAL_NVIC_SetPriorityGrouping>

  /* Use systick as time base source and configure 1ms tick (default clock after Reset is HSI) */
  HAL_InitTick(TICK_INT_PRIORITY);
 80045fe:	200f      	movs	r0, #15
 8004600:	f001 f9d4 	bl	80059ac <HAL_InitTick>

  /* Init the low level hardware */
  HAL_MspInit();
 8004604:	f000 fbe8 	bl	8004dd8 <HAL_MspInit>

  /* Return function status */
  return HAL_OK;
}
 8004608:	2000      	movs	r0, #0
 800460a:	bd08      	pop	{r3, pc}
 800460c:	40023c00 	.word	0x40023c00

08004610 <HAL_IncTick>:
  *      implementations in user file.
  * @retval None
  */
__weak void HAL_IncTick(void)
{
  uwTick += uwTickFreq;
 8004610:	4a03      	ldr	r2, [pc, #12]	@ (8004620 <HAL_IncTick+0x10>)
 8004612:	6811      	ldr	r1, [r2, #0]
 8004614:	4b03      	ldr	r3, [pc, #12]	@ (8004624 <HAL_IncTick+0x14>)
 8004616:	781b      	ldrb	r3, [r3, #0]
 8004618:	440b      	add	r3, r1
 800461a:	6013      	str	r3, [r2, #0]
}
 800461c:	4770      	bx	lr
 800461e:	bf00      	nop
 8004620:	20001808 	.word	0x20001808
 8004624:	200001f0 	.word	0x200001f0

08004628 <HAL_GetTick>:
  *       implementations in user file.
  * @retval tick value
  */
__weak uint32_t HAL_GetTick(void)
{
  return uwTick;
 8004628:	4b01      	ldr	r3, [pc, #4]	@ (8004630 <HAL_GetTick+0x8>)
 800462a:	6818      	ldr	r0, [r3, #0]
}
 800462c:	4770      	bx	lr
 800462e:	bf00      	nop
 8004630:	20001808 	.word	0x20001808

08004634 <ADC_Init>:
  /* (Depending on STM32F4 product, there may be up to 3 ADCs and 1 common */
  /* control register)                                                    */
  tmpADC_Common = ADC_COMMON_REGISTER(hadc);

  /* Set the ADC clock prescaler */
  tmpADC_Common->CCR &= ~(ADC_CCR_ADCPRE);
 8004634:	4b4a      	ldr	r3, [pc, #296]	@ (8004760 <ADC_Init+0x12c>)
 8004636:	685a      	ldr	r2, [r3, #4]
 8004638:	f422 3240 	bic.w	r2, r2, #196608	@ 0x30000
 800463c:	605a      	str	r2, [r3, #4]
  tmpADC_Common->CCR |=  hadc->Init.ClockPrescaler;
 800463e:	685a      	ldr	r2, [r3, #4]
 8004640:	6841      	ldr	r1, [r0, #4]
 8004642:	430a      	orrs	r2, r1
 8004644:	605a      	str	r2, [r3, #4]

  /* Set ADC scan mode */
  hadc->Instance->CR1 &= ~(ADC_CR1_SCAN);
 8004646:	6802      	ldr	r2, [r0, #0]
 8004648:	6853      	ldr	r3, [r2, #4]
 800464a:	f423 7380 	bic.w	r3, r3, #256	@ 0x100
 800464e:	6053      	str	r3, [r2, #4]
  hadc->Instance->CR1 |=  ADC_CR1_SCANCONV(hadc->Init.ScanConvMode);
 8004650:	6802      	ldr	r2, [r0, #0]
 8004652:	6853      	ldr	r3, [r2, #4]
 8004654:	6901      	ldr	r1, [r0, #16]
 8004656:	ea43 2301 	orr.w	r3, r3, r1, lsl #8
 800465a:	6053      	str	r3, [r2, #4]

  /* Set ADC resolution */
  hadc->Instance->CR1 &= ~(ADC_CR1_RES);
 800465c:	6802      	ldr	r2, [r0, #0]
 800465e:	6853      	ldr	r3, [r2, #4]
 8004660:	f023 7340 	bic.w	r3, r3, #50331648	@ 0x3000000
 8004664:	6053      	str	r3, [r2, #4]
  hadc->Instance->CR1 |=  hadc->Init.Resolution;
 8004666:	6802      	ldr	r2, [r0, #0]
 8004668:	6853      	ldr	r3, [r2, #4]
 800466a:	6881      	ldr	r1, [r0, #8]
 800466c:	430b      	orrs	r3, r1
 800466e:	6053      	str	r3, [r2, #4]

  /* Set ADC data alignment */
  hadc->Instance->CR2 &= ~(ADC_CR2_ALIGN);
 8004670:	6802      	ldr	r2, [r0, #0]
 8004672:	6893      	ldr	r3, [r2, #8]
 8004674:	f423 6300 	bic.w	r3, r3, #2048	@ 0x800
 8004678:	6093      	str	r3, [r2, #8]
  hadc->Instance->CR2 |= hadc->Init.DataAlign;
 800467a:	6802      	ldr	r2, [r0, #0]
 800467c:	6893      	ldr	r3, [r2, #8]
 800467e:	68c1      	ldr	r1, [r0, #12]
 8004680:	430b      	orrs	r3, r1
 8004682:	6093      	str	r3, [r2, #8]
  /* Enable external trigger if trigger selection is different of software  */
  /* start.                                                                 */
  /* Note: This configuration keeps the hardware feature of parameter       */
  /*       ExternalTrigConvEdge "trigger edge none" equivalent to           */
  /*       software start.                                                  */
  if (hadc->Init.ExternalTrigConv != ADC_SOFTWARE_START)
 8004684:	6a82      	ldr	r2, [r0, #40]	@ 0x28
 8004686:	4b37      	ldr	r3, [pc, #220]	@ (8004764 <ADC_Init+0x130>)
 8004688:	429a      	cmp	r2, r3
 800468a:	d057      	beq.n	800473c <ADC_Init+0x108>
  {
    /* Select external trigger to start conversion */
    hadc->Instance->CR2 &= ~(ADC_CR2_EXTSEL);
 800468c:	6802      	ldr	r2, [r0, #0]
 800468e:	6893      	ldr	r3, [r2, #8]
 8004690:	f023 6370 	bic.w	r3, r3, #251658240	@ 0xf000000
 8004694:	6093      	str	r3, [r2, #8]
    hadc->Instance->CR2 |= hadc->Init.ExternalTrigConv;
 8004696:	6802      	ldr	r2, [r0, #0]
 8004698:	6893      	ldr	r3, [r2, #8]
 800469a:	6a81      	ldr	r1, [r0, #40]	@ 0x28
 800469c:	430b      	orrs	r3, r1
 800469e:	6093      	str	r3, [r2, #8]

    /* Select external trigger polarity */
    hadc->Instance->CR2 &= ~(ADC_CR2_EXTEN);
 80046a0:	6802      	ldr	r2, [r0, #0]
 80046a2:	6893      	ldr	r3, [r2, #8]
 80046a4:	f023 5340 	bic.w	r3, r3, #805306368	@ 0x30000000
 80046a8:	6093      	str	r3, [r2, #8]
    hadc->Instance->CR2 |= hadc->Init.ExternalTrigConvEdge;
 80046aa:	6802      	ldr	r2, [r0, #0]
 80046ac:	6893      	ldr	r3, [r2, #8]
 80046ae:	6ac1      	ldr	r1, [r0, #44]	@ 0x2c
 80046b0:	430b      	orrs	r3, r1
 80046b2:	6093      	str	r3, [r2, #8]
    hadc->Instance->CR2 &= ~(ADC_CR2_EXTSEL);
    hadc->Instance->CR2 &= ~(ADC_CR2_EXTEN);
  }

  /* Enable or disable ADC continuous conversion mode */
  hadc->Instance->CR2 &= ~(ADC_CR2_CONT);
 80046b4:	6802      	ldr	r2, [r0, #0]
 80046b6:	6893      	ldr	r3, [r2, #8]
 80046b8:	f023 0302 	bic.w	r3, r3, #2
 80046bc:	6093      	str	r3, [r2, #8]
  hadc->Instance->CR2 |= ADC_CR2_CONTINUOUS((uint32_t)hadc->Init.ContinuousConvMode);
 80046be:	6802      	ldr	r2, [r0, #0]
 80046c0:	6893      	ldr	r3, [r2, #8]
 80046c2:	7e01      	ldrb	r1, [r0, #24]
 80046c4:	ea43 0341 	orr.w	r3, r3, r1, lsl #1
 80046c8:	6093      	str	r3, [r2, #8]

  if (hadc->Init.DiscontinuousConvMode != DISABLE)
 80046ca:	f890 3020 	ldrb.w	r3, [r0, #32]
 80046ce:	2b00      	cmp	r3, #0
 80046d0:	d03f      	beq.n	8004752 <ADC_Init+0x11e>
  {
    assert_param(IS_ADC_REGULAR_DISC_NUMBER(hadc->Init.NbrOfDiscConversion));

    /* Enable the selected ADC regular discontinuous mode */
    hadc->Instance->CR1 |= (uint32_t)ADC_CR1_DISCEN;
 80046d2:	6802      	ldr	r2, [r0, #0]
 80046d4:	6853      	ldr	r3, [r2, #4]
 80046d6:	f443 6300 	orr.w	r3, r3, #2048	@ 0x800
 80046da:	6053      	str	r3, [r2, #4]

    /* Set the number of channels to be converted in discontinuous mode */
    hadc->Instance->CR1 &= ~(ADC_CR1_DISCNUM);
 80046dc:	6802      	ldr	r2, [r0, #0]
 80046de:	6853      	ldr	r3, [r2, #4]
 80046e0:	f423 4360 	bic.w	r3, r3, #57344	@ 0xe000
 80046e4:	6053      	str	r3, [r2, #4]
    hadc->Instance->CR1 |=  ADC_CR1_DISCONTINUOUS(hadc->Init.NbrOfDiscConversion);
 80046e6:	6801      	ldr	r1, [r0, #0]
 80046e8:	684b      	ldr	r3, [r1, #4]
 80046ea:	6a42      	ldr	r2, [r0, #36]	@ 0x24
 80046ec:	3a01      	subs	r2, #1
 80046ee:	ea43 3342 	orr.w	r3, r3, r2, lsl #13
 80046f2:	604b      	str	r3, [r1, #4]
    /* Disable the selected ADC regular discontinuous mode */
    hadc->Instance->CR1 &= ~(ADC_CR1_DISCEN);
  }

  /* Set ADC number of conversion */
  hadc->Instance->SQR1 &= ~(ADC_SQR1_L);
 80046f4:	6802      	ldr	r2, [r0, #0]
 80046f6:	6ad3      	ldr	r3, [r2, #44]	@ 0x2c
 80046f8:	f423 0370 	bic.w	r3, r3, #15728640	@ 0xf00000
 80046fc:	62d3      	str	r3, [r2, #44]	@ 0x2c
  hadc->Instance->SQR1 |=  ADC_SQR1(hadc->Init.NbrOfConversion);
 80046fe:	6801      	ldr	r1, [r0, #0]
 8004700:	6acb      	ldr	r3, [r1, #44]	@ 0x2c
 8004702:	69c2      	ldr	r2, [r0, #28]
 8004704:	3a01      	subs	r2, #1
 8004706:	ea43 5302 	orr.w	r3, r3, r2, lsl #20
 800470a:	62cb      	str	r3, [r1, #44]	@ 0x2c

  /* Enable or disable ADC DMA continuous request */
  hadc->Instance->CR2 &= ~(ADC_CR2_DDS);
 800470c:	6802      	ldr	r2, [r0, #0]
 800470e:	6893      	ldr	r3, [r2, #8]
 8004710:	f423 7300 	bic.w	r3, r3, #512	@ 0x200
 8004714:	6093      	str	r3, [r2, #8]
  hadc->Instance->CR2 |= ADC_CR2_DMAContReq((uint32_t)hadc->Init.DMAContinuousRequests);
 8004716:	6802      	ldr	r2, [r0, #0]
 8004718:	6893      	ldr	r3, [r2, #8]
 800471a:	f890 1030 	ldrb.w	r1, [r0, #48]	@ 0x30
 800471e:	ea43 2341 	orr.w	r3, r3, r1, lsl #9
 8004722:	6093      	str	r3, [r2, #8]

  /* Enable or disable ADC end of conversion selection */
  hadc->Instance->CR2 &= ~(ADC_CR2_EOCS);
 8004724:	6802      	ldr	r2, [r0, #0]
 8004726:	6893      	ldr	r3, [r2, #8]
 8004728:	f423 6380 	bic.w	r3, r3, #1024	@ 0x400
 800472c:	6093      	str	r3, [r2, #8]
  hadc->Instance->CR2 |= ADC_CR2_EOCSelection(hadc->Init.EOCSelection);
 800472e:	6802      	ldr	r2, [r0, #0]
 8004730:	6893      	ldr	r3, [r2, #8]
 8004732:	6941      	ldr	r1, [r0, #20]
 8004734:	ea43 2381 	orr.w	r3, r3, r1, lsl #10
 8004738:	6093      	str	r3, [r2, #8]
}
 800473a:	4770      	bx	lr
    hadc->Instance->CR2 &= ~(ADC_CR2_EXTSEL);
 800473c:	6802      	ldr	r2, [r0, #0]
 800473e:	6893      	ldr	r3, [r2, #8]
 8004740:	f023 6370 	bic.w	r3, r3, #251658240	@ 0xf000000
 8004744:	6093      	str	r3, [r2, #8]
    hadc->Instance->CR2 &= ~(ADC_CR2_EXTEN);
 8004746:	6802      	ldr	r2, [r0, #0]
 8004748:	6893      	ldr	r3, [r2, #8]
 800474a:	f023 5340 	bic.w	r3, r3, #805306368	@ 0x30000000
 800474e:	6093      	str	r3, [r2, #8]
 8004750:	e7b0      	b.n	80046b4 <ADC_Init+0x80>
    hadc->Instance->CR1 &= ~(ADC_CR1_DISCEN);
 8004752:	6802      	ldr	r2, [r0, #0]
 8004754:	6853      	ldr	r3, [r2, #4]
 8004756:	f423 6300 	bic.w	r3, r3, #2048	@ 0x800
 800475a:	6053      	str	r3, [r2, #4]
 800475c:	e7ca      	b.n	80046f4 <ADC_Init+0xc0>
 800475e:	bf00      	nop
 8004760:	40012300 	.word	0x40012300
 8004764:	0f000001 	.word	0x0f000001

08004768 <HAL_ADC_Init>:
  if (hadc == NULL)
 8004768:	b338      	cbz	r0, 80047ba <HAL_ADC_Init+0x52>
{
 800476a:	b510      	push	{r4, lr}
 800476c:	4604      	mov	r4, r0
  if (hadc->State == HAL_ADC_STATE_RESET)
 800476e:	6c03      	ldr	r3, [r0, #64]	@ 0x40
 8004770:	b143      	cbz	r3, 8004784 <HAL_ADC_Init+0x1c>
  if (HAL_IS_BIT_CLR(hadc->State, HAL_ADC_STATE_ERROR_INTERNAL))
 8004772:	6c23      	ldr	r3, [r4, #64]	@ 0x40
 8004774:	f013 0f10 	tst.w	r3, #16
 8004778:	d00b      	beq.n	8004792 <HAL_ADC_Init+0x2a>
    tmp_hal_status = HAL_ERROR;
 800477a:	2001      	movs	r0, #1
  __HAL_UNLOCK(hadc);
 800477c:	2300      	movs	r3, #0
 800477e:	f884 303c 	strb.w	r3, [r4, #60]	@ 0x3c
}
 8004782:	bd10      	pop	{r4, pc}
    HAL_ADC_MspInit(hadc);
 8004784:	f7ff fcce 	bl	8004124 <HAL_ADC_MspInit>
    ADC_CLEAR_ERRORCODE(hadc);
 8004788:	2300      	movs	r3, #0
 800478a:	6463      	str	r3, [r4, #68]	@ 0x44
    hadc->Lock = HAL_UNLOCKED;
 800478c:	f884 303c 	strb.w	r3, [r4, #60]	@ 0x3c
 8004790:	e7ef      	b.n	8004772 <HAL_ADC_Init+0xa>
    ADC_STATE_CLR_SET(hadc->State,
 8004792:	6c23      	ldr	r3, [r4, #64]	@ 0x40
 8004794:	f423 5388 	bic.w	r3, r3, #4352	@ 0x1100
 8004798:	f023 0302 	bic.w	r3, r3, #2
 800479c:	f043 0302 	orr.w	r3, r3, #2
 80047a0:	6423      	str	r3, [r4, #64]	@ 0x40
    ADC_Init(hadc);
 80047a2:	4620      	mov	r0, r4
 80047a4:	f7ff ff46 	bl	8004634 <ADC_Init>
    ADC_CLEAR_ERRORCODE(hadc);
 80047a8:	2000      	movs	r0, #0
 80047aa:	6460      	str	r0, [r4, #68]	@ 0x44
    ADC_STATE_CLR_SET(hadc->State,
 80047ac:	6c23      	ldr	r3, [r4, #64]	@ 0x40
 80047ae:	f023 0303 	bic.w	r3, r3, #3
 80047b2:	f043 0301 	orr.w	r3, r3, #1
 80047b6:	6423      	str	r3, [r4, #64]	@ 0x40
 80047b8:	e7e0      	b.n	800477c <HAL_ADC_Init+0x14>
    return HAL_ERROR;
 80047ba:	2001      	movs	r0, #1
}
 80047bc:	4770      	bx	lr

080047be <HAL_ADC_ConvCpltCallback>:
}
 80047be:	4770      	bx	lr

080047c0 <HAL_ADC_LevelOutOfWindowCallback>:
}
 80047c0:	4770      	bx	lr

080047c2 <HAL_ADC_ErrorCallback>:
}
 80047c2:	4770      	bx	lr

080047c4 <HAL_ADC_IRQHandler>:
{
 80047c4:	b570      	push	{r4, r5, r6, lr}
 80047c6:	4604      	mov	r4, r0
  uint32_t tmp_sr = hadc->Instance->SR;
 80047c8:	6803      	ldr	r3, [r0, #0]
 80047ca:	681e      	ldr	r6, [r3, #0]
  uint32_t tmp_cr1 = hadc->Instance->CR1;
 80047cc:	685d      	ldr	r5, [r3, #4]
  if (tmp1 && tmp2)
 80047ce:	f016 0f02 	tst.w	r6, #2
 80047d2:	d02f      	beq.n	8004834 <HAL_ADC_IRQHandler+0x70>
 80047d4:	f005 0220 	and.w	r2, r5, #32
 80047d8:	b362      	cbz	r2, 8004834 <HAL_ADC_IRQHandler+0x70>
    if (HAL_IS_BIT_CLR(hadc->State, HAL_ADC_STATE_ERROR_INTERNAL))
 80047da:	6c02      	ldr	r2, [r0, #64]	@ 0x40
 80047dc:	f012 0f10 	tst.w	r2, #16
 80047e0:	d103      	bne.n	80047ea <HAL_ADC_IRQHandler+0x26>
      SET_BIT(hadc->State, HAL_ADC_STATE_REG_EOC);
 80047e2:	6c02      	ldr	r2, [r0, #64]	@ 0x40
 80047e4:	f442 7200 	orr.w	r2, r2, #512	@ 0x200
 80047e8:	6402      	str	r2, [r0, #64]	@ 0x40
    if (ADC_IS_SOFTWARE_START_REGULAR(hadc)                   &&
 80047ea:	689a      	ldr	r2, [r3, #8]
 80047ec:	f012 5f40 	tst.w	r2, #805306368	@ 0x30000000
 80047f0:	d119      	bne.n	8004826 <HAL_ADC_IRQHandler+0x62>
        (hadc->Init.ContinuousConvMode == DISABLE)            &&
 80047f2:	7e22      	ldrb	r2, [r4, #24]
    if (ADC_IS_SOFTWARE_START_REGULAR(hadc)                   &&
 80047f4:	b9ba      	cbnz	r2, 8004826 <HAL_ADC_IRQHandler+0x62>
        (HAL_IS_BIT_CLR(hadc->Instance->SQR1, ADC_SQR1_L) ||
 80047f6:	6ada      	ldr	r2, [r3, #44]	@ 0x2c
        (hadc->Init.ContinuousConvMode == DISABLE)            &&
 80047f8:	f412 0f70 	tst.w	r2, #15728640	@ 0xf00000
 80047fc:	d003      	beq.n	8004806 <HAL_ADC_IRQHandler+0x42>
         HAL_IS_BIT_CLR(hadc->Instance->CR2, ADC_CR2_EOCS)))
 80047fe:	689a      	ldr	r2, [r3, #8]
        (HAL_IS_BIT_CLR(hadc->Instance->SQR1, ADC_SQR1_L) ||
 8004800:	f412 6f80 	tst.w	r2, #1024	@ 0x400
 8004804:	d10f      	bne.n	8004826 <HAL_ADC_IRQHandler+0x62>
      __HAL_ADC_DISABLE_IT(hadc, ADC_IT_EOC);
 8004806:	685a      	ldr	r2, [r3, #4]
 8004808:	f022 0220 	bic.w	r2, r2, #32
 800480c:	605a      	str	r2, [r3, #4]
      CLEAR_BIT(hadc->State, HAL_ADC_STATE_REG_BUSY);
 800480e:	6c23      	ldr	r3, [r4, #64]	@ 0x40
 8004810:	f423 7380 	bic.w	r3, r3, #256	@ 0x100
 8004814:	6423      	str	r3, [r4, #64]	@ 0x40
      if (HAL_IS_BIT_CLR(hadc->State, HAL_ADC_STATE_INJ_BUSY))
 8004816:	6c23      	ldr	r3, [r4, #64]	@ 0x40
 8004818:	f413 5f80 	tst.w	r3, #4096	@ 0x1000
 800481c:	d103      	bne.n	8004826 <HAL_ADC_IRQHandler+0x62>
        SET_BIT(hadc->State, HAL_ADC_STATE_READY);
 800481e:	6c23      	ldr	r3, [r4, #64]	@ 0x40
 8004820:	f043 0301 	orr.w	r3, r3, #1
 8004824:	6423      	str	r3, [r4, #64]	@ 0x40
    HAL_ADC_ConvCpltCallback(hadc);
 8004826:	4620      	mov	r0, r4
 8004828:	f7ff ffc9 	bl	80047be <HAL_ADC_ConvCpltCallback>
    __HAL_ADC_CLEAR_FLAG(hadc, ADC_FLAG_STRT | ADC_FLAG_EOC);
 800482c:	6823      	ldr	r3, [r4, #0]
 800482e:	f06f 0212 	mvn.w	r2, #18
 8004832:	601a      	str	r2, [r3, #0]
  tmp2 = tmp_cr1 & ADC_IT_JEOC;
 8004834:	f005 0380 	and.w	r3, r5, #128	@ 0x80
  if (tmp1 && tmp2)
 8004838:	f016 0f04 	tst.w	r6, #4
 800483c:	d037      	beq.n	80048ae <HAL_ADC_IRQHandler+0xea>
 800483e:	2b00      	cmp	r3, #0
 8004840:	d035      	beq.n	80048ae <HAL_ADC_IRQHandler+0xea>
    if (HAL_IS_BIT_CLR(hadc->State, HAL_ADC_STATE_ERROR_INTERNAL))
 8004842:	6c23      	ldr	r3, [r4, #64]	@ 0x40
 8004844:	f013 0f10 	tst.w	r3, #16
 8004848:	d103      	bne.n	8004852 <HAL_ADC_IRQHandler+0x8e>
      SET_BIT(hadc->State, HAL_ADC_STATE_INJ_EOC);
 800484a:	6c23      	ldr	r3, [r4, #64]	@ 0x40
 800484c:	f443 5300 	orr.w	r3, r3, #8192	@ 0x2000
 8004850:	6423      	str	r3, [r4, #64]	@ 0x40
    if (ADC_IS_SOFTWARE_START_INJECTED(hadc)                    &&
 8004852:	6823      	ldr	r3, [r4, #0]
 8004854:	689a      	ldr	r2, [r3, #8]
 8004856:	f412 1f40 	tst.w	r2, #3145728	@ 0x300000
 800485a:	d121      	bne.n	80048a0 <HAL_ADC_IRQHandler+0xdc>
        (HAL_IS_BIT_CLR(hadc->Instance->JSQR, ADC_JSQR_JL)  ||
 800485c:	6b9a      	ldr	r2, [r3, #56]	@ 0x38
    if (ADC_IS_SOFTWARE_START_INJECTED(hadc)                    &&
 800485e:	f412 1f40 	tst.w	r2, #3145728	@ 0x300000
 8004862:	d003      	beq.n	800486c <HAL_ADC_IRQHandler+0xa8>
         HAL_IS_BIT_CLR(hadc->Instance->CR2, ADC_CR2_EOCS)) &&
 8004864:	689a      	ldr	r2, [r3, #8]
        (HAL_IS_BIT_CLR(hadc->Instance->JSQR, ADC_JSQR_JL)  ||
 8004866:	f412 6f80 	tst.w	r2, #1024	@ 0x400
 800486a:	d119      	bne.n	80048a0 <HAL_ADC_IRQHandler+0xdc>
        (HAL_IS_BIT_CLR(hadc->Instance->CR1, ADC_CR1_JAUTO) &&
 800486c:	685a      	ldr	r2, [r3, #4]
         HAL_IS_BIT_CLR(hadc->Instance->CR2, ADC_CR2_EOCS)) &&
 800486e:	f412 6f80 	tst.w	r2, #1024	@ 0x400
 8004872:	d115      	bne.n	80048a0 <HAL_ADC_IRQHandler+0xdc>
         (ADC_IS_SOFTWARE_START_REGULAR(hadc)       &&
 8004874:	689a      	ldr	r2, [r3, #8]
        (HAL_IS_BIT_CLR(hadc->Instance->CR1, ADC_CR1_JAUTO) &&
 8004876:	f012 5f40 	tst.w	r2, #805306368	@ 0x30000000
 800487a:	d111      	bne.n	80048a0 <HAL_ADC_IRQHandler+0xdc>
          (hadc->Init.ContinuousConvMode == DISABLE))))
 800487c:	7e22      	ldrb	r2, [r4, #24]
         (ADC_IS_SOFTWARE_START_REGULAR(hadc)       &&
 800487e:	b97a      	cbnz	r2, 80048a0 <HAL_ADC_IRQHandler+0xdc>
      __HAL_ADC_DISABLE_IT(hadc, ADC_IT_JEOC);
 8004880:	685a      	ldr	r2, [r3, #4]
 8004882:	f022 0280 	bic.w	r2, r2, #128	@ 0x80
 8004886:	605a      	str	r2, [r3, #4]
      CLEAR_BIT(hadc->State, HAL_ADC_STATE_INJ_BUSY);
 8004888:	6c23      	ldr	r3, [r4, #64]	@ 0x40
 800488a:	f423 5380 	bic.w	r3, r3, #4096	@ 0x1000
 800488e:	6423      	str	r3, [r4, #64]	@ 0x40
      if (HAL_IS_BIT_CLR(hadc->State, HAL_ADC_STATE_REG_BUSY))
 8004890:	6c23      	ldr	r3, [r4, #64]	@ 0x40
 8004892:	f413 7f80 	tst.w	r3, #256	@ 0x100
 8004896:	d103      	bne.n	80048a0 <HAL_ADC_IRQHandler+0xdc>
        SET_BIT(hadc->State, HAL_ADC_STATE_READY);
 8004898:	6c23      	ldr	r3, [r4, #64]	@ 0x40
 800489a:	f043 0301 	orr.w	r3, r3, #1
 800489e:	6423      	str	r3, [r4, #64]	@ 0x40
    HAL_ADCEx_InjectedConvCpltCallback(hadc);
 80048a0:	4620      	mov	r0, r4
 80048a2:	f000 f907 	bl	8004ab4 <HAL_ADCEx_InjectedConvCpltCallback>
    __HAL_ADC_CLEAR_FLAG(hadc, (ADC_FLAG_JSTRT | ADC_FLAG_JEOC));
 80048a6:	6823      	ldr	r3, [r4, #0]
 80048a8:	f06f 020c 	mvn.w	r2, #12
 80048ac:	601a      	str	r2, [r3, #0]
  tmp2 = tmp_cr1 & ADC_IT_AWD;
 80048ae:	f005 0340 	and.w	r3, r5, #64	@ 0x40
  if (tmp1 && tmp2)
 80048b2:	f016 0f01 	tst.w	r6, #1
 80048b6:	d005      	beq.n	80048c4 <HAL_ADC_IRQHandler+0x100>
 80048b8:	b123      	cbz	r3, 80048c4 <HAL_ADC_IRQHandler+0x100>
    if (__HAL_ADC_GET_FLAG(hadc, ADC_FLAG_AWD))
 80048ba:	6823      	ldr	r3, [r4, #0]
 80048bc:	681b      	ldr	r3, [r3, #0]
 80048be:	f013 0f01 	tst.w	r3, #1
 80048c2:	d106      	bne.n	80048d2 <HAL_ADC_IRQHandler+0x10e>
  tmp2 = tmp_cr1 & ADC_IT_OVR;
 80048c4:	f005 6580 	and.w	r5, r5, #67108864	@ 0x4000000
  if (tmp1 && tmp2)
 80048c8:	f016 0f20 	tst.w	r6, #32
 80048cc:	d000      	beq.n	80048d0 <HAL_ADC_IRQHandler+0x10c>
 80048ce:	b965      	cbnz	r5, 80048ea <HAL_ADC_IRQHandler+0x126>
}
 80048d0:	bd70      	pop	{r4, r5, r6, pc}
      SET_BIT(hadc->State, HAL_ADC_STATE_AWD1);
 80048d2:	6c23      	ldr	r3, [r4, #64]	@ 0x40
 80048d4:	f443 3380 	orr.w	r3, r3, #65536	@ 0x10000
 80048d8:	6423      	str	r3, [r4, #64]	@ 0x40
      HAL_ADC_LevelOutOfWindowCallback(hadc);
 80048da:	4620      	mov	r0, r4
 80048dc:	f7ff ff70 	bl	80047c0 <HAL_ADC_LevelOutOfWindowCallback>
      __HAL_ADC_CLEAR_FLAG(hadc, ADC_FLAG_AWD);
 80048e0:	6823      	ldr	r3, [r4, #0]
 80048e2:	f06f 0201 	mvn.w	r2, #1
 80048e6:	601a      	str	r2, [r3, #0]
 80048e8:	e7ec      	b.n	80048c4 <HAL_ADC_IRQHandler+0x100>
    SET_BIT(hadc->ErrorCode, HAL_ADC_ERROR_OVR);
 80048ea:	6c63      	ldr	r3, [r4, #68]	@ 0x44
 80048ec:	f043 0302 	orr.w	r3, r3, #2
 80048f0:	6463      	str	r3, [r4, #68]	@ 0x44
    __HAL_ADC_CLEAR_FLAG(hadc, ADC_FLAG_OVR);
 80048f2:	6823      	ldr	r3, [r4, #0]
 80048f4:	f06f 0520 	mvn.w	r5, #32
 80048f8:	601d      	str	r5, [r3, #0]
    HAL_ADC_ErrorCallback(hadc);
 80048fa:	4620      	mov	r0, r4
 80048fc:	f7ff ff61 	bl	80047c2 <HAL_ADC_ErrorCallback>
    __HAL_ADC_CLEAR_FLAG(hadc, ADC_FLAG_OVR);
 8004900:	6823      	ldr	r3, [r4, #0]
 8004902:	601d      	str	r5, [r3, #0]
}
 8004904:	e7e4      	b.n	80048d0 <HAL_ADC_IRQHandler+0x10c>
	...

08004908 <HAL_ADC_ConfigChannel>:
{
 8004908:	b430      	push	{r4, r5}
 800490a:	b082      	sub	sp, #8
  __IO uint32_t counter = 0U;
 800490c:	2200      	movs	r2, #0
 800490e:	9201      	str	r2, [sp, #4]
  __HAL_LOCK(hadc);
 8004910:	f890 203c 	ldrb.w	r2, [r0, #60]	@ 0x3c
 8004914:	2a01      	cmp	r2, #1
 8004916:	f000 80c0 	beq.w	8004a9a <HAL_ADC_ConfigChannel+0x192>
 800491a:	4603      	mov	r3, r0
 800491c:	2201      	movs	r2, #1
 800491e:	f880 203c 	strb.w	r2, [r0, #60]	@ 0x3c
  if (sConfig->Channel > ADC_CHANNEL_9)
 8004922:	680a      	ldr	r2, [r1, #0]
 8004924:	2a09      	cmp	r2, #9
 8004926:	d940      	bls.n	80049aa <HAL_ADC_ConfigChannel+0xa2>
    hadc->Instance->SMPR1 &= ~ADC_SMPR1(ADC_SMPR1_SMP10, sConfig->Channel);
 8004928:	6804      	ldr	r4, [r0, #0]
 800492a:	68e0      	ldr	r0, [r4, #12]
 800492c:	b292      	uxth	r2, r2
 800492e:	eb02 0242 	add.w	r2, r2, r2, lsl #1
 8004932:	3a1e      	subs	r2, #30
 8004934:	f04f 0c07 	mov.w	ip, #7
 8004938:	fa0c f202 	lsl.w	r2, ip, r2
 800493c:	ea20 0202 	bic.w	r2, r0, r2
 8004940:	60e2      	str	r2, [r4, #12]
    hadc->Instance->SMPR1 |= ADC_SMPR1(sConfig->SamplingTime, sConfig->Channel);
 8004942:	681c      	ldr	r4, [r3, #0]
 8004944:	68e0      	ldr	r0, [r4, #12]
 8004946:	880a      	ldrh	r2, [r1, #0]
 8004948:	eb02 0242 	add.w	r2, r2, r2, lsl #1
 800494c:	3a1e      	subs	r2, #30
 800494e:	688d      	ldr	r5, [r1, #8]
 8004950:	fa05 f202 	lsl.w	r2, r5, r2
 8004954:	4302      	orrs	r2, r0
 8004956:	60e2      	str	r2, [r4, #12]
  if (sConfig->Rank < 7U)
 8004958:	684a      	ldr	r2, [r1, #4]
 800495a:	2a06      	cmp	r2, #6
 800495c:	d83c      	bhi.n	80049d8 <HAL_ADC_ConfigChannel+0xd0>
    hadc->Instance->SQR3 &= ~ADC_SQR3_RK(ADC_SQR3_SQ1, sConfig->Rank);
 800495e:	681c      	ldr	r4, [r3, #0]
 8004960:	6b60      	ldr	r0, [r4, #52]	@ 0x34
 8004962:	eb02 0282 	add.w	r2, r2, r2, lsl #2
 8004966:	3a05      	subs	r2, #5
 8004968:	f04f 0c1f 	mov.w	ip, #31
 800496c:	fa0c f202 	lsl.w	r2, ip, r2
 8004970:	ea20 0202 	bic.w	r2, r0, r2
 8004974:	6362      	str	r2, [r4, #52]	@ 0x34
    hadc->Instance->SQR3 |= ADC_SQR3_RK(sConfig->Channel, sConfig->Rank);
 8004976:	681c      	ldr	r4, [r3, #0]
 8004978:	6b60      	ldr	r0, [r4, #52]	@ 0x34
 800497a:	684a      	ldr	r2, [r1, #4]
 800497c:	eb02 0282 	add.w	r2, r2, r2, lsl #2
 8004980:	3a05      	subs	r2, #5
 8004982:	f8b1 c000 	ldrh.w	ip, [r1]
 8004986:	fa0c f202 	lsl.w	r2, ip, r2
 800498a:	4302      	orrs	r2, r0
 800498c:	6362      	str	r2, [r4, #52]	@ 0x34
  if ((hadc->Instance == ADC1) && (sConfig->Channel == ADC_CHANNEL_VBAT))
 800498e:	6818      	ldr	r0, [r3, #0]
 8004990:	4a43      	ldr	r2, [pc, #268]	@ (8004aa0 <HAL_ADC_ConfigChannel+0x198>)
 8004992:	4290      	cmp	r0, r2
 8004994:	d050      	beq.n	8004a38 <HAL_ADC_ConfigChannel+0x130>
  if ((hadc->Instance == ADC1) && ((sConfig->Channel == ADC_CHANNEL_TEMPSENSOR) || (sConfig->Channel == ADC_CHANNEL_VREFINT)))
 8004996:	6818      	ldr	r0, [r3, #0]
 8004998:	4a41      	ldr	r2, [pc, #260]	@ (8004aa0 <HAL_ADC_ConfigChannel+0x198>)
 800499a:	4290      	cmp	r0, r2
 800499c:	d059      	beq.n	8004a52 <HAL_ADC_ConfigChannel+0x14a>
  __HAL_UNLOCK(hadc);
 800499e:	2000      	movs	r0, #0
 80049a0:	f883 003c 	strb.w	r0, [r3, #60]	@ 0x3c
}
 80049a4:	b002      	add	sp, #8
 80049a6:	bc30      	pop	{r4, r5}
 80049a8:	4770      	bx	lr
    hadc->Instance->SMPR2 &= ~ADC_SMPR2(ADC_SMPR2_SMP0, sConfig->Channel);
 80049aa:	6804      	ldr	r4, [r0, #0]
 80049ac:	6920      	ldr	r0, [r4, #16]
 80049ae:	b292      	uxth	r2, r2
 80049b0:	eb02 0242 	add.w	r2, r2, r2, lsl #1
 80049b4:	f04f 0c07 	mov.w	ip, #7
 80049b8:	fa0c f202 	lsl.w	r2, ip, r2
 80049bc:	ea20 0202 	bic.w	r2, r0, r2
 80049c0:	6122      	str	r2, [r4, #16]
    hadc->Instance->SMPR2 |= ADC_SMPR2(sConfig->SamplingTime, sConfig->Channel);
 80049c2:	681c      	ldr	r4, [r3, #0]
 80049c4:	6920      	ldr	r0, [r4, #16]
 80049c6:	880a      	ldrh	r2, [r1, #0]
 80049c8:	eb02 0242 	add.w	r2, r2, r2, lsl #1
 80049cc:	688d      	ldr	r5, [r1, #8]
 80049ce:	fa05 f202 	lsl.w	r2, r5, r2
 80049d2:	4302      	orrs	r2, r0
 80049d4:	6122      	str	r2, [r4, #16]
 80049d6:	e7bf      	b.n	8004958 <HAL_ADC_ConfigChannel+0x50>
  else if (sConfig->Rank < 13U)
 80049d8:	2a0c      	cmp	r2, #12
 80049da:	d816      	bhi.n	8004a0a <HAL_ADC_ConfigChannel+0x102>
    hadc->Instance->SQR2 &= ~ADC_SQR2_RK(ADC_SQR2_SQ7, sConfig->Rank);
 80049dc:	681d      	ldr	r5, [r3, #0]
 80049de:	6b28      	ldr	r0, [r5, #48]	@ 0x30
 80049e0:	eb02 0282 	add.w	r2, r2, r2, lsl #2
 80049e4:	3a23      	subs	r2, #35	@ 0x23
 80049e6:	241f      	movs	r4, #31
 80049e8:	fa04 f202 	lsl.w	r2, r4, r2
 80049ec:	ea20 0202 	bic.w	r2, r0, r2
 80049f0:	632a      	str	r2, [r5, #48]	@ 0x30
    hadc->Instance->SQR2 |= ADC_SQR2_RK(sConfig->Channel, sConfig->Rank);
 80049f2:	681d      	ldr	r5, [r3, #0]
 80049f4:	6b28      	ldr	r0, [r5, #48]	@ 0x30
 80049f6:	684a      	ldr	r2, [r1, #4]
 80049f8:	eb02 0282 	add.w	r2, r2, r2, lsl #2
 80049fc:	3a23      	subs	r2, #35	@ 0x23
 80049fe:	880c      	ldrh	r4, [r1, #0]
 8004a00:	fa04 f202 	lsl.w	r2, r4, r2
 8004a04:	4302      	orrs	r2, r0
 8004a06:	632a      	str	r2, [r5, #48]	@ 0x30
 8004a08:	e7c1      	b.n	800498e <HAL_ADC_ConfigChannel+0x86>
    hadc->Instance->SQR1 &= ~ADC_SQR1_RK(ADC_SQR1_SQ13, sConfig->Rank);
 8004a0a:	681d      	ldr	r5, [r3, #0]
 8004a0c:	6ae8      	ldr	r0, [r5, #44]	@ 0x2c
 8004a0e:	eb02 0282 	add.w	r2, r2, r2, lsl #2
 8004a12:	3a41      	subs	r2, #65	@ 0x41
 8004a14:	241f      	movs	r4, #31
 8004a16:	fa04 f202 	lsl.w	r2, r4, r2
 8004a1a:	ea20 0202 	bic.w	r2, r0, r2
 8004a1e:	62ea      	str	r2, [r5, #44]	@ 0x2c
    hadc->Instance->SQR1 |= ADC_SQR1_RK(sConfig->Channel, sConfig->Rank);
 8004a20:	681d      	ldr	r5, [r3, #0]
 8004a22:	6ae8      	ldr	r0, [r5, #44]	@ 0x2c
 8004a24:	684a      	ldr	r2, [r1, #4]
 8004a26:	eb02 0282 	add.w	r2, r2, r2, lsl #2
 8004a2a:	3a41      	subs	r2, #65	@ 0x41
 8004a2c:	880c      	ldrh	r4, [r1, #0]
 8004a2e:	fa04 f202 	lsl.w	r2, r4, r2
 8004a32:	4302      	orrs	r2, r0
 8004a34:	62ea      	str	r2, [r5, #44]	@ 0x2c
 8004a36:	e7aa      	b.n	800498e <HAL_ADC_ConfigChannel+0x86>
  if ((hadc->Instance == ADC1) && (sConfig->Channel == ADC_CHANNEL_VBAT))
 8004a38:	680a      	ldr	r2, [r1, #0]
 8004a3a:	2a12      	cmp	r2, #18
 8004a3c:	d1ab      	bne.n	8004996 <HAL_ADC_ConfigChannel+0x8e>
      tmpADC_Common->CCR &= ~ADC_CCR_TSVREFE;
 8004a3e:	4a19      	ldr	r2, [pc, #100]	@ (8004aa4 <HAL_ADC_ConfigChannel+0x19c>)
 8004a40:	6850      	ldr	r0, [r2, #4]
 8004a42:	f420 0000 	bic.w	r0, r0, #8388608	@ 0x800000
 8004a46:	6050      	str	r0, [r2, #4]
    tmpADC_Common->CCR |= ADC_CCR_VBATE;
 8004a48:	6850      	ldr	r0, [r2, #4]
 8004a4a:	f440 0080 	orr.w	r0, r0, #4194304	@ 0x400000
 8004a4e:	6050      	str	r0, [r2, #4]
 8004a50:	e7a1      	b.n	8004996 <HAL_ADC_ConfigChannel+0x8e>
  if ((hadc->Instance == ADC1) && ((sConfig->Channel == ADC_CHANNEL_TEMPSENSOR) || (sConfig->Channel == ADC_CHANNEL_VREFINT)))
 8004a52:	680a      	ldr	r2, [r1, #0]
 8004a54:	4814      	ldr	r0, [pc, #80]	@ (8004aa8 <HAL_ADC_ConfigChannel+0x1a0>)
 8004a56:	4282      	cmp	r2, r0
 8004a58:	d001      	beq.n	8004a5e <HAL_ADC_ConfigChannel+0x156>
 8004a5a:	2a11      	cmp	r2, #17
 8004a5c:	d19f      	bne.n	800499e <HAL_ADC_ConfigChannel+0x96>
      tmpADC_Common->CCR &= ~ADC_CCR_VBATE;
 8004a5e:	4a11      	ldr	r2, [pc, #68]	@ (8004aa4 <HAL_ADC_ConfigChannel+0x19c>)
 8004a60:	6850      	ldr	r0, [r2, #4]
 8004a62:	f420 0080 	bic.w	r0, r0, #4194304	@ 0x400000
 8004a66:	6050      	str	r0, [r2, #4]
    tmpADC_Common->CCR |= ADC_CCR_TSVREFE;
 8004a68:	6850      	ldr	r0, [r2, #4]
 8004a6a:	f440 0000 	orr.w	r0, r0, #8388608	@ 0x800000
 8004a6e:	6050      	str	r0, [r2, #4]
    if (sConfig->Channel == ADC_CHANNEL_TEMPSENSOR)
 8004a70:	6809      	ldr	r1, [r1, #0]
 8004a72:	4a0d      	ldr	r2, [pc, #52]	@ (8004aa8 <HAL_ADC_ConfigChannel+0x1a0>)
 8004a74:	4291      	cmp	r1, r2
 8004a76:	d192      	bne.n	800499e <HAL_ADC_ConfigChannel+0x96>
      counter = (ADC_TEMPSENSOR_DELAY_US * (SystemCoreClock / 1000000U));
 8004a78:	4a0c      	ldr	r2, [pc, #48]	@ (8004aac <HAL_ADC_ConfigChannel+0x1a4>)
 8004a7a:	6812      	ldr	r2, [r2, #0]
 8004a7c:	490c      	ldr	r1, [pc, #48]	@ (8004ab0 <HAL_ADC_ConfigChannel+0x1a8>)
 8004a7e:	fba1 1202 	umull	r1, r2, r1, r2
 8004a82:	0c92      	lsrs	r2, r2, #18
 8004a84:	eb02 0282 	add.w	r2, r2, r2, lsl #2
 8004a88:	0052      	lsls	r2, r2, #1
 8004a8a:	9201      	str	r2, [sp, #4]
      while (counter != 0U)
 8004a8c:	9a01      	ldr	r2, [sp, #4]
 8004a8e:	2a00      	cmp	r2, #0
 8004a90:	d085      	beq.n	800499e <HAL_ADC_ConfigChannel+0x96>
        counter--;
 8004a92:	9a01      	ldr	r2, [sp, #4]
 8004a94:	3a01      	subs	r2, #1
 8004a96:	9201      	str	r2, [sp, #4]
 8004a98:	e7f8      	b.n	8004a8c <HAL_ADC_ConfigChannel+0x184>
  __HAL_LOCK(hadc);
 8004a9a:	2002      	movs	r0, #2
 8004a9c:	e782      	b.n	80049a4 <HAL_ADC_ConfigChannel+0x9c>
 8004a9e:	bf00      	nop
 8004aa0:	40012000 	.word	0x40012000
 8004aa4:	40012300 	.word	0x40012300
 8004aa8:	10000012 	.word	0x10000012
 8004aac:	200001f8 	.word	0x200001f8
 8004ab0:	431bde83 	.word	0x431bde83

08004ab4 <HAL_ADCEx_InjectedConvCpltCallback>:
  /* Prevent unused argument(s) compilation warning */
  UNUSED(hadc);
  /* NOTE : This function Should not be modified, when the callback is needed,
            the HAL_ADC_InjectedConvCpltCallback could be implemented in the user file
   */
}
 8004ab4:	4770      	bx	lr
	...

08004ab8 <__NVIC_EnableIRQ>:
  \param [in]      IRQn  Device specific interrupt number.
  \note    IRQn must not be negative.
 */
__STATIC_INLINE void __NVIC_EnableIRQ(IRQn_Type IRQn)
{
  if ((int32_t)(IRQn) >= 0)
 8004ab8:	2800      	cmp	r0, #0
 8004aba:	db07      	blt.n	8004acc <__NVIC_EnableIRQ+0x14>
  {
    __COMPILER_BARRIER();
    NVIC->ISER[(((uint32_t)IRQn) >> 5UL)] = (uint32_t)(1UL << (((uint32_t)IRQn) & 0x1FUL));
 8004abc:	f000 021f 	and.w	r2, r0, #31
 8004ac0:	0940      	lsrs	r0, r0, #5
 8004ac2:	2301      	movs	r3, #1
 8004ac4:	4093      	lsls	r3, r2
 8004ac6:	4a02      	ldr	r2, [pc, #8]	@ (8004ad0 <__NVIC_EnableIRQ+0x18>)
 8004ac8:	f842 3020 	str.w	r3, [r2, r0, lsl #2]
    __COMPILER_BARRIER();
  }
}
 8004acc:	4770      	bx	lr
 8004ace:	bf00      	nop
 8004ad0:	e000e100 	.word	0xe000e100

08004ad4 <__NVIC_SetPriority>:
  \param [in]  priority  Priority to set.
  \note    The priority cannot be set for every processor exception.
 */
__STATIC_INLINE void __NVIC_SetPriority(IRQn_Type IRQn, uint32_t priority)
{
  if ((int32_t)(IRQn) >= 0)
 8004ad4:	2800      	cmp	r0, #0
 8004ad6:	db08      	blt.n	8004aea <__NVIC_SetPriority+0x16>
  {
    NVIC->IP[((uint32_t)IRQn)]               = (uint8_t)((priority << (8U - __NVIC_PRIO_BITS)) & (uint32_t)0xFFUL);
 8004ad8:	0109      	lsls	r1, r1, #4
 8004ada:	b2c9      	uxtb	r1, r1
 8004adc:	f100 4060 	add.w	r0, r0, #3758096384	@ 0xe0000000
 8004ae0:	f500 4061 	add.w	r0, r0, #57600	@ 0xe100
 8004ae4:	f880 1300 	strb.w	r1, [r0, #768]	@ 0x300
 8004ae8:	4770      	bx	lr
  }
  else
  {
    SCB->SHP[(((uint32_t)IRQn) & 0xFUL)-4UL] = (uint8_t)((priority << (8U - __NVIC_PRIO_BITS)) & (uint32_t)0xFFUL);
 8004aea:	f000 000f 	and.w	r0, r0, #15
 8004aee:	0109      	lsls	r1, r1, #4
 8004af0:	b2c9      	uxtb	r1, r1
 8004af2:	4b01      	ldr	r3, [pc, #4]	@ (8004af8 <__NVIC_SetPriority+0x24>)
 8004af4:	5419      	strb	r1, [r3, r0]
  }
}
 8004af6:	4770      	bx	lr
 8004af8:	e000ed14 	.word	0xe000ed14

08004afc <NVIC_EncodePriority>:
  \param [in]   PreemptPriority  Preemptive priority value (starting from 0).
  \param [in]       SubPriority  Subpriority value (starting from 0).
  \return                        Encoded priority. Value can be used in the function \ref NVIC_SetPriority().
 */
__STATIC_INLINE uint32_t NVIC_EncodePriority (uint32_t PriorityGroup, uint32_t PreemptPriority, uint32_t SubPriority)
{
 8004afc:	b500      	push	{lr}
  uint32_t PriorityGroupTmp = (PriorityGroup & (uint32_t)0x07UL);   /* only values 0..7 are used          */
 8004afe:	f000 0007 	and.w	r0, r0, #7
  uint32_t PreemptPriorityBits;
  uint32_t SubPriorityBits;

  PreemptPriorityBits = ((7UL - PriorityGroupTmp) > (uint32_t)(__NVIC_PRIO_BITS)) ? (uint32_t)(__NVIC_PRIO_BITS) : (uint32_t)(7UL - PriorityGroupTmp);
 8004b02:	f1c0 0c07 	rsb	ip, r0, #7
 8004b06:	f1bc 0f04 	cmp.w	ip, #4
 8004b0a:	bf28      	it	cs
 8004b0c:	f04f 0c04 	movcs.w	ip, #4
  SubPriorityBits     = ((PriorityGroupTmp + (uint32_t)(__NVIC_PRIO_BITS)) < (uint32_t)7UL) ? (uint32_t)0UL : (uint32_t)((PriorityGroupTmp - 7UL) + (uint32_t)(__NVIC_PRIO_BITS));
 8004b10:	1d03      	adds	r3, r0, #4
 8004b12:	2b06      	cmp	r3, #6
 8004b14:	d90f      	bls.n	8004b36 <NVIC_EncodePriority+0x3a>
 8004b16:	1ec3      	subs	r3, r0, #3

  return (
           ((PreemptPriority & (uint32_t)((1UL << (PreemptPriorityBits)) - 1UL)) << SubPriorityBits) |
 8004b18:	f04f 3eff 	mov.w	lr, #4294967295	@ 0xffffffff
 8004b1c:	fa0e f00c 	lsl.w	r0, lr, ip
 8004b20:	ea21 0100 	bic.w	r1, r1, r0
 8004b24:	4099      	lsls	r1, r3
           ((SubPriority     & (uint32_t)((1UL << (SubPriorityBits    )) - 1UL)))
 8004b26:	fa0e fe03 	lsl.w	lr, lr, r3
 8004b2a:	ea22 020e 	bic.w	r2, r2, lr
         );
}
 8004b2e:	ea41 0002 	orr.w	r0, r1, r2
 8004b32:	f85d fb04 	ldr.w	pc, [sp], #4
  SubPriorityBits     = ((PriorityGroupTmp + (uint32_t)(__NVIC_PRIO_BITS)) < (uint32_t)7UL) ? (uint32_t)0UL : (uint32_t)((PriorityGroupTmp - 7UL) + (uint32_t)(__NVIC_PRIO_BITS));
 8004b36:	2300      	movs	r3, #0
 8004b38:	e7ee      	b.n	8004b18 <NVIC_EncodePriority+0x1c>
	...

08004b3c <HAL_NVIC_SetPriorityGrouping>:
  reg_value  =  SCB->AIRCR;                                                   /* read old register configuration    */
 8004b3c:	4a07      	ldr	r2, [pc, #28]	@ (8004b5c <HAL_NVIC_SetPriorityGrouping+0x20>)
 8004b3e:	68d3      	ldr	r3, [r2, #12]
  reg_value &= ~((uint32_t)(SCB_AIRCR_VECTKEY_Msk | SCB_AIRCR_PRIGROUP_Msk)); /* clear bits to change               */
 8004b40:	f423 63e0 	bic.w	r3, r3, #1792	@ 0x700
 8004b44:	041b      	lsls	r3, r3, #16
 8004b46:	0c1b      	lsrs	r3, r3, #16
                (PriorityGroupTmp << SCB_AIRCR_PRIGROUP_Pos)  );              /* Insert write key and priority group */
 8004b48:	0200      	lsls	r0, r0, #8
 8004b4a:	f400 60e0 	and.w	r0, r0, #1792	@ 0x700
                ((uint32_t)0x5FAUL << SCB_AIRCR_VECTKEY_Pos) |
 8004b4e:	4303      	orrs	r3, r0
  reg_value  =  (reg_value                                   |
 8004b50:	f043 63bf 	orr.w	r3, r3, #100139008	@ 0x5f80000
 8004b54:	f443 3300 	orr.w	r3, r3, #131072	@ 0x20000
  SCB->AIRCR =  reg_value;
 8004b58:	60d3      	str	r3, [r2, #12]
  /* Check the parameters */
  assert_param(IS_NVIC_PRIORITY_GROUP(PriorityGroup));
  
  /* Set the PRIGROUP[10:8] bits according to the PriorityGroup parameter value */
  NVIC_SetPriorityGrouping(PriorityGroup);
}
 8004b5a:	4770      	bx	lr
 8004b5c:	e000ed00 	.word	0xe000ed00

08004b60 <HAL_NVIC_SetPriority>:
  *         This parameter can be a value between 0 and 15
  *         A lower priority value indicates a higher priority.          
  * @retval None
  */
void HAL_NVIC_SetPriority(IRQn_Type IRQn, uint32_t PreemptPriority, uint32_t SubPriority)
{ 
 8004b60:	b510      	push	{r4, lr}
 8004b62:	4604      	mov	r4, r0
  return ((uint32_t)((SCB->AIRCR & SCB_AIRCR_PRIGROUP_Msk) >> SCB_AIRCR_PRIGROUP_Pos));
 8004b64:	4b05      	ldr	r3, [pc, #20]	@ (8004b7c <HAL_NVIC_SetPriority+0x1c>)
 8004b66:	68d8      	ldr	r0, [r3, #12]
  assert_param(IS_NVIC_SUB_PRIORITY(SubPriority));
  assert_param(IS_NVIC_PREEMPTION_PRIORITY(PreemptPriority));
  
  prioritygroup = NVIC_GetPriorityGrouping();
  
  NVIC_SetPriority(IRQn, NVIC_EncodePriority(prioritygroup, PreemptPriority, SubPriority));
 8004b68:	f3c0 2002 	ubfx	r0, r0, #8, #3
 8004b6c:	f7ff ffc6 	bl	8004afc <NVIC_EncodePriority>
 8004b70:	4601      	mov	r1, r0
 8004b72:	4620      	mov	r0, r4
 8004b74:	f7ff ffae 	bl	8004ad4 <__NVIC_SetPriority>
}
 8004b78:	bd10      	pop	{r4, pc}
 8004b7a:	bf00      	nop
 8004b7c:	e000ed00 	.word	0xe000ed00

08004b80 <HAL_NVIC_EnableIRQ>:
  *         This parameter can be an enumerator of IRQn_Type enumeration
  *         (For the complete STM32 Devices IRQ Channels list, please refer to the appropriate CMSIS device file (stm32f4xxxx.h))
  * @retval None
  */
void HAL_NVIC_EnableIRQ(IRQn_Type IRQn)
{
 8004b80:	b508      	push	{r3, lr}
  /* Check the parameters */
  assert_param(IS_NVIC_DEVICE_IRQ(IRQn));
  
  /* Enable interrupt */
  NVIC_EnableIRQ(IRQn);
 8004b82:	f7ff ff99 	bl	8004ab8 <__NVIC_EnableIRQ>
}
 8004b86:	bd08      	pop	{r3, pc}

08004b88 <HAL_GPIO_Init>:
  assert_param(IS_GPIO_ALL_INSTANCE(GPIOx));
  assert_param(IS_GPIO_PIN(GPIO_Init->Pin));
  assert_param(IS_GPIO_MODE(GPIO_Init->Mode));

  /* Configure the port pins */
  for(position = 0U; position < GPIO_NUMBER; position++)
 8004b88:	2300      	movs	r3, #0
 8004b8a:	2b0f      	cmp	r3, #15
 8004b8c:	f200 80d7 	bhi.w	8004d3e <HAL_GPIO_Init+0x1b6>
{
 8004b90:	b570      	push	{r4, r5, r6, lr}
 8004b92:	b082      	sub	sp, #8
 8004b94:	e065      	b.n	8004c62 <HAL_GPIO_Init+0xda>
          (GPIO_Init->Mode & GPIO_MODE) == MODE_AF)
      {
        /* Check the Speed parameter */
        assert_param(IS_GPIO_SPEED(GPIO_Init->Speed));
        /* Configure the IO Speed */
        temp = GPIOx->OSPEEDR; 
 8004b96:	6885      	ldr	r5, [r0, #8]
        temp &= ~(GPIO_OSPEEDER_OSPEEDR0 << (position * 2U));
 8004b98:	ea4f 0e43 	mov.w	lr, r3, lsl #1
 8004b9c:	2403      	movs	r4, #3
 8004b9e:	fa04 f40e 	lsl.w	r4, r4, lr
 8004ba2:	ea25 0504 	bic.w	r5, r5, r4
        temp |= (GPIO_Init->Speed << (position * 2U));
 8004ba6:	68cc      	ldr	r4, [r1, #12]
 8004ba8:	fa04 f40e 	lsl.w	r4, r4, lr
 8004bac:	432c      	orrs	r4, r5
        GPIOx->OSPEEDR = temp;
 8004bae:	6084      	str	r4, [r0, #8]

        /* Configure the IO Output Type */
        temp = GPIOx->OTYPER;
 8004bb0:	6844      	ldr	r4, [r0, #4]
        temp &= ~(GPIO_OTYPER_OT_0 << position) ;
 8004bb2:	ea24 0402 	bic.w	r4, r4, r2
        temp |= (((GPIO_Init->Mode & OUTPUT_TYPE) >> OUTPUT_TYPE_Pos) << position);
 8004bb6:	684a      	ldr	r2, [r1, #4]
 8004bb8:	f3c2 1200 	ubfx	r2, r2, #4, #1
 8004bbc:	409a      	lsls	r2, r3
 8004bbe:	4322      	orrs	r2, r4
        GPIOx->OTYPER = temp;
 8004bc0:	6042      	str	r2, [r0, #4]
 8004bc2:	e05c      	b.n	8004c7e <HAL_GPIO_Init+0xf6>
      if((GPIO_Init->Mode & GPIO_MODE) == MODE_AF)
      {
        /* Check the Alternate function parameter */
        assert_param(IS_GPIO_AF(GPIO_Init->Alternate));
        /* Configure Alternate function mapped with the current IO */
        temp = GPIOx->AFR[position >> 3U];
 8004bc4:	08dc      	lsrs	r4, r3, #3
 8004bc6:	3408      	adds	r4, #8
 8004bc8:	f850 2024 	ldr.w	r2, [r0, r4, lsl #2]
        temp &= ~(0xFU << ((uint32_t)(position & 0x07U) * 4U)) ;
 8004bcc:	f003 0507 	and.w	r5, r3, #7
 8004bd0:	00ad      	lsls	r5, r5, #2
 8004bd2:	f04f 0e0f 	mov.w	lr, #15
 8004bd6:	fa0e fe05 	lsl.w	lr, lr, r5
 8004bda:	ea22 0e0e 	bic.w	lr, r2, lr
        temp |= ((uint32_t)(GPIO_Init->Alternate) << (((uint32_t)position & 0x07U) * 4U));
 8004bde:	690a      	ldr	r2, [r1, #16]
 8004be0:	40aa      	lsls	r2, r5
 8004be2:	ea42 020e 	orr.w	r2, r2, lr
        GPIOx->AFR[position >> 3U] = temp;
 8004be6:	f840 2024 	str.w	r2, [r0, r4, lsl #2]
 8004bea:	e05c      	b.n	8004ca6 <HAL_GPIO_Init+0x11e>
        /* Enable SYSCFG Clock */
        __HAL_RCC_SYSCFG_CLK_ENABLE();

        temp = SYSCFG->EXTICR[position >> 2U];
        temp &= ~(0x0FU << (4U * (position & 0x03U)));
        temp |= ((uint32_t)(GPIO_GET_INDEX(GPIOx)) << (4U * (position & 0x03U)));
 8004bec:	2204      	movs	r2, #4
 8004bee:	e000      	b.n	8004bf2 <HAL_GPIO_Init+0x6a>
 8004bf0:	2200      	movs	r2, #0
 8004bf2:	fa02 f20e 	lsl.w	r2, r2, lr
 8004bf6:	432a      	orrs	r2, r5
        SYSCFG->EXTICR[position >> 2U] = temp;
 8004bf8:	3402      	adds	r4, #2
 8004bfa:	4d51      	ldr	r5, [pc, #324]	@ (8004d40 <HAL_GPIO_Init+0x1b8>)
 8004bfc:	f845 2024 	str.w	r2, [r5, r4, lsl #2]

        /* Clear Rising Falling edge configuration */
        temp = EXTI->RTSR;
 8004c00:	4a50      	ldr	r2, [pc, #320]	@ (8004d44 <HAL_GPIO_Init+0x1bc>)
 8004c02:	6894      	ldr	r4, [r2, #8]
        temp &= ~((uint32_t)iocurrent);
 8004c04:	ea6f 020c 	mvn.w	r2, ip
 8004c08:	ea24 050c 	bic.w	r5, r4, ip
        if((GPIO_Init->Mode & TRIGGER_RISING) != 0x00U)
 8004c0c:	684e      	ldr	r6, [r1, #4]
 8004c0e:	f416 1f80 	tst.w	r6, #1048576	@ 0x100000
 8004c12:	d001      	beq.n	8004c18 <HAL_GPIO_Init+0x90>
        {
          temp |= iocurrent;
 8004c14:	ea4c 0504 	orr.w	r5, ip, r4
        }
        EXTI->RTSR = temp;
 8004c18:	4c4a      	ldr	r4, [pc, #296]	@ (8004d44 <HAL_GPIO_Init+0x1bc>)
 8004c1a:	60a5      	str	r5, [r4, #8]

        temp = EXTI->FTSR;
 8004c1c:	68e4      	ldr	r4, [r4, #12]
        temp &= ~((uint32_t)iocurrent);
 8004c1e:	ea02 0504 	and.w	r5, r2, r4
        if((GPIO_Init->Mode & TRIGGER_FALLING) != 0x00U)
 8004c22:	684e      	ldr	r6, [r1, #4]
 8004c24:	f416 1f00 	tst.w	r6, #2097152	@ 0x200000
 8004c28:	d001      	beq.n	8004c2e <HAL_GPIO_Init+0xa6>
        {
          temp |= iocurrent;
 8004c2a:	ea4c 0504 	orr.w	r5, ip, r4
        }
        EXTI->FTSR = temp;
 8004c2e:	4c45      	ldr	r4, [pc, #276]	@ (8004d44 <HAL_GPIO_Init+0x1bc>)
 8004c30:	60e5      	str	r5, [r4, #12]

        temp = EXTI->EMR;
 8004c32:	6864      	ldr	r4, [r4, #4]
        temp &= ~((uint32_t)iocurrent);
 8004c34:	ea02 0504 	and.w	r5, r2, r4
        if((GPIO_Init->Mode & EXTI_EVT) != 0x00U)
 8004c38:	684e      	ldr	r6, [r1, #4]
 8004c3a:	f416 3f00 	tst.w	r6, #131072	@ 0x20000
 8004c3e:	d001      	beq.n	8004c44 <HAL_GPIO_Init+0xbc>
        {
          temp |= iocurrent;
 8004c40:	ea4c 0504 	orr.w	r5, ip, r4
        }
        EXTI->EMR = temp;
 8004c44:	4c3f      	ldr	r4, [pc, #252]	@ (8004d44 <HAL_GPIO_Init+0x1bc>)
 8004c46:	6065      	str	r5, [r4, #4]

        /* Clear EXTI line configuration */
        temp = EXTI->IMR;
 8004c48:	6824      	ldr	r4, [r4, #0]
        temp &= ~((uint32_t)iocurrent);
 8004c4a:	4022      	ands	r2, r4
        if((GPIO_Init->Mode & EXTI_IT) != 0x00U)
 8004c4c:	684d      	ldr	r5, [r1, #4]
 8004c4e:	f415 3f80 	tst.w	r5, #65536	@ 0x10000
 8004c52:	d001      	beq.n	8004c58 <HAL_GPIO_Init+0xd0>
        {
          temp |= iocurrent;
 8004c54:	ea4c 0204 	orr.w	r2, ip, r4
        }
        EXTI->IMR = temp;
 8004c58:	4c3a      	ldr	r4, [pc, #232]	@ (8004d44 <HAL_GPIO_Init+0x1bc>)
 8004c5a:	6022      	str	r2, [r4, #0]
  for(position = 0U; position < GPIO_NUMBER; position++)
 8004c5c:	3301      	adds	r3, #1
 8004c5e:	2b0f      	cmp	r3, #15
 8004c60:	d86b      	bhi.n	8004d3a <HAL_GPIO_Init+0x1b2>
    ioposition = 0x01U << position;
 8004c62:	2201      	movs	r2, #1
 8004c64:	409a      	lsls	r2, r3
    iocurrent = (uint32_t)(GPIO_Init->Pin) & ioposition;
 8004c66:	680c      	ldr	r4, [r1, #0]
 8004c68:	ea04 0c02 	and.w	ip, r4, r2
    if(iocurrent == ioposition)
 8004c6c:	ea32 0404 	bics.w	r4, r2, r4
 8004c70:	d1f4      	bne.n	8004c5c <HAL_GPIO_Init+0xd4>
      if(((GPIO_Init->Mode & GPIO_MODE) == MODE_OUTPUT) || \
 8004c72:	684c      	ldr	r4, [r1, #4]
 8004c74:	f004 0403 	and.w	r4, r4, #3
 8004c78:	3c01      	subs	r4, #1
 8004c7a:	2c01      	cmp	r4, #1
 8004c7c:	d98b      	bls.n	8004b96 <HAL_GPIO_Init+0xe>
      if((GPIO_Init->Mode & GPIO_MODE) != MODE_ANALOG)
 8004c7e:	684a      	ldr	r2, [r1, #4]
 8004c80:	f002 0203 	and.w	r2, r2, #3
 8004c84:	2a03      	cmp	r2, #3
 8004c86:	d009      	beq.n	8004c9c <HAL_GPIO_Init+0x114>
        temp = GPIOx->PUPDR;
 8004c88:	68c4      	ldr	r4, [r0, #12]
        temp &= ~(GPIO_PUPDR_PUPDR0 << (position * 2U));
 8004c8a:	005d      	lsls	r5, r3, #1
 8004c8c:	2203      	movs	r2, #3
 8004c8e:	40aa      	lsls	r2, r5
 8004c90:	ea24 0402 	bic.w	r4, r4, r2
        temp |= ((GPIO_Init->Pull) << (position * 2U));
 8004c94:	688a      	ldr	r2, [r1, #8]
 8004c96:	40aa      	lsls	r2, r5
 8004c98:	4322      	orrs	r2, r4
        GPIOx->PUPDR = temp;
 8004c9a:	60c2      	str	r2, [r0, #12]
      if((GPIO_Init->Mode & GPIO_MODE) == MODE_AF)
 8004c9c:	684a      	ldr	r2, [r1, #4]
 8004c9e:	f002 0203 	and.w	r2, r2, #3
 8004ca2:	2a02      	cmp	r2, #2
 8004ca4:	d08e      	beq.n	8004bc4 <HAL_GPIO_Init+0x3c>
      temp = GPIOx->MODER;
 8004ca6:	6804      	ldr	r4, [r0, #0]
      temp &= ~(GPIO_MODER_MODER0 << (position * 2U));
 8004ca8:	ea4f 0e43 	mov.w	lr, r3, lsl #1
 8004cac:	2203      	movs	r2, #3
 8004cae:	fa02 f20e 	lsl.w	r2, r2, lr
 8004cb2:	ea24 0402 	bic.w	r4, r4, r2
      temp |= ((GPIO_Init->Mode & GPIO_MODE) << (position * 2U));
 8004cb6:	684a      	ldr	r2, [r1, #4]
 8004cb8:	f002 0203 	and.w	r2, r2, #3
 8004cbc:	fa02 f20e 	lsl.w	r2, r2, lr
 8004cc0:	4322      	orrs	r2, r4
      GPIOx->MODER = temp;
 8004cc2:	6002      	str	r2, [r0, #0]
      if((GPIO_Init->Mode & EXTI_MODE) != 0x00U)
 8004cc4:	684a      	ldr	r2, [r1, #4]
 8004cc6:	f412 3f40 	tst.w	r2, #196608	@ 0x30000
 8004cca:	d0c7      	beq.n	8004c5c <HAL_GPIO_Init+0xd4>
        __HAL_RCC_SYSCFG_CLK_ENABLE();
 8004ccc:	2200      	movs	r2, #0
 8004cce:	9201      	str	r2, [sp, #4]
 8004cd0:	4a1d      	ldr	r2, [pc, #116]	@ (8004d48 <HAL_GPIO_Init+0x1c0>)
 8004cd2:	6c54      	ldr	r4, [r2, #68]	@ 0x44
 8004cd4:	f444 4480 	orr.w	r4, r4, #16384	@ 0x4000
 8004cd8:	6454      	str	r4, [r2, #68]	@ 0x44
 8004cda:	6c52      	ldr	r2, [r2, #68]	@ 0x44
 8004cdc:	f402 4280 	and.w	r2, r2, #16384	@ 0x4000
 8004ce0:	9201      	str	r2, [sp, #4]
 8004ce2:	9a01      	ldr	r2, [sp, #4]
        temp = SYSCFG->EXTICR[position >> 2U];
 8004ce4:	089c      	lsrs	r4, r3, #2
 8004ce6:	1ca5      	adds	r5, r4, #2
 8004ce8:	4a15      	ldr	r2, [pc, #84]	@ (8004d40 <HAL_GPIO_Init+0x1b8>)
 8004cea:	f852 5025 	ldr.w	r5, [r2, r5, lsl #2]
        temp &= ~(0x0FU << (4U * (position & 0x03U)));
 8004cee:	f003 0e03 	and.w	lr, r3, #3
 8004cf2:	ea4f 0e8e 	mov.w	lr, lr, lsl #2
 8004cf6:	220f      	movs	r2, #15
 8004cf8:	fa02 f20e 	lsl.w	r2, r2, lr
 8004cfc:	ea25 0502 	bic.w	r5, r5, r2
        temp |= ((uint32_t)(GPIO_GET_INDEX(GPIOx)) << (4U * (position & 0x03U)));
 8004d00:	4a12      	ldr	r2, [pc, #72]	@ (8004d4c <HAL_GPIO_Init+0x1c4>)
 8004d02:	4290      	cmp	r0, r2
 8004d04:	f43f af74 	beq.w	8004bf0 <HAL_GPIO_Init+0x68>
 8004d08:	f502 6280 	add.w	r2, r2, #1024	@ 0x400
 8004d0c:	4290      	cmp	r0, r2
 8004d0e:	d00e      	beq.n	8004d2e <HAL_GPIO_Init+0x1a6>
 8004d10:	f502 6280 	add.w	r2, r2, #1024	@ 0x400
 8004d14:	4290      	cmp	r0, r2
 8004d16:	d00c      	beq.n	8004d32 <HAL_GPIO_Init+0x1aa>
 8004d18:	f502 6280 	add.w	r2, r2, #1024	@ 0x400
 8004d1c:	4290      	cmp	r0, r2
 8004d1e:	d00a      	beq.n	8004d36 <HAL_GPIO_Init+0x1ae>
 8004d20:	f502 6280 	add.w	r2, r2, #1024	@ 0x400
 8004d24:	4290      	cmp	r0, r2
 8004d26:	f43f af61 	beq.w	8004bec <HAL_GPIO_Init+0x64>
 8004d2a:	2207      	movs	r2, #7
 8004d2c:	e761      	b.n	8004bf2 <HAL_GPIO_Init+0x6a>
 8004d2e:	2201      	movs	r2, #1
 8004d30:	e75f      	b.n	8004bf2 <HAL_GPIO_Init+0x6a>
 8004d32:	2202      	movs	r2, #2
 8004d34:	e75d      	b.n	8004bf2 <HAL_GPIO_Init+0x6a>
 8004d36:	2203      	movs	r2, #3
 8004d38:	e75b      	b.n	8004bf2 <HAL_GPIO_Init+0x6a>
      }
    }
  }
}
 8004d3a:	b002      	add	sp, #8
 8004d3c:	bd70      	pop	{r4, r5, r6, pc}
 8004d3e:	4770      	bx	lr
 8004d40:	40013800 	.word	0x40013800
 8004d44:	40013c00 	.word	0x40013c00
 8004d48:	40023800 	.word	0x40023800
 8004d4c:	40020000 	.word	0x40020000

08004d50 <HAL_GPIO_WritePin>:
{
  /* Check the parameters */
  assert_param(IS_GPIO_PIN(GPIO_Pin));
  assert_param(IS_GPIO_PIN_ACTION(PinState));

  if(PinState != GPIO_PIN_RESET)
 8004d50:	b10a      	cbz	r2, 8004d56 <HAL_GPIO_WritePin+0x6>
  {
    GPIOx->BSRR = GPIO_Pin;
 8004d52:	6181      	str	r1, [r0, #24]
 8004d54:	4770      	bx	lr
  }
  else
  {
    GPIOx->BSRR = (uint32_t)GPIO_Pin << 16U;
 8004d56:	0409      	lsls	r1, r1, #16
 8004d58:	6181      	str	r1, [r0, #24]
  }
}
 8004d5a:	4770      	bx	lr

08004d5c <HAL_GPIO_TogglePin>:

  /* Check the parameters */
  assert_param(IS_GPIO_PIN(GPIO_Pin));

  /* get current Output Data Register value */
  odr = GPIOx->ODR;
 8004d5c:	6943      	ldr	r3, [r0, #20]

  /* Set selected pins that were at low level, and reset ones that were high */
  GPIOx->BSRR = ((odr & GPIO_Pin) << GPIO_NUMBER) | (~odr & GPIO_Pin);
 8004d5e:	ea01 0203 	and.w	r2, r1, r3
 8004d62:	ea21 0103 	bic.w	r1, r1, r3
 8004d66:	ea41 4102 	orr.w	r1, r1, r2, lsl #16
 8004d6a:	6181      	str	r1, [r0, #24]
}
 8004d6c:	4770      	bx	lr

08004d6e <HAL_IWDG_Init>:
HAL_StatusTypeDef HAL_IWDG_Init(IWDG_HandleTypeDef *hiwdg)
{
  uint32_t tickstart;

  /* Check the IWDG handle allocation */
  if (hiwdg == NULL)
 8004d6e:	b350      	cbz	r0, 8004dc6 <HAL_IWDG_Init+0x58>
{
 8004d70:	b538      	push	{r3, r4, r5, lr}
 8004d72:	4604      	mov	r4, r0
  assert_param(IS_IWDG_ALL_INSTANCE(hiwdg->Instance));
  assert_param(IS_IWDG_PRESCALER(hiwdg->Init.Prescaler));
  assert_param(IS_IWDG_RELOAD(hiwdg->Init.Reload));

  /* Enable IWDG. LSI is turned on automatically */
  __HAL_IWDG_START(hiwdg);
 8004d74:	6803      	ldr	r3, [r0, #0]
 8004d76:	f64c 42cc 	movw	r2, #52428	@ 0xcccc
 8004d7a:	601a      	str	r2, [r3, #0]

  /* Enable write access to IWDG_PR and IWDG_RLR registers by writing
  0x5555 in KR */
  IWDG_ENABLE_WRITE_ACCESS(hiwdg);
 8004d7c:	6803      	ldr	r3, [r0, #0]
 8004d7e:	f245 5255 	movw	r2, #21845	@ 0x5555
 8004d82:	601a      	str	r2, [r3, #0]

  /* Write to IWDG registers the Prescaler & Reload values to work with */
  hiwdg->Instance->PR = hiwdg->Init.Prescaler;
 8004d84:	6803      	ldr	r3, [r0, #0]
 8004d86:	6842      	ldr	r2, [r0, #4]
 8004d88:	605a      	str	r2, [r3, #4]
  hiwdg->Instance->RLR = hiwdg->Init.Reload;
 8004d8a:	6803      	ldr	r3, [r0, #0]
 8004d8c:	6882      	ldr	r2, [r0, #8]
 8004d8e:	609a      	str	r2, [r3, #8]

  /* Check pending flag, if previous update not done, return timeout */
  tickstart = HAL_GetTick();
 8004d90:	f7ff fc4a 	bl	8004628 <HAL_GetTick>
 8004d94:	4605      	mov	r5, r0

  /* Wait for register to be updated */
  while ((hiwdg->Instance->SR & IWDG_KERNEL_UPDATE_FLAGS) != 0x00u)
 8004d96:	6823      	ldr	r3, [r4, #0]
 8004d98:	68da      	ldr	r2, [r3, #12]
 8004d9a:	f012 0f03 	tst.w	r2, #3
 8004d9e:	d00d      	beq.n	8004dbc <HAL_IWDG_Init+0x4e>
  {
    if ((HAL_GetTick() - tickstart) > HAL_IWDG_DEFAULT_TIMEOUT)
 8004da0:	f7ff fc42 	bl	8004628 <HAL_GetTick>
 8004da4:	1b40      	subs	r0, r0, r5
 8004da6:	f641 0301 	movw	r3, #6145	@ 0x1801
 8004daa:	4298      	cmp	r0, r3
 8004dac:	d9f3      	bls.n	8004d96 <HAL_IWDG_Init+0x28>
    {
      if ((hiwdg->Instance->SR & IWDG_KERNEL_UPDATE_FLAGS) != 0x00u)
 8004dae:	6823      	ldr	r3, [r4, #0]
 8004db0:	68db      	ldr	r3, [r3, #12]
 8004db2:	f013 0f03 	tst.w	r3, #3
 8004db6:	d0ee      	beq.n	8004d96 <HAL_IWDG_Init+0x28>
      {
        return HAL_TIMEOUT;
 8004db8:	2003      	movs	r0, #3
 8004dba:	e003      	b.n	8004dc4 <HAL_IWDG_Init+0x56>
      }
    }
  }

  /* Reload IWDG counter with value defined in the reload register */
  __HAL_IWDG_RELOAD_COUNTER(hiwdg);
 8004dbc:	f64a 22aa 	movw	r2, #43690	@ 0xaaaa
 8004dc0:	601a      	str	r2, [r3, #0]

  /* Return function status */
  return HAL_OK;
 8004dc2:	2000      	movs	r0, #0
}
 8004dc4:	bd38      	pop	{r3, r4, r5, pc}
    return HAL_ERROR;
 8004dc6:	2001      	movs	r0, #1
}
 8004dc8:	4770      	bx	lr

08004dca <HAL_IWDG_Refresh>:
  * @retval HAL status
  */
HAL_StatusTypeDef HAL_IWDG_Refresh(IWDG_HandleTypeDef *hiwdg)
{
  /* Reload IWDG counter with value defined in the reload register */
  __HAL_IWDG_RELOAD_COUNTER(hiwdg);
 8004dca:	6803      	ldr	r3, [r0, #0]
 8004dcc:	f64a 22aa 	movw	r2, #43690	@ 0xaaaa
 8004dd0:	601a      	str	r2, [r3, #0]

  /* Return function status */
  return HAL_OK;
}
 8004dd2:	2000      	movs	r0, #0
 8004dd4:	4770      	bx	lr
	...

08004dd8 <HAL_MspInit>:
/* USER CODE END 0 */
/**
  * Initializes the Global MSP.
  */
void HAL_MspInit(void)
{
 8004dd8:	b500      	push	{lr}
 8004dda:	b083      	sub	sp, #12

  /* USER CODE BEGIN MspInit 0 */

  /* USER CODE END MspInit 0 */

  __HAL_RCC_SYSCFG_CLK_ENABLE();
 8004ddc:	2200      	movs	r2, #0
 8004dde:	9200      	str	r2, [sp, #0]
 8004de0:	4b0d      	ldr	r3, [pc, #52]	@ (8004e18 <HAL_MspInit+0x40>)
 8004de2:	6c59      	ldr	r1, [r3, #68]	@ 0x44
 8004de4:	f441 4180 	orr.w	r1, r1, #16384	@ 0x4000
 8004de8:	6459      	str	r1, [r3, #68]	@ 0x44
 8004dea:	6c59      	ldr	r1, [r3, #68]	@ 0x44
 8004dec:	f401 4180 	and.w	r1, r1, #16384	@ 0x4000
 8004df0:	9100      	str	r1, [sp, #0]
 8004df2:	9900      	ldr	r1, [sp, #0]
  __HAL_RCC_PWR_CLK_ENABLE();
 8004df4:	9201      	str	r2, [sp, #4]
 8004df6:	6c19      	ldr	r1, [r3, #64]	@ 0x40
 8004df8:	f041 5180 	orr.w	r1, r1, #268435456	@ 0x10000000
 8004dfc:	6419      	str	r1, [r3, #64]	@ 0x40
 8004dfe:	6c1b      	ldr	r3, [r3, #64]	@ 0x40
 8004e00:	f003 5380 	and.w	r3, r3, #268435456	@ 0x10000000
 8004e04:	9301      	str	r3, [sp, #4]
 8004e06:	9b01      	ldr	r3, [sp, #4]

  /* System interrupt init*/
  /* PendSV_IRQn interrupt configuration */
  HAL_NVIC_SetPriority(PendSV_IRQn, 15, 0);
 8004e08:	210f      	movs	r1, #15
 8004e0a:	f06f 0001 	mvn.w	r0, #1
 8004e0e:	f7ff fea7 	bl	8004b60 <HAL_NVIC_SetPriority>

  /* USER CODE BEGIN MspInit 1 */

  /* USER CODE END MspInit 1 */
}
 8004e12:	b003      	add	sp, #12
 8004e14:	f85d fb04 	ldr.w	pc, [sp], #4
 8004e18:	40023800 	.word	0x40023800

08004e1c <HAL_RCC_OscConfig>:
__weak HAL_StatusTypeDef HAL_RCC_OscConfig(const RCC_OscInitTypeDef  *RCC_OscInitStruct)
{
  uint32_t tickstart;
  uint32_t pll_config;
  /* Check Null pointer */
  if (RCC_OscInitStruct == NULL)
 8004e1c:	2800      	cmp	r0, #0
 8004e1e:	f000 81e0 	beq.w	80051e2 <HAL_RCC_OscConfig+0x3c6>
{
 8004e22:	b570      	push	{r4, r5, r6, lr}
 8004e24:	b082      	sub	sp, #8
 8004e26:	4604      	mov	r4, r0
  }

  /* Check the parameters */
  assert_param(IS_RCC_OSCILLATORTYPE(RCC_OscInitStruct->OscillatorType));
  /*------------------------------- HSE Configuration ------------------------*/
  if (((RCC_OscInitStruct->OscillatorType) & RCC_OSCILLATORTYPE_HSE) == RCC_OSCILLATORTYPE_HSE)
 8004e28:	6803      	ldr	r3, [r0, #0]
 8004e2a:	f013 0f01 	tst.w	r3, #1
 8004e2e:	d03b      	beq.n	8004ea8 <HAL_RCC_OscConfig+0x8c>
  {
    /* Check the parameters */
    assert_param(IS_RCC_HSE(RCC_OscInitStruct->HSEState));
    /* When the HSE is used as system clock or clock source for PLL in these cases HSE will not disabled */
    if ((__HAL_RCC_GET_SYSCLK_SOURCE() == RCC_CFGR_SWS_HSE) || \
 8004e30:	4b9f      	ldr	r3, [pc, #636]	@ (80050b0 <HAL_RCC_OscConfig+0x294>)
 8004e32:	689b      	ldr	r3, [r3, #8]
 8004e34:	f003 030c 	and.w	r3, r3, #12
 8004e38:	2b04      	cmp	r3, #4
 8004e3a:	d02c      	beq.n	8004e96 <HAL_RCC_OscConfig+0x7a>
        ((__HAL_RCC_GET_SYSCLK_SOURCE() == RCC_CFGR_SWS_PLL) && ((RCC->PLLCFGR & RCC_PLLCFGR_PLLSRC) == RCC_PLLCFGR_PLLSRC_HSE)))
 8004e3c:	4b9c      	ldr	r3, [pc, #624]	@ (80050b0 <HAL_RCC_OscConfig+0x294>)
 8004e3e:	689b      	ldr	r3, [r3, #8]
 8004e40:	f003 030c 	and.w	r3, r3, #12
    if ((__HAL_RCC_GET_SYSCLK_SOURCE() == RCC_CFGR_SWS_HSE) || \
 8004e44:	2b08      	cmp	r3, #8
 8004e46:	d021      	beq.n	8004e8c <HAL_RCC_OscConfig+0x70>
      }
    }
    else
    {
      /* Set the new HSE configuration ---------------------------------------*/
      __HAL_RCC_HSE_CONFIG(RCC_OscInitStruct->HSEState);
 8004e48:	6863      	ldr	r3, [r4, #4]
 8004e4a:	f5b3 3f80 	cmp.w	r3, #65536	@ 0x10000
 8004e4e:	d04f      	beq.n	8004ef0 <HAL_RCC_OscConfig+0xd4>
 8004e50:	f5b3 2fa0 	cmp.w	r3, #327680	@ 0x50000
 8004e54:	d052      	beq.n	8004efc <HAL_RCC_OscConfig+0xe0>
 8004e56:	4b96      	ldr	r3, [pc, #600]	@ (80050b0 <HAL_RCC_OscConfig+0x294>)
 8004e58:	681a      	ldr	r2, [r3, #0]
 8004e5a:	f422 3280 	bic.w	r2, r2, #65536	@ 0x10000
 8004e5e:	601a      	str	r2, [r3, #0]
 8004e60:	681a      	ldr	r2, [r3, #0]
 8004e62:	f422 2280 	bic.w	r2, r2, #262144	@ 0x40000
 8004e66:	601a      	str	r2, [r3, #0]

      /* Check the HSE State */
      if ((RCC_OscInitStruct->HSEState) != RCC_HSE_OFF)
 8004e68:	6863      	ldr	r3, [r4, #4]
 8004e6a:	2b00      	cmp	r3, #0
 8004e6c:	d050      	beq.n	8004f10 <HAL_RCC_OscConfig+0xf4>
      {
        /* Get Start Tick */
        tickstart = HAL_GetTick();
 8004e6e:	f7ff fbdb 	bl	8004628 <HAL_GetTick>
 8004e72:	4605      	mov	r5, r0

        /* Wait till HSE is ready */
        while (__HAL_RCC_GET_FLAG(RCC_FLAG_HSERDY) == RESET)
 8004e74:	4b8e      	ldr	r3, [pc, #568]	@ (80050b0 <HAL_RCC_OscConfig+0x294>)
 8004e76:	681b      	ldr	r3, [r3, #0]
 8004e78:	f413 3f00 	tst.w	r3, #131072	@ 0x20000
 8004e7c:	d114      	bne.n	8004ea8 <HAL_RCC_OscConfig+0x8c>
        {
          if ((HAL_GetTick() - tickstart) > HSE_TIMEOUT_VALUE)
 8004e7e:	f7ff fbd3 	bl	8004628 <HAL_GetTick>
 8004e82:	1b40      	subs	r0, r0, r5
 8004e84:	2864      	cmp	r0, #100	@ 0x64
 8004e86:	d9f5      	bls.n	8004e74 <HAL_RCC_OscConfig+0x58>
          {
            return HAL_TIMEOUT;
 8004e88:	2003      	movs	r0, #3
 8004e8a:	e1b1      	b.n	80051f0 <HAL_RCC_OscConfig+0x3d4>
        ((__HAL_RCC_GET_SYSCLK_SOURCE() == RCC_CFGR_SWS_PLL) && ((RCC->PLLCFGR & RCC_PLLCFGR_PLLSRC) == RCC_PLLCFGR_PLLSRC_HSE)))
 8004e8c:	4b88      	ldr	r3, [pc, #544]	@ (80050b0 <HAL_RCC_OscConfig+0x294>)
 8004e8e:	685b      	ldr	r3, [r3, #4]
 8004e90:	f413 0f80 	tst.w	r3, #4194304	@ 0x400000
 8004e94:	d0d8      	beq.n	8004e48 <HAL_RCC_OscConfig+0x2c>
      if ((__HAL_RCC_GET_FLAG(RCC_FLAG_HSERDY) != RESET) && (RCC_OscInitStruct->HSEState == RCC_HSE_OFF))
 8004e96:	4b86      	ldr	r3, [pc, #536]	@ (80050b0 <HAL_RCC_OscConfig+0x294>)
 8004e98:	681b      	ldr	r3, [r3, #0]
 8004e9a:	f413 3f00 	tst.w	r3, #131072	@ 0x20000
 8004e9e:	d003      	beq.n	8004ea8 <HAL_RCC_OscConfig+0x8c>
 8004ea0:	6863      	ldr	r3, [r4, #4]
 8004ea2:	2b00      	cmp	r3, #0
 8004ea4:	f000 819f 	beq.w	80051e6 <HAL_RCC_OscConfig+0x3ca>
        }
      }
    }
  }
  /*----------------------------- HSI Configuration --------------------------*/
  if (((RCC_OscInitStruct->OscillatorType) & RCC_OSCILLATORTYPE_HSI) == RCC_OSCILLATORTYPE_HSI)
 8004ea8:	6823      	ldr	r3, [r4, #0]
 8004eaa:	f013 0f02 	tst.w	r3, #2
 8004eae:	d054      	beq.n	8004f5a <HAL_RCC_OscConfig+0x13e>
    /* Check the parameters */
    assert_param(IS_RCC_HSI(RCC_OscInitStruct->HSIState));
    assert_param(IS_RCC_CALIBRATION_VALUE(RCC_OscInitStruct->HSICalibrationValue));

    /* Check if HSI is used as system clock or as PLL source when PLL is selected as system clock */
    if ((__HAL_RCC_GET_SYSCLK_SOURCE() == RCC_CFGR_SWS_HSI) || \
 8004eb0:	4b7f      	ldr	r3, [pc, #508]	@ (80050b0 <HAL_RCC_OscConfig+0x294>)
 8004eb2:	689b      	ldr	r3, [r3, #8]
 8004eb4:	f013 0f0c 	tst.w	r3, #12
 8004eb8:	d03e      	beq.n	8004f38 <HAL_RCC_OscConfig+0x11c>
        ((__HAL_RCC_GET_SYSCLK_SOURCE() == RCC_CFGR_SWS_PLL) && ((RCC->PLLCFGR & RCC_PLLCFGR_PLLSRC) == RCC_PLLCFGR_PLLSRC_HSI)))
 8004eba:	4b7d      	ldr	r3, [pc, #500]	@ (80050b0 <HAL_RCC_OscConfig+0x294>)
 8004ebc:	689b      	ldr	r3, [r3, #8]
 8004ebe:	f003 030c 	and.w	r3, r3, #12
    if ((__HAL_RCC_GET_SYSCLK_SOURCE() == RCC_CFGR_SWS_HSI) || \
 8004ec2:	2b08      	cmp	r3, #8
 8004ec4:	d033      	beq.n	8004f2e <HAL_RCC_OscConfig+0x112>
      }
    }
    else
    {
      /* Check the HSI State */
      if ((RCC_OscInitStruct->HSIState) != RCC_HSI_OFF)
 8004ec6:	68e3      	ldr	r3, [r4, #12]
 8004ec8:	2b00      	cmp	r3, #0
 8004eca:	d068      	beq.n	8004f9e <HAL_RCC_OscConfig+0x182>
      {
        /* Enable the Internal High Speed oscillator (HSI). */
        __HAL_RCC_HSI_ENABLE();
 8004ecc:	4b79      	ldr	r3, [pc, #484]	@ (80050b4 <HAL_RCC_OscConfig+0x298>)
 8004ece:	2201      	movs	r2, #1
 8004ed0:	601a      	str	r2, [r3, #0]

        /* Get Start Tick*/
        tickstart = HAL_GetTick();
 8004ed2:	f7ff fba9 	bl	8004628 <HAL_GetTick>
 8004ed6:	4605      	mov	r5, r0

        /* Wait till HSI is ready */
        while (__HAL_RCC_GET_FLAG(RCC_FLAG_HSIRDY) == RESET)
 8004ed8:	4b75      	ldr	r3, [pc, #468]	@ (80050b0 <HAL_RCC_OscConfig+0x294>)
 8004eda:	681b      	ldr	r3, [r3, #0]
 8004edc:	f013 0f02 	tst.w	r3, #2
 8004ee0:	d154      	bne.n	8004f8c <HAL_RCC_OscConfig+0x170>
        {
          if ((HAL_GetTick() - tickstart) > HSI_TIMEOUT_VALUE)
 8004ee2:	f7ff fba1 	bl	8004628 <HAL_GetTick>
 8004ee6:	1b40      	subs	r0, r0, r5
 8004ee8:	2802      	cmp	r0, #2
 8004eea:	d9f5      	bls.n	8004ed8 <HAL_RCC_OscConfig+0xbc>
          {
            return HAL_TIMEOUT;
 8004eec:	2003      	movs	r0, #3
 8004eee:	e17f      	b.n	80051f0 <HAL_RCC_OscConfig+0x3d4>
      __HAL_RCC_HSE_CONFIG(RCC_OscInitStruct->HSEState);
 8004ef0:	4a6f      	ldr	r2, [pc, #444]	@ (80050b0 <HAL_RCC_OscConfig+0x294>)
 8004ef2:	6813      	ldr	r3, [r2, #0]
 8004ef4:	f443 3380 	orr.w	r3, r3, #65536	@ 0x10000
 8004ef8:	6013      	str	r3, [r2, #0]
 8004efa:	e7b5      	b.n	8004e68 <HAL_RCC_OscConfig+0x4c>
 8004efc:	4b6c      	ldr	r3, [pc, #432]	@ (80050b0 <HAL_RCC_OscConfig+0x294>)
 8004efe:	681a      	ldr	r2, [r3, #0]
 8004f00:	f442 2280 	orr.w	r2, r2, #262144	@ 0x40000
 8004f04:	601a      	str	r2, [r3, #0]
 8004f06:	681a      	ldr	r2, [r3, #0]
 8004f08:	f442 3280 	orr.w	r2, r2, #65536	@ 0x10000
 8004f0c:	601a      	str	r2, [r3, #0]
 8004f0e:	e7ab      	b.n	8004e68 <HAL_RCC_OscConfig+0x4c>
        tickstart = HAL_GetTick();
 8004f10:	f7ff fb8a 	bl	8004628 <HAL_GetTick>
 8004f14:	4605      	mov	r5, r0
        while (__HAL_RCC_GET_FLAG(RCC_FLAG_HSERDY) != RESET)
 8004f16:	4b66      	ldr	r3, [pc, #408]	@ (80050b0 <HAL_RCC_OscConfig+0x294>)
 8004f18:	681b      	ldr	r3, [r3, #0]
 8004f1a:	f413 3f00 	tst.w	r3, #131072	@ 0x20000
 8004f1e:	d0c3      	beq.n	8004ea8 <HAL_RCC_OscConfig+0x8c>
          if ((HAL_GetTick() - tickstart) > HSE_TIMEOUT_VALUE)
 8004f20:	f7ff fb82 	bl	8004628 <HAL_GetTick>
 8004f24:	1b40      	subs	r0, r0, r5
 8004f26:	2864      	cmp	r0, #100	@ 0x64
 8004f28:	d9f5      	bls.n	8004f16 <HAL_RCC_OscConfig+0xfa>
            return HAL_TIMEOUT;
 8004f2a:	2003      	movs	r0, #3
 8004f2c:	e160      	b.n	80051f0 <HAL_RCC_OscConfig+0x3d4>
        ((__HAL_RCC_GET_SYSCLK_SOURCE() == RCC_CFGR_SWS_PLL) && ((RCC->PLLCFGR & RCC_PLLCFGR_PLLSRC) == RCC_PLLCFGR_PLLSRC_HSI)))
 8004f2e:	4b60      	ldr	r3, [pc, #384]	@ (80050b0 <HAL_RCC_OscConfig+0x294>)
 8004f30:	685b      	ldr	r3, [r3, #4]
 8004f32:	f413 0f80 	tst.w	r3, #4194304	@ 0x400000
 8004f36:	d1c6      	bne.n	8004ec6 <HAL_RCC_OscConfig+0xaa>
      if ((__HAL_RCC_GET_FLAG(RCC_FLAG_HSIRDY) != RESET) && (RCC_OscInitStruct->HSIState != RCC_HSI_ON))
 8004f38:	4b5d      	ldr	r3, [pc, #372]	@ (80050b0 <HAL_RCC_OscConfig+0x294>)
 8004f3a:	681b      	ldr	r3, [r3, #0]
 8004f3c:	f013 0f02 	tst.w	r3, #2
 8004f40:	d003      	beq.n	8004f4a <HAL_RCC_OscConfig+0x12e>
 8004f42:	68e3      	ldr	r3, [r4, #12]
 8004f44:	2b01      	cmp	r3, #1
 8004f46:	f040 8150 	bne.w	80051ea <HAL_RCC_OscConfig+0x3ce>
        __HAL_RCC_HSI_CALIBRATIONVALUE_ADJUST(RCC_OscInitStruct->HSICalibrationValue);
 8004f4a:	4a59      	ldr	r2, [pc, #356]	@ (80050b0 <HAL_RCC_OscConfig+0x294>)
 8004f4c:	6813      	ldr	r3, [r2, #0]
 8004f4e:	f023 03f8 	bic.w	r3, r3, #248	@ 0xf8
 8004f52:	6921      	ldr	r1, [r4, #16]
 8004f54:	ea43 03c1 	orr.w	r3, r3, r1, lsl #3
 8004f58:	6013      	str	r3, [r2, #0]
        }
      }
    }
  }
  /*------------------------------ LSI Configuration -------------------------*/
  if (((RCC_OscInitStruct->OscillatorType) & RCC_OSCILLATORTYPE_LSI) == RCC_OSCILLATORTYPE_LSI)
 8004f5a:	6823      	ldr	r3, [r4, #0]
 8004f5c:	f013 0f08 	tst.w	r3, #8
 8004f60:	d042      	beq.n	8004fe8 <HAL_RCC_OscConfig+0x1cc>
  {
    /* Check the parameters */
    assert_param(IS_RCC_LSI(RCC_OscInitStruct->LSIState));

    /* Check the LSI State */
    if ((RCC_OscInitStruct->LSIState) != RCC_LSI_OFF)
 8004f62:	6963      	ldr	r3, [r4, #20]
 8004f64:	b36b      	cbz	r3, 8004fc2 <HAL_RCC_OscConfig+0x1a6>
    {
      /* Enable the Internal Low Speed oscillator (LSI). */
      __HAL_RCC_LSI_ENABLE();
 8004f66:	4b53      	ldr	r3, [pc, #332]	@ (80050b4 <HAL_RCC_OscConfig+0x298>)
 8004f68:	2201      	movs	r2, #1
 8004f6a:	f8c3 2e80 	str.w	r2, [r3, #3712]	@ 0xe80

      /* Get Start Tick*/
      tickstart = HAL_GetTick();
 8004f6e:	f7ff fb5b 	bl	8004628 <HAL_GetTick>
 8004f72:	4605      	mov	r5, r0

      /* Wait till LSI is ready */
      while (__HAL_RCC_GET_FLAG(RCC_FLAG_LSIRDY) == RESET)
 8004f74:	4b4e      	ldr	r3, [pc, #312]	@ (80050b0 <HAL_RCC_OscConfig+0x294>)
 8004f76:	6f5b      	ldr	r3, [r3, #116]	@ 0x74
 8004f78:	f013 0f02 	tst.w	r3, #2
 8004f7c:	d134      	bne.n	8004fe8 <HAL_RCC_OscConfig+0x1cc>
      {
        if ((HAL_GetTick() - tickstart) > LSI_TIMEOUT_VALUE)
 8004f7e:	f7ff fb53 	bl	8004628 <HAL_GetTick>
 8004f82:	1b40      	subs	r0, r0, r5
 8004f84:	2802      	cmp	r0, #2
 8004f86:	d9f5      	bls.n	8004f74 <HAL_RCC_OscConfig+0x158>
        {
          return HAL_TIMEOUT;
 8004f88:	2003      	movs	r0, #3
 8004f8a:	e131      	b.n	80051f0 <HAL_RCC_OscConfig+0x3d4>
        __HAL_RCC_HSI_CALIBRATIONVALUE_ADJUST(RCC_OscInitStruct->HSICalibrationValue);
 8004f8c:	4a48      	ldr	r2, [pc, #288]	@ (80050b0 <HAL_RCC_OscConfig+0x294>)
 8004f8e:	6813      	ldr	r3, [r2, #0]
 8004f90:	f023 03f8 	bic.w	r3, r3, #248	@ 0xf8
 8004f94:	6921      	ldr	r1, [r4, #16]
 8004f96:	ea43 03c1 	orr.w	r3, r3, r1, lsl #3
 8004f9a:	6013      	str	r3, [r2, #0]
 8004f9c:	e7dd      	b.n	8004f5a <HAL_RCC_OscConfig+0x13e>
        __HAL_RCC_HSI_DISABLE();
 8004f9e:	4b45      	ldr	r3, [pc, #276]	@ (80050b4 <HAL_RCC_OscConfig+0x298>)
 8004fa0:	2200      	movs	r2, #0
 8004fa2:	601a      	str	r2, [r3, #0]
        tickstart = HAL_GetTick();
 8004fa4:	f7ff fb40 	bl	8004628 <HAL_GetTick>
 8004fa8:	4605      	mov	r5, r0
        while (__HAL_RCC_GET_FLAG(RCC_FLAG_HSIRDY) != RESET)
 8004faa:	4b41      	ldr	r3, [pc, #260]	@ (80050b0 <HAL_RCC_OscConfig+0x294>)
 8004fac:	681b      	ldr	r3, [r3, #0]
 8004fae:	f013 0f02 	tst.w	r3, #2
 8004fb2:	d0d2      	beq.n	8004f5a <HAL_RCC_OscConfig+0x13e>
          if ((HAL_GetTick() - tickstart) > HSI_TIMEOUT_VALUE)
 8004fb4:	f7ff fb38 	bl	8004628 <HAL_GetTick>
 8004fb8:	1b40      	subs	r0, r0, r5
 8004fba:	2802      	cmp	r0, #2
 8004fbc:	d9f5      	bls.n	8004faa <HAL_RCC_OscConfig+0x18e>
            return HAL_TIMEOUT;
 8004fbe:	2003      	movs	r0, #3
 8004fc0:	e116      	b.n	80051f0 <HAL_RCC_OscConfig+0x3d4>
      }
    }
    else
    {
      /* Disable the Internal Low Speed oscillator (LSI). */
      __HAL_RCC_LSI_DISABLE();
 8004fc2:	4b3c      	ldr	r3, [pc, #240]	@ (80050b4 <HAL_RCC_OscConfig+0x298>)
 8004fc4:	2200      	movs	r2, #0
 8004fc6:	f8c3 2e80 	str.w	r2, [r3, #3712]	@ 0xe80

      /* Get Start Tick */
      tickstart = HAL_GetTick();
 8004fca:	f7ff fb2d 	bl	8004628 <HAL_GetTick>
 8004fce:	4605      	mov	r5, r0

      /* Wait till LSI is ready */
      while (__HAL_RCC_GET_FLAG(RCC_FLAG_LSIRDY) != RESET)
 8004fd0:	4b37      	ldr	r3, [pc, #220]	@ (80050b0 <HAL_RCC_OscConfig+0x294>)
 8004fd2:	6f5b      	ldr	r3, [r3, #116]	@ 0x74
 8004fd4:	f013 0f02 	tst.w	r3, #2
 8004fd8:	d006      	beq.n	8004fe8 <HAL_RCC_OscConfig+0x1cc>
      {
        if ((HAL_GetTick() - tickstart) > LSI_TIMEOUT_VALUE)
 8004fda:	f7ff fb25 	bl	8004628 <HAL_GetTick>
 8004fde:	1b40      	subs	r0, r0, r5
 8004fe0:	2802      	cmp	r0, #2
 8004fe2:	d9f5      	bls.n	8004fd0 <HAL_RCC_OscConfig+0x1b4>
        {
          return HAL_TIMEOUT;
 8004fe4:	2003      	movs	r0, #3
 8004fe6:	e103      	b.n	80051f0 <HAL_RCC_OscConfig+0x3d4>
        }
      }
    }
  }
  /*------------------------------ LSE Configuration -------------------------*/
  if (((RCC_OscInitStruct->OscillatorType) & RCC_OSCILLATORTYPE_LSE) == RCC_OSCILLATORTYPE_LSE)
 8004fe8:	6823      	ldr	r3, [r4, #0]
 8004fea:	f013 0f04 	tst.w	r3, #4
 8004fee:	d077      	beq.n	80050e0 <HAL_RCC_OscConfig+0x2c4>
    /* Check the parameters */
    assert_param(IS_RCC_LSE(RCC_OscInitStruct->LSEState));

    /* Update LSE configuration in Backup Domain control register    */
    /* Requires to enable write access to Backup Domain of necessary */
    if (__HAL_RCC_PWR_IS_CLK_DISABLED())
 8004ff0:	4b2f      	ldr	r3, [pc, #188]	@ (80050b0 <HAL_RCC_OscConfig+0x294>)
 8004ff2:	6c1b      	ldr	r3, [r3, #64]	@ 0x40
 8004ff4:	f013 5f80 	tst.w	r3, #268435456	@ 0x10000000
 8004ff8:	d133      	bne.n	8005062 <HAL_RCC_OscConfig+0x246>
    {
      __HAL_RCC_PWR_CLK_ENABLE();
 8004ffa:	2300      	movs	r3, #0
 8004ffc:	9301      	str	r3, [sp, #4]
 8004ffe:	4b2c      	ldr	r3, [pc, #176]	@ (80050b0 <HAL_RCC_OscConfig+0x294>)
 8005000:	6c1a      	ldr	r2, [r3, #64]	@ 0x40
 8005002:	f042 5280 	orr.w	r2, r2, #268435456	@ 0x10000000
 8005006:	641a      	str	r2, [r3, #64]	@ 0x40
 8005008:	6c1b      	ldr	r3, [r3, #64]	@ 0x40
 800500a:	f003 5380 	and.w	r3, r3, #268435456	@ 0x10000000
 800500e:	9301      	str	r3, [sp, #4]
 8005010:	9b01      	ldr	r3, [sp, #4]
      pwrclkchanged = SET;
 8005012:	2501      	movs	r5, #1
    }

    if (HAL_IS_BIT_CLR(PWR->CR, PWR_CR_DBP))
 8005014:	4b28      	ldr	r3, [pc, #160]	@ (80050b8 <HAL_RCC_OscConfig+0x29c>)
 8005016:	681b      	ldr	r3, [r3, #0]
 8005018:	f413 7f80 	tst.w	r3, #256	@ 0x100
 800501c:	d023      	beq.n	8005066 <HAL_RCC_OscConfig+0x24a>
        }
      }
    }

    /* Set the new LSE configuration -----------------------------------------*/
    __HAL_RCC_LSE_CONFIG(RCC_OscInitStruct->LSEState);
 800501e:	68a3      	ldr	r3, [r4, #8]
 8005020:	2b01      	cmp	r3, #1
 8005022:	d034      	beq.n	800508e <HAL_RCC_OscConfig+0x272>
 8005024:	2b05      	cmp	r3, #5
 8005026:	d038      	beq.n	800509a <HAL_RCC_OscConfig+0x27e>
 8005028:	4b21      	ldr	r3, [pc, #132]	@ (80050b0 <HAL_RCC_OscConfig+0x294>)
 800502a:	6f1a      	ldr	r2, [r3, #112]	@ 0x70
 800502c:	f022 0201 	bic.w	r2, r2, #1
 8005030:	671a      	str	r2, [r3, #112]	@ 0x70
 8005032:	6f1a      	ldr	r2, [r3, #112]	@ 0x70
 8005034:	f022 0204 	bic.w	r2, r2, #4
 8005038:	671a      	str	r2, [r3, #112]	@ 0x70
    /* Check the LSE State */
    if ((RCC_OscInitStruct->LSEState) != RCC_LSE_OFF)
 800503a:	68a3      	ldr	r3, [r4, #8]
 800503c:	2b00      	cmp	r3, #0
 800503e:	d03d      	beq.n	80050bc <HAL_RCC_OscConfig+0x2a0>
    {
      /* Get Start Tick*/
      tickstart = HAL_GetTick();
 8005040:	f7ff faf2 	bl	8004628 <HAL_GetTick>
 8005044:	4606      	mov	r6, r0

      /* Wait till LSE is ready */
      while (__HAL_RCC_GET_FLAG(RCC_FLAG_LSERDY) == RESET)
 8005046:	4b1a      	ldr	r3, [pc, #104]	@ (80050b0 <HAL_RCC_OscConfig+0x294>)
 8005048:	6f1b      	ldr	r3, [r3, #112]	@ 0x70
 800504a:	f013 0f02 	tst.w	r3, #2
 800504e:	d146      	bne.n	80050de <HAL_RCC_OscConfig+0x2c2>
      {
        if ((HAL_GetTick() - tickstart) > RCC_LSE_TIMEOUT_VALUE)
 8005050:	f7ff faea 	bl	8004628 <HAL_GetTick>
 8005054:	1b80      	subs	r0, r0, r6
 8005056:	f241 3388 	movw	r3, #5000	@ 0x1388
 800505a:	4298      	cmp	r0, r3
 800505c:	d9f3      	bls.n	8005046 <HAL_RCC_OscConfig+0x22a>
        {
          return HAL_TIMEOUT;
 800505e:	2003      	movs	r0, #3
 8005060:	e0c6      	b.n	80051f0 <HAL_RCC_OscConfig+0x3d4>
    FlagStatus       pwrclkchanged = RESET;
 8005062:	2500      	movs	r5, #0
 8005064:	e7d6      	b.n	8005014 <HAL_RCC_OscConfig+0x1f8>
      SET_BIT(PWR->CR, PWR_CR_DBP);
 8005066:	4a14      	ldr	r2, [pc, #80]	@ (80050b8 <HAL_RCC_OscConfig+0x29c>)
 8005068:	6813      	ldr	r3, [r2, #0]
 800506a:	f443 7380 	orr.w	r3, r3, #256	@ 0x100
 800506e:	6013      	str	r3, [r2, #0]
      tickstart = HAL_GetTick();
 8005070:	f7ff fada 	bl	8004628 <HAL_GetTick>
 8005074:	4606      	mov	r6, r0
      while (HAL_IS_BIT_CLR(PWR->CR, PWR_CR_DBP))
 8005076:	4b10      	ldr	r3, [pc, #64]	@ (80050b8 <HAL_RCC_OscConfig+0x29c>)
 8005078:	681b      	ldr	r3, [r3, #0]
 800507a:	f413 7f80 	tst.w	r3, #256	@ 0x100
 800507e:	d1ce      	bne.n	800501e <HAL_RCC_OscConfig+0x202>
        if ((HAL_GetTick() - tickstart) > RCC_DBP_TIMEOUT_VALUE)
 8005080:	f7ff fad2 	bl	8004628 <HAL_GetTick>
 8005084:	1b80      	subs	r0, r0, r6
 8005086:	2802      	cmp	r0, #2
 8005088:	d9f5      	bls.n	8005076 <HAL_RCC_OscConfig+0x25a>
          return HAL_TIMEOUT;
 800508a:	2003      	movs	r0, #3
 800508c:	e0b0      	b.n	80051f0 <HAL_RCC_OscConfig+0x3d4>
    __HAL_RCC_LSE_CONFIG(RCC_OscInitStruct->LSEState);
 800508e:	4a08      	ldr	r2, [pc, #32]	@ (80050b0 <HAL_RCC_OscConfig+0x294>)
 8005090:	6f13      	ldr	r3, [r2, #112]	@ 0x70
 8005092:	f043 0301 	orr.w	r3, r3, #1
 8005096:	6713      	str	r3, [r2, #112]	@ 0x70
 8005098:	e7cf      	b.n	800503a <HAL_RCC_OscConfig+0x21e>
 800509a:	4b05      	ldr	r3, [pc, #20]	@ (80050b0 <HAL_RCC_OscConfig+0x294>)
 800509c:	6f1a      	ldr	r2, [r3, #112]	@ 0x70
 800509e:	f042 0204 	orr.w	r2, r2, #4
 80050a2:	671a      	str	r2, [r3, #112]	@ 0x70
 80050a4:	6f1a      	ldr	r2, [r3, #112]	@ 0x70
 80050a6:	f042 0201 	orr.w	r2, r2, #1
 80050aa:	671a      	str	r2, [r3, #112]	@ 0x70
 80050ac:	e7c5      	b.n	800503a <HAL_RCC_OscConfig+0x21e>
 80050ae:	bf00      	nop
 80050b0:	40023800 	.word	0x40023800
 80050b4:	42470000 	.word	0x42470000
 80050b8:	40007000 	.word	0x40007000
      }
    }
    else
    {
      /* Get Start Tick */
      tickstart = HAL_GetTick();
 80050bc:	f7ff fab4 	bl	8004628 <HAL_GetTick>
 80050c0:	4606      	mov	r6, r0

      /* Wait till LSE is ready */
      while (__HAL_RCC_GET_FLAG(RCC_FLAG_LSERDY) != RESET)
 80050c2:	4b52      	ldr	r3, [pc, #328]	@ (800520c <HAL_RCC_OscConfig+0x3f0>)
 80050c4:	6f1b      	ldr	r3, [r3, #112]	@ 0x70
 80050c6:	f013 0f02 	tst.w	r3, #2
 80050ca:	d008      	beq.n	80050de <HAL_RCC_OscConfig+0x2c2>
      {
        if ((HAL_GetTick() - tickstart) > RCC_LSE_TIMEOUT_VALUE)
 80050cc:	f7ff faac 	bl	8004628 <HAL_GetTick>
 80050d0:	1b80      	subs	r0, r0, r6
 80050d2:	f241 3388 	movw	r3, #5000	@ 0x1388
 80050d6:	4298      	cmp	r0, r3
 80050d8:	d9f3      	bls.n	80050c2 <HAL_RCC_OscConfig+0x2a6>
        {
          return HAL_TIMEOUT;
 80050da:	2003      	movs	r0, #3
 80050dc:	e088      	b.n	80051f0 <HAL_RCC_OscConfig+0x3d4>
        }
      }
    }

    /* Restore clock configuration if changed */
    if (pwrclkchanged == SET)
 80050de:	b9ed      	cbnz	r5, 800511c <HAL_RCC_OscConfig+0x300>
    }
  }
  /*-------------------------------- PLL Configuration -----------------------*/
  /* Check the parameters */
  assert_param(IS_RCC_PLL(RCC_OscInitStruct->PLL.PLLState));
  if ((RCC_OscInitStruct->PLL.PLLState) != RCC_PLL_NONE)
 80050e0:	69a3      	ldr	r3, [r4, #24]
 80050e2:	2b00      	cmp	r3, #0
 80050e4:	f000 8083 	beq.w	80051ee <HAL_RCC_OscConfig+0x3d2>
  {
    /* Check if the PLL is used as system clock or not */
    if (__HAL_RCC_GET_SYSCLK_SOURCE() != RCC_CFGR_SWS_PLL)
 80050e8:	4a48      	ldr	r2, [pc, #288]	@ (800520c <HAL_RCC_OscConfig+0x3f0>)
 80050ea:	6892      	ldr	r2, [r2, #8]
 80050ec:	f002 020c 	and.w	r2, r2, #12
 80050f0:	2a08      	cmp	r2, #8
 80050f2:	d051      	beq.n	8005198 <HAL_RCC_OscConfig+0x37c>
    {
      if ((RCC_OscInitStruct->PLL.PLLState) == RCC_PLL_ON)
 80050f4:	2b02      	cmp	r3, #2
 80050f6:	d017      	beq.n	8005128 <HAL_RCC_OscConfig+0x30c>
        }
      }
      else
      {
        /* Disable the main PLL. */
        __HAL_RCC_PLL_DISABLE();
 80050f8:	4b45      	ldr	r3, [pc, #276]	@ (8005210 <HAL_RCC_OscConfig+0x3f4>)
 80050fa:	2200      	movs	r2, #0
 80050fc:	661a      	str	r2, [r3, #96]	@ 0x60

        /* Get Start Tick */
        tickstart = HAL_GetTick();
 80050fe:	f7ff fa93 	bl	8004628 <HAL_GetTick>
 8005102:	4604      	mov	r4, r0

        /* Wait till PLL is disabled */
        while (__HAL_RCC_GET_FLAG(RCC_FLAG_PLLRDY) != RESET)
 8005104:	4b41      	ldr	r3, [pc, #260]	@ (800520c <HAL_RCC_OscConfig+0x3f0>)
 8005106:	681b      	ldr	r3, [r3, #0]
 8005108:	f013 7f00 	tst.w	r3, #33554432	@ 0x2000000
 800510c:	d042      	beq.n	8005194 <HAL_RCC_OscConfig+0x378>
        {
          if ((HAL_GetTick() - tickstart) > PLL_TIMEOUT_VALUE)
 800510e:	f7ff fa8b 	bl	8004628 <HAL_GetTick>
 8005112:	1b00      	subs	r0, r0, r4
 8005114:	2802      	cmp	r0, #2
 8005116:	d9f5      	bls.n	8005104 <HAL_RCC_OscConfig+0x2e8>
          {
            return HAL_TIMEOUT;
 8005118:	2003      	movs	r0, #3
 800511a:	e069      	b.n	80051f0 <HAL_RCC_OscConfig+0x3d4>
      __HAL_RCC_PWR_CLK_DISABLE();
 800511c:	4a3b      	ldr	r2, [pc, #236]	@ (800520c <HAL_RCC_OscConfig+0x3f0>)
 800511e:	6c13      	ldr	r3, [r2, #64]	@ 0x40
 8005120:	f023 5380 	bic.w	r3, r3, #268435456	@ 0x10000000
 8005124:	6413      	str	r3, [r2, #64]	@ 0x40
 8005126:	e7db      	b.n	80050e0 <HAL_RCC_OscConfig+0x2c4>
        __HAL_RCC_PLL_DISABLE();
 8005128:	4b39      	ldr	r3, [pc, #228]	@ (8005210 <HAL_RCC_OscConfig+0x3f4>)
 800512a:	2200      	movs	r2, #0
 800512c:	661a      	str	r2, [r3, #96]	@ 0x60
        tickstart = HAL_GetTick();
 800512e:	f7ff fa7b 	bl	8004628 <HAL_GetTick>
 8005132:	4605      	mov	r5, r0
        while (__HAL_RCC_GET_FLAG(RCC_FLAG_PLLRDY) != RESET)
 8005134:	4b35      	ldr	r3, [pc, #212]	@ (800520c <HAL_RCC_OscConfig+0x3f0>)
 8005136:	681b      	ldr	r3, [r3, #0]
 8005138:	f013 7f00 	tst.w	r3, #33554432	@ 0x2000000
 800513c:	d006      	beq.n	800514c <HAL_RCC_OscConfig+0x330>
          if ((HAL_GetTick() - tickstart) > PLL_TIMEOUT_VALUE)
 800513e:	f7ff fa73 	bl	8004628 <HAL_GetTick>
 8005142:	1b40      	subs	r0, r0, r5
 8005144:	2802      	cmp	r0, #2
 8005146:	d9f5      	bls.n	8005134 <HAL_RCC_OscConfig+0x318>
            return HAL_TIMEOUT;
 8005148:	2003      	movs	r0, #3
 800514a:	e051      	b.n	80051f0 <HAL_RCC_OscConfig+0x3d4>
        WRITE_REG(RCC->PLLCFGR, (RCC_OscInitStruct->PLL.PLLSource                                            | \
 800514c:	69e3      	ldr	r3, [r4, #28]
 800514e:	6a22      	ldr	r2, [r4, #32]
 8005150:	4313      	orrs	r3, r2
 8005152:	6a62      	ldr	r2, [r4, #36]	@ 0x24
 8005154:	ea43 1382 	orr.w	r3, r3, r2, lsl #6
 8005158:	6aa2      	ldr	r2, [r4, #40]	@ 0x28
 800515a:	0852      	lsrs	r2, r2, #1
 800515c:	3a01      	subs	r2, #1
 800515e:	ea43 4302 	orr.w	r3, r3, r2, lsl #16
 8005162:	6ae2      	ldr	r2, [r4, #44]	@ 0x2c
 8005164:	ea43 6302 	orr.w	r3, r3, r2, lsl #24
 8005168:	4a28      	ldr	r2, [pc, #160]	@ (800520c <HAL_RCC_OscConfig+0x3f0>)
 800516a:	6053      	str	r3, [r2, #4]
        __HAL_RCC_PLL_ENABLE();
 800516c:	4b28      	ldr	r3, [pc, #160]	@ (8005210 <HAL_RCC_OscConfig+0x3f4>)
 800516e:	2201      	movs	r2, #1
 8005170:	661a      	str	r2, [r3, #96]	@ 0x60
        tickstart = HAL_GetTick();
 8005172:	f7ff fa59 	bl	8004628 <HAL_GetTick>
 8005176:	4604      	mov	r4, r0
        while (__HAL_RCC_GET_FLAG(RCC_FLAG_PLLRDY) == RESET)
 8005178:	4b24      	ldr	r3, [pc, #144]	@ (800520c <HAL_RCC_OscConfig+0x3f0>)
 800517a:	681b      	ldr	r3, [r3, #0]
 800517c:	f013 7f00 	tst.w	r3, #33554432	@ 0x2000000
 8005180:	d106      	bne.n	8005190 <HAL_RCC_OscConfig+0x374>
          if ((HAL_GetTick() - tickstart) > PLL_TIMEOUT_VALUE)
 8005182:	f7ff fa51 	bl	8004628 <HAL_GetTick>
 8005186:	1b00      	subs	r0, r0, r4
 8005188:	2802      	cmp	r0, #2
 800518a:	d9f5      	bls.n	8005178 <HAL_RCC_OscConfig+0x35c>
            return HAL_TIMEOUT;
 800518c:	2003      	movs	r0, #3
 800518e:	e02f      	b.n	80051f0 <HAL_RCC_OscConfig+0x3d4>
          return HAL_ERROR;
        }
      }
    }
  }
  return HAL_OK;
 8005190:	2000      	movs	r0, #0
 8005192:	e02d      	b.n	80051f0 <HAL_RCC_OscConfig+0x3d4>
 8005194:	2000      	movs	r0, #0
 8005196:	e02b      	b.n	80051f0 <HAL_RCC_OscConfig+0x3d4>
      if ((RCC_OscInitStruct->PLL.PLLState) == RCC_PLL_OFF)
 8005198:	2b01      	cmp	r3, #1
 800519a:	d02b      	beq.n	80051f4 <HAL_RCC_OscConfig+0x3d8>
        pll_config = RCC->PLLCFGR;
 800519c:	4b1b      	ldr	r3, [pc, #108]	@ (800520c <HAL_RCC_OscConfig+0x3f0>)
 800519e:	685b      	ldr	r3, [r3, #4]
            (READ_BIT(pll_config, RCC_PLLCFGR_PLLSRC) != RCC_OscInitStruct->PLL.PLLSource) ||
 80051a0:	f403 0180 	and.w	r1, r3, #4194304	@ 0x400000
 80051a4:	69e2      	ldr	r2, [r4, #28]
        if (((RCC_OscInitStruct->PLL.PLLState) == RCC_PLL_OFF) ||
 80051a6:	4291      	cmp	r1, r2
 80051a8:	d126      	bne.n	80051f8 <HAL_RCC_OscConfig+0x3dc>
            (READ_BIT(pll_config, RCC_PLLCFGR_PLLM) != (RCC_OscInitStruct->PLL.PLLM) << RCC_PLLCFGR_PLLM_Pos) ||
 80051aa:	f003 023f 	and.w	r2, r3, #63	@ 0x3f
 80051ae:	6a21      	ldr	r1, [r4, #32]
            (READ_BIT(pll_config, RCC_PLLCFGR_PLLSRC) != RCC_OscInitStruct->PLL.PLLSource) ||
 80051b0:	428a      	cmp	r2, r1
 80051b2:	d123      	bne.n	80051fc <HAL_RCC_OscConfig+0x3e0>
            (READ_BIT(pll_config, RCC_PLLCFGR_PLLN) != (RCC_OscInitStruct->PLL.PLLN) << RCC_PLLCFGR_PLLN_Pos) ||
 80051b4:	6a61      	ldr	r1, [r4, #36]	@ 0x24
            (READ_BIT(pll_config, RCC_PLLCFGR_PLLM) != (RCC_OscInitStruct->PLL.PLLM) << RCC_PLLCFGR_PLLM_Pos) ||
 80051b6:	f647 72c0 	movw	r2, #32704	@ 0x7fc0
 80051ba:	401a      	ands	r2, r3
 80051bc:	ebb2 1f81 	cmp.w	r2, r1, lsl #6
 80051c0:	d11e      	bne.n	8005200 <HAL_RCC_OscConfig+0x3e4>
            (READ_BIT(pll_config, RCC_PLLCFGR_PLLP) != (((RCC_OscInitStruct->PLL.PLLP >> 1U) - 1U)) << RCC_PLLCFGR_PLLP_Pos) ||
 80051c2:	f403 3140 	and.w	r1, r3, #196608	@ 0x30000
 80051c6:	6aa2      	ldr	r2, [r4, #40]	@ 0x28
 80051c8:	0852      	lsrs	r2, r2, #1
 80051ca:	3a01      	subs	r2, #1
            (READ_BIT(pll_config, RCC_PLLCFGR_PLLN) != (RCC_OscInitStruct->PLL.PLLN) << RCC_PLLCFGR_PLLN_Pos) ||
 80051cc:	ebb1 4f02 	cmp.w	r1, r2, lsl #16
 80051d0:	d118      	bne.n	8005204 <HAL_RCC_OscConfig+0x3e8>
            (READ_BIT(pll_config, RCC_PLLCFGR_PLLQ) != (RCC_OscInitStruct->PLL.PLLQ << RCC_PLLCFGR_PLLQ_Pos)))
 80051d2:	f003 6370 	and.w	r3, r3, #251658240	@ 0xf000000
 80051d6:	6ae2      	ldr	r2, [r4, #44]	@ 0x2c
            (READ_BIT(pll_config, RCC_PLLCFGR_PLLP) != (((RCC_OscInitStruct->PLL.PLLP >> 1U) - 1U)) << RCC_PLLCFGR_PLLP_Pos) ||
 80051d8:	ebb3 6f02 	cmp.w	r3, r2, lsl #24
 80051dc:	d114      	bne.n	8005208 <HAL_RCC_OscConfig+0x3ec>
  return HAL_OK;
 80051de:	2000      	movs	r0, #0
 80051e0:	e006      	b.n	80051f0 <HAL_RCC_OscConfig+0x3d4>
    return HAL_ERROR;
 80051e2:	2001      	movs	r0, #1
}
 80051e4:	4770      	bx	lr
        return HAL_ERROR;
 80051e6:	2001      	movs	r0, #1
 80051e8:	e002      	b.n	80051f0 <HAL_RCC_OscConfig+0x3d4>
        return HAL_ERROR;
 80051ea:	2001      	movs	r0, #1
 80051ec:	e000      	b.n	80051f0 <HAL_RCC_OscConfig+0x3d4>
  return HAL_OK;
 80051ee:	2000      	movs	r0, #0
}
 80051f0:	b002      	add	sp, #8
 80051f2:	bd70      	pop	{r4, r5, r6, pc}
        return HAL_ERROR;
 80051f4:	2001      	movs	r0, #1
 80051f6:	e7fb      	b.n	80051f0 <HAL_RCC_OscConfig+0x3d4>
          return HAL_ERROR;
 80051f8:	2001      	movs	r0, #1
 80051fa:	e7f9      	b.n	80051f0 <HAL_RCC_OscConfig+0x3d4>
 80051fc:	2001      	movs	r0, #1
 80051fe:	e7f7      	b.n	80051f0 <HAL_RCC_OscConfig+0x3d4>
 8005200:	2001      	movs	r0, #1
 8005202:	e7f5      	b.n	80051f0 <HAL_RCC_OscConfig+0x3d4>
 8005204:	2001      	movs	r0, #1
 8005206:	e7f3      	b.n	80051f0 <HAL_RCC_OscConfig+0x3d4>
 8005208:	2001      	movs	r0, #1
 800520a:	e7f1      	b.n	80051f0 <HAL_RCC_OscConfig+0x3d4>
 800520c:	40023800 	.word	0x40023800
 8005210:	42470000 	.word	0x42470000

08005214 <HAL_RCC_GetSysClockFreq>:
  *
  *
  * @retval SYSCLK frequency
  */
__weak uint32_t HAL_RCC_GetSysClockFreq(void)
{
 8005214:	b508      	push	{r3, lr}
  uint32_t pllvco = 0U;
  uint32_t pllp = 0U;
  uint32_t sysclockfreq = 0U;

  /* Get SYSCLK source -------------------------------------------------------*/
  switch (RCC->CFGR & RCC_CFGR_SWS)
 8005216:	4b33      	ldr	r3, [pc, #204]	@ (80052e4 <HAL_RCC_GetSysClockFreq+0xd0>)
 8005218:	689b      	ldr	r3, [r3, #8]
 800521a:	f003 030c 	and.w	r3, r3, #12
 800521e:	2b04      	cmp	r3, #4
 8005220:	d05b      	beq.n	80052da <HAL_RCC_GetSysClockFreq+0xc6>
 8005222:	2b08      	cmp	r3, #8
 8005224:	d15b      	bne.n	80052de <HAL_RCC_GetSysClockFreq+0xca>
    }
    case RCC_CFGR_SWS_PLL:  /* PLL used as system clock  source */
    {
      /* PLL_VCO = (HSE_VALUE or HSI_VALUE / PLLM) * PLLN
      SYSCLK = PLL_VCO / PLLP */
      pllm = RCC->PLLCFGR & RCC_PLLCFGR_PLLM;
 8005226:	4b2f      	ldr	r3, [pc, #188]	@ (80052e4 <HAL_RCC_GetSysClockFreq+0xd0>)
 8005228:	685a      	ldr	r2, [r3, #4]
 800522a:	f002 023f 	and.w	r2, r2, #63	@ 0x3f
      if (__HAL_RCC_GET_PLL_OSCSOURCE() != RCC_PLLSOURCE_HSI)
 800522e:	685b      	ldr	r3, [r3, #4]
 8005230:	f413 0f80 	tst.w	r3, #4194304	@ 0x400000
 8005234:	d02c      	beq.n	8005290 <HAL_RCC_GetSysClockFreq+0x7c>
      {
        /* HSE used as PLL clock source */
        pllvco = (uint32_t)((((uint64_t) HSE_VALUE * ((uint64_t)((RCC->PLLCFGR & RCC_PLLCFGR_PLLN) >> RCC_PLLCFGR_PLLN_Pos)))) / (uint64_t)pllm);
 8005236:	4b2b      	ldr	r3, [pc, #172]	@ (80052e4 <HAL_RCC_GetSysClockFreq+0xd0>)
 8005238:	6858      	ldr	r0, [r3, #4]
 800523a:	f3c0 1088 	ubfx	r0, r0, #6, #9
 800523e:	ea4f 1c40 	mov.w	ip, r0, lsl #5
 8005242:	ebbc 0c00 	subs.w	ip, ip, r0
 8005246:	eb6e 0e0e 	sbc.w	lr, lr, lr
 800524a:	ea4f 138e 	mov.w	r3, lr, lsl #6
 800524e:	ea43 639c 	orr.w	r3, r3, ip, lsr #26
 8005252:	ea4f 118c 	mov.w	r1, ip, lsl #6
 8005256:	ebb1 010c 	subs.w	r1, r1, ip
 800525a:	eb63 030e 	sbc.w	r3, r3, lr
 800525e:	00db      	lsls	r3, r3, #3
 8005260:	ea43 7351 	orr.w	r3, r3, r1, lsr #29
 8005264:	00c9      	lsls	r1, r1, #3
 8005266:	eb11 0c00 	adds.w	ip, r1, r0
 800526a:	f143 0300 	adc.w	r3, r3, #0
 800526e:	0259      	lsls	r1, r3, #9
 8005270:	2300      	movs	r3, #0
 8005272:	ea4f 204c 	mov.w	r0, ip, lsl #9
 8005276:	ea41 51dc 	orr.w	r1, r1, ip, lsr #23
 800527a:	f7fe fd9f 	bl	8003dbc <__aeabi_uldivmod>
      else
      {
        /* HSI used as PLL clock source */
        pllvco = (uint32_t)((((uint64_t) HSI_VALUE * ((uint64_t)((RCC->PLLCFGR & RCC_PLLCFGR_PLLN) >> RCC_PLLCFGR_PLLN_Pos)))) / (uint64_t)pllm);
      }
      pllp = ((((RCC->PLLCFGR & RCC_PLLCFGR_PLLP) >> RCC_PLLCFGR_PLLP_Pos) + 1U) * 2U);
 800527e:	4b19      	ldr	r3, [pc, #100]	@ (80052e4 <HAL_RCC_GetSysClockFreq+0xd0>)
 8005280:	685b      	ldr	r3, [r3, #4]
 8005282:	f3c3 4301 	ubfx	r3, r3, #16, #2
 8005286:	3301      	adds	r3, #1
 8005288:	005b      	lsls	r3, r3, #1

      sysclockfreq = pllvco / pllp;
 800528a:	fbb0 f0f3 	udiv	r0, r0, r3
      break;
 800528e:	e027      	b.n	80052e0 <HAL_RCC_GetSysClockFreq+0xcc>
        pllvco = (uint32_t)((((uint64_t) HSI_VALUE * ((uint64_t)((RCC->PLLCFGR & RCC_PLLCFGR_PLLN) >> RCC_PLLCFGR_PLLN_Pos)))) / (uint64_t)pllm);
 8005290:	4b14      	ldr	r3, [pc, #80]	@ (80052e4 <HAL_RCC_GetSysClockFreq+0xd0>)
 8005292:	6858      	ldr	r0, [r3, #4]
 8005294:	f3c0 1088 	ubfx	r0, r0, #6, #9
 8005298:	ea4f 1c40 	mov.w	ip, r0, lsl #5
 800529c:	ebbc 0c00 	subs.w	ip, ip, r0
 80052a0:	eb6e 0e0e 	sbc.w	lr, lr, lr
 80052a4:	ea4f 138e 	mov.w	r3, lr, lsl #6
 80052a8:	ea43 639c 	orr.w	r3, r3, ip, lsr #26
 80052ac:	ea4f 118c 	mov.w	r1, ip, lsl #6
 80052b0:	ebb1 010c 	subs.w	r1, r1, ip
 80052b4:	eb63 030e 	sbc.w	r3, r3, lr
 80052b8:	00db      	lsls	r3, r3, #3
 80052ba:	ea43 7351 	orr.w	r3, r3, r1, lsr #29
 80052be:	00c9      	lsls	r1, r1, #3
 80052c0:	eb11 0c00 	adds.w	ip, r1, r0
 80052c4:	f143 0300 	adc.w	r3, r3, #0
 80052c8:	0299      	lsls	r1, r3, #10
 80052ca:	2300      	movs	r3, #0
 80052cc:	ea4f 208c 	mov.w	r0, ip, lsl #10
 80052d0:	ea41 519c 	orr.w	r1, r1, ip, lsr #22
 80052d4:	f7fe fd72 	bl	8003dbc <__aeabi_uldivmod>
 80052d8:	e7d1      	b.n	800527e <HAL_RCC_GetSysClockFreq+0x6a>
      sysclockfreq = HSE_VALUE;
 80052da:	4803      	ldr	r0, [pc, #12]	@ (80052e8 <HAL_RCC_GetSysClockFreq+0xd4>)
 80052dc:	e000      	b.n	80052e0 <HAL_RCC_GetSysClockFreq+0xcc>
  switch (RCC->CFGR & RCC_CFGR_SWS)
 80052de:	4803      	ldr	r0, [pc, #12]	@ (80052ec <HAL_RCC_GetSysClockFreq+0xd8>)
      sysclockfreq = HSI_VALUE;
      break;
    }
  }
  return sysclockfreq;
}
 80052e0:	bd08      	pop	{r3, pc}
 80052e2:	bf00      	nop
 80052e4:	40023800 	.word	0x40023800
 80052e8:	007a1200 	.word	0x007a1200
 80052ec:	00f42400 	.word	0x00f42400

080052f0 <HAL_RCC_ClockConfig>:
  if (RCC_ClkInitStruct == NULL)
 80052f0:	2800      	cmp	r0, #0
 80052f2:	f000 809b 	beq.w	800542c <HAL_RCC_ClockConfig+0x13c>
{
 80052f6:	b570      	push	{r4, r5, r6, lr}
 80052f8:	460d      	mov	r5, r1
 80052fa:	4604      	mov	r4, r0
  if (FLatency > __HAL_FLASH_GET_LATENCY())
 80052fc:	4b4f      	ldr	r3, [pc, #316]	@ (800543c <HAL_RCC_ClockConfig+0x14c>)
 80052fe:	681b      	ldr	r3, [r3, #0]
 8005300:	f003 0307 	and.w	r3, r3, #7
 8005304:	428b      	cmp	r3, r1
 8005306:	d208      	bcs.n	800531a <HAL_RCC_ClockConfig+0x2a>
    __HAL_FLASH_SET_LATENCY(FLatency);
 8005308:	b2cb      	uxtb	r3, r1
 800530a:	4a4c      	ldr	r2, [pc, #304]	@ (800543c <HAL_RCC_ClockConfig+0x14c>)
 800530c:	7013      	strb	r3, [r2, #0]
    if (__HAL_FLASH_GET_LATENCY() != FLatency)
 800530e:	6813      	ldr	r3, [r2, #0]
 8005310:	f003 0307 	and.w	r3, r3, #7
 8005314:	428b      	cmp	r3, r1
 8005316:	f040 808b 	bne.w	8005430 <HAL_RCC_ClockConfig+0x140>
  if (((RCC_ClkInitStruct->ClockType) & RCC_CLOCKTYPE_HCLK) == RCC_CLOCKTYPE_HCLK)
 800531a:	6823      	ldr	r3, [r4, #0]
 800531c:	f013 0f02 	tst.w	r3, #2
 8005320:	d017      	beq.n	8005352 <HAL_RCC_ClockConfig+0x62>
    if (((RCC_ClkInitStruct->ClockType) & RCC_CLOCKTYPE_PCLK1) == RCC_CLOCKTYPE_PCLK1)
 8005322:	f013 0f04 	tst.w	r3, #4
 8005326:	d004      	beq.n	8005332 <HAL_RCC_ClockConfig+0x42>
      MODIFY_REG(RCC->CFGR, RCC_CFGR_PPRE1, RCC_HCLK_DIV16);
 8005328:	4a45      	ldr	r2, [pc, #276]	@ (8005440 <HAL_RCC_ClockConfig+0x150>)
 800532a:	6893      	ldr	r3, [r2, #8]
 800532c:	f443 53e0 	orr.w	r3, r3, #7168	@ 0x1c00
 8005330:	6093      	str	r3, [r2, #8]
    if (((RCC_ClkInitStruct->ClockType) & RCC_CLOCKTYPE_PCLK2) == RCC_CLOCKTYPE_PCLK2)
 8005332:	6823      	ldr	r3, [r4, #0]
 8005334:	f013 0f08 	tst.w	r3, #8
 8005338:	d004      	beq.n	8005344 <HAL_RCC_ClockConfig+0x54>
      MODIFY_REG(RCC->CFGR, RCC_CFGR_PPRE2, (RCC_HCLK_DIV16 << 3));
 800533a:	4a41      	ldr	r2, [pc, #260]	@ (8005440 <HAL_RCC_ClockConfig+0x150>)
 800533c:	6893      	ldr	r3, [r2, #8]
 800533e:	f443 4360 	orr.w	r3, r3, #57344	@ 0xe000
 8005342:	6093      	str	r3, [r2, #8]
    MODIFY_REG(RCC->CFGR, RCC_CFGR_HPRE, RCC_ClkInitStruct->AHBCLKDivider);
 8005344:	4a3e      	ldr	r2, [pc, #248]	@ (8005440 <HAL_RCC_ClockConfig+0x150>)
 8005346:	6893      	ldr	r3, [r2, #8]
 8005348:	f023 03f0 	bic.w	r3, r3, #240	@ 0xf0
 800534c:	68a1      	ldr	r1, [r4, #8]
 800534e:	430b      	orrs	r3, r1
 8005350:	6093      	str	r3, [r2, #8]
  if (((RCC_ClkInitStruct->ClockType) & RCC_CLOCKTYPE_SYSCLK) == RCC_CLOCKTYPE_SYSCLK)
 8005352:	6823      	ldr	r3, [r4, #0]
 8005354:	f013 0f01 	tst.w	r3, #1
 8005358:	d032      	beq.n	80053c0 <HAL_RCC_ClockConfig+0xd0>
    if (RCC_ClkInitStruct->SYSCLKSource == RCC_SYSCLKSOURCE_HSE)
 800535a:	6863      	ldr	r3, [r4, #4]
 800535c:	2b01      	cmp	r3, #1
 800535e:	d021      	beq.n	80053a4 <HAL_RCC_ClockConfig+0xb4>
    else if ((RCC_ClkInitStruct->SYSCLKSource == RCC_SYSCLKSOURCE_PLLCLK)   ||
 8005360:	1e9a      	subs	r2, r3, #2
 8005362:	2a01      	cmp	r2, #1
 8005364:	d925      	bls.n	80053b2 <HAL_RCC_ClockConfig+0xc2>
      if (__HAL_RCC_GET_FLAG(RCC_FLAG_HSIRDY) == RESET)
 8005366:	4a36      	ldr	r2, [pc, #216]	@ (8005440 <HAL_RCC_ClockConfig+0x150>)
 8005368:	6812      	ldr	r2, [r2, #0]
 800536a:	f012 0f02 	tst.w	r2, #2
 800536e:	d061      	beq.n	8005434 <HAL_RCC_ClockConfig+0x144>
    __HAL_RCC_SYSCLK_CONFIG(RCC_ClkInitStruct->SYSCLKSource);
 8005370:	4933      	ldr	r1, [pc, #204]	@ (8005440 <HAL_RCC_ClockConfig+0x150>)
 8005372:	688a      	ldr	r2, [r1, #8]
 8005374:	f022 0203 	bic.w	r2, r2, #3
 8005378:	4313      	orrs	r3, r2
 800537a:	608b      	str	r3, [r1, #8]
    tickstart = HAL_GetTick();
 800537c:	f7ff f954 	bl	8004628 <HAL_GetTick>
 8005380:	4606      	mov	r6, r0
    while (__HAL_RCC_GET_SYSCLK_SOURCE() != (RCC_ClkInitStruct->SYSCLKSource << RCC_CFGR_SWS_Pos))
 8005382:	4b2f      	ldr	r3, [pc, #188]	@ (8005440 <HAL_RCC_ClockConfig+0x150>)
 8005384:	689b      	ldr	r3, [r3, #8]
 8005386:	f003 030c 	and.w	r3, r3, #12
 800538a:	6862      	ldr	r2, [r4, #4]
 800538c:	ebb3 0f82 	cmp.w	r3, r2, lsl #2
 8005390:	d016      	beq.n	80053c0 <HAL_RCC_ClockConfig+0xd0>
      if ((HAL_GetTick() - tickstart) > CLOCKSWITCH_TIMEOUT_VALUE)
 8005392:	f7ff f949 	bl	8004628 <HAL_GetTick>
 8005396:	1b80      	subs	r0, r0, r6
 8005398:	f241 3388 	movw	r3, #5000	@ 0x1388
 800539c:	4298      	cmp	r0, r3
 800539e:	d9f0      	bls.n	8005382 <HAL_RCC_ClockConfig+0x92>
        return HAL_TIMEOUT;
 80053a0:	2003      	movs	r0, #3
 80053a2:	e042      	b.n	800542a <HAL_RCC_ClockConfig+0x13a>
      if (__HAL_RCC_GET_FLAG(RCC_FLAG_HSERDY) == RESET)
 80053a4:	4a26      	ldr	r2, [pc, #152]	@ (8005440 <HAL_RCC_ClockConfig+0x150>)
 80053a6:	6812      	ldr	r2, [r2, #0]
 80053a8:	f412 3f00 	tst.w	r2, #131072	@ 0x20000
 80053ac:	d1e0      	bne.n	8005370 <HAL_RCC_ClockConfig+0x80>
        return HAL_ERROR;
 80053ae:	2001      	movs	r0, #1
 80053b0:	e03b      	b.n	800542a <HAL_RCC_ClockConfig+0x13a>
      if (__HAL_RCC_GET_FLAG(RCC_FLAG_PLLRDY) == RESET)
 80053b2:	4a23      	ldr	r2, [pc, #140]	@ (8005440 <HAL_RCC_ClockConfig+0x150>)
 80053b4:	6812      	ldr	r2, [r2, #0]
 80053b6:	f012 7f00 	tst.w	r2, #33554432	@ 0x2000000
 80053ba:	d1d9      	bne.n	8005370 <HAL_RCC_ClockConfig+0x80>
        return HAL_ERROR;
 80053bc:	2001      	movs	r0, #1
 80053be:	e034      	b.n	800542a <HAL_RCC_ClockConfig+0x13a>
  if (FLatency < __HAL_FLASH_GET_LATENCY())
 80053c0:	4b1e      	ldr	r3, [pc, #120]	@ (800543c <HAL_RCC_ClockConfig+0x14c>)
 80053c2:	681b      	ldr	r3, [r3, #0]
 80053c4:	f003 0307 	and.w	r3, r3, #7
 80053c8:	42ab      	cmp	r3, r5
 80053ca:	d907      	bls.n	80053dc <HAL_RCC_ClockConfig+0xec>
    __HAL_FLASH_SET_LATENCY(FLatency);
 80053cc:	b2ea      	uxtb	r2, r5
 80053ce:	4b1b      	ldr	r3, [pc, #108]	@ (800543c <HAL_RCC_ClockConfig+0x14c>)
 80053d0:	701a      	strb	r2, [r3, #0]
    if (__HAL_FLASH_GET_LATENCY() != FLatency)
 80053d2:	681b      	ldr	r3, [r3, #0]
 80053d4:	f003 0307 	and.w	r3, r3, #7
 80053d8:	42ab      	cmp	r3, r5
 80053da:	d12d      	bne.n	8005438 <HAL_RCC_ClockConfig+0x148>
  if (((RCC_ClkInitStruct->ClockType) & RCC_CLOCKTYPE_PCLK1) == RCC_CLOCKTYPE_PCLK1)
 80053dc:	6823      	ldr	r3, [r4, #0]
 80053de:	f013 0f04 	tst.w	r3, #4
 80053e2:	d006      	beq.n	80053f2 <HAL_RCC_ClockConfig+0x102>
    MODIFY_REG(RCC->CFGR, RCC_CFGR_PPRE1, RCC_ClkInitStruct->APB1CLKDivider);
 80053e4:	4a16      	ldr	r2, [pc, #88]	@ (8005440 <HAL_RCC_ClockConfig+0x150>)
 80053e6:	6893      	ldr	r3, [r2, #8]
 80053e8:	f423 53e0 	bic.w	r3, r3, #7168	@ 0x1c00
 80053ec:	68e1      	ldr	r1, [r4, #12]
 80053ee:	430b      	orrs	r3, r1
 80053f0:	6093      	str	r3, [r2, #8]
  if (((RCC_ClkInitStruct->ClockType) & RCC_CLOCKTYPE_PCLK2) == RCC_CLOCKTYPE_PCLK2)
 80053f2:	6823      	ldr	r3, [r4, #0]
 80053f4:	f013 0f08 	tst.w	r3, #8
 80053f8:	d007      	beq.n	800540a <HAL_RCC_ClockConfig+0x11a>
    MODIFY_REG(RCC->CFGR, RCC_CFGR_PPRE2, ((RCC_ClkInitStruct->APB2CLKDivider) << 3U));
 80053fa:	4a11      	ldr	r2, [pc, #68]	@ (8005440 <HAL_RCC_ClockConfig+0x150>)
 80053fc:	6893      	ldr	r3, [r2, #8]
 80053fe:	f423 4360 	bic.w	r3, r3, #57344	@ 0xe000
 8005402:	6921      	ldr	r1, [r4, #16]
 8005404:	ea43 03c1 	orr.w	r3, r3, r1, lsl #3
 8005408:	6093      	str	r3, [r2, #8]
  SystemCoreClock = HAL_RCC_GetSysClockFreq() >> AHBPrescTable[(RCC->CFGR & RCC_CFGR_HPRE) >> RCC_CFGR_HPRE_Pos];
 800540a:	f7ff ff03 	bl	8005214 <HAL_RCC_GetSysClockFreq>
 800540e:	4b0c      	ldr	r3, [pc, #48]	@ (8005440 <HAL_RCC_ClockConfig+0x150>)
 8005410:	689b      	ldr	r3, [r3, #8]
 8005412:	f3c3 1303 	ubfx	r3, r3, #4, #4
 8005416:	4a0b      	ldr	r2, [pc, #44]	@ (8005444 <HAL_RCC_ClockConfig+0x154>)
 8005418:	5cd3      	ldrb	r3, [r2, r3]
 800541a:	40d8      	lsrs	r0, r3
 800541c:	4b0a      	ldr	r3, [pc, #40]	@ (8005448 <HAL_RCC_ClockConfig+0x158>)
 800541e:	6018      	str	r0, [r3, #0]
  HAL_InitTick(uwTickPrio);
 8005420:	4b0a      	ldr	r3, [pc, #40]	@ (800544c <HAL_RCC_ClockConfig+0x15c>)
 8005422:	6818      	ldr	r0, [r3, #0]
 8005424:	f000 fac2 	bl	80059ac <HAL_InitTick>
  return HAL_OK;
 8005428:	2000      	movs	r0, #0
}
 800542a:	bd70      	pop	{r4, r5, r6, pc}
    return HAL_ERROR;
 800542c:	2001      	movs	r0, #1
}
 800542e:	4770      	bx	lr
      return HAL_ERROR;
 8005430:	2001      	movs	r0, #1
 8005432:	e7fa      	b.n	800542a <HAL_RCC_ClockConfig+0x13a>
        return HAL_ERROR;
 8005434:	2001      	movs	r0, #1
 8005436:	e7f8      	b.n	800542a <HAL_RCC_ClockConfig+0x13a>
      return HAL_ERROR;
 8005438:	2001      	movs	r0, #1
 800543a:	e7f6      	b.n	800542a <HAL_RCC_ClockConfig+0x13a>
 800543c:	40023c00 	.word	0x40023c00
 8005440:	40023800 	.word	0x40023800
 8005444:	08005e88 	.word	0x08005e88
 8005448:	200001f8 	.word	0x200001f8
 800544c:	200001f4 	.word	0x200001f4

08005450 <HAL_RCC_GetHCLKFreq>:
  * @retval HCLK frequency
  */
uint32_t HAL_RCC_GetHCLKFreq(void)
{
  return SystemCoreClock;
}
 8005450:	4b01      	ldr	r3, [pc, #4]	@ (8005458 <HAL_RCC_GetHCLKFreq+0x8>)
 8005452:	6818      	ldr	r0, [r3, #0]
 8005454:	4770      	bx	lr
 8005456:	bf00      	nop
 8005458:	200001f8 	.word	0x200001f8

0800545c <HAL_RCC_GetPCLK1Freq>:
  * @note   Each time PCLK1 changes, this function must be called to update the
  *         right PCLK1 value. Otherwise, any configuration based on this function will be incorrect.
  * @retval PCLK1 frequency
  */
uint32_t HAL_RCC_GetPCLK1Freq(void)
{
 800545c:	b508      	push	{r3, lr}
  /* Get HCLK source and Compute PCLK1 frequency ---------------------------*/
  return (HAL_RCC_GetHCLKFreq() >> APBPrescTable[(RCC->CFGR & RCC_CFGR_PPRE1) >> RCC_CFGR_PPRE1_Pos]);
 800545e:	f7ff fff7 	bl	8005450 <HAL_RCC_GetHCLKFreq>
 8005462:	4b04      	ldr	r3, [pc, #16]	@ (8005474 <HAL_RCC_GetPCLK1Freq+0x18>)
 8005464:	689b      	ldr	r3, [r3, #8]
 8005466:	f3c3 2382 	ubfx	r3, r3, #10, #3
 800546a:	4a03      	ldr	r2, [pc, #12]	@ (8005478 <HAL_RCC_GetPCLK1Freq+0x1c>)
 800546c:	5cd3      	ldrb	r3, [r2, r3]
}
 800546e:	40d8      	lsrs	r0, r3
 8005470:	bd08      	pop	{r3, pc}
 8005472:	bf00      	nop
 8005474:	40023800 	.word	0x40023800
 8005478:	08005e80 	.word	0x08005e80

0800547c <HAL_RCC_GetPCLK2Freq>:
  * @note   Each time PCLK2 changes, this function must be called to update the
  *         right PCLK2 value. Otherwise, any configuration based on this function will be incorrect.
  * @retval PCLK2 frequency
  */
uint32_t HAL_RCC_GetPCLK2Freq(void)
{
 800547c:	b508      	push	{r3, lr}
  /* Get HCLK source and Compute PCLK2 frequency ---------------------------*/
  return (HAL_RCC_GetHCLKFreq() >> APBPrescTable[(RCC->CFGR & RCC_CFGR_PPRE2) >> RCC_CFGR_PPRE2_Pos]);
 800547e:	f7ff ffe7 	bl	8005450 <HAL_RCC_GetHCLKFreq>
 8005482:	4b04      	ldr	r3, [pc, #16]	@ (8005494 <HAL_RCC_GetPCLK2Freq+0x18>)
 8005484:	689b      	ldr	r3, [r3, #8]
 8005486:	f3c3 3342 	ubfx	r3, r3, #13, #3
 800548a:	4a03      	ldr	r2, [pc, #12]	@ (8005498 <HAL_RCC_GetPCLK2Freq+0x1c>)
 800548c:	5cd3      	ldrb	r3, [r2, r3]
}
 800548e:	40d8      	lsrs	r0, r3
 8005490:	bd08      	pop	{r3, pc}
 8005492:	bf00      	nop
 8005494:	40023800 	.word	0x40023800
 8005498:	08005e80 	.word	0x08005e80

0800549c <HAL_RCC_GetClockConfig>:
  * @retval None
  */
void HAL_RCC_GetClockConfig(RCC_ClkInitTypeDef  *RCC_ClkInitStruct, uint32_t *pFLatency)
{
  /* Set all possible values for the Clock type parameter --------------------*/
  RCC_ClkInitStruct->ClockType = RCC_CLOCKTYPE_SYSCLK | RCC_CLOCKTYPE_HCLK | RCC_CLOCKTYPE_PCLK1 | RCC_CLOCKTYPE_PCLK2;
 800549c:	230f      	movs	r3, #15
 800549e:	6003      	str	r3, [r0, #0]

  /* Get the SYSCLK configuration --------------------------------------------*/
  RCC_ClkInitStruct->SYSCLKSource = (uint32_t)(RCC->CFGR & RCC_CFGR_SW);
 80054a0:	4b0b      	ldr	r3, [pc, #44]	@ (80054d0 <HAL_RCC_GetClockConfig+0x34>)
 80054a2:	689a      	ldr	r2, [r3, #8]
 80054a4:	f002 0203 	and.w	r2, r2, #3
 80054a8:	6042      	str	r2, [r0, #4]

  /* Get the HCLK configuration ----------------------------------------------*/
  RCC_ClkInitStruct->AHBCLKDivider = (uint32_t)(RCC->CFGR & RCC_CFGR_HPRE);
 80054aa:	689a      	ldr	r2, [r3, #8]
 80054ac:	f002 02f0 	and.w	r2, r2, #240	@ 0xf0
 80054b0:	6082      	str	r2, [r0, #8]

  /* Get the APB1 configuration ----------------------------------------------*/
  RCC_ClkInitStruct->APB1CLKDivider = (uint32_t)(RCC->CFGR & RCC_CFGR_PPRE1);
 80054b2:	689a      	ldr	r2, [r3, #8]
 80054b4:	f402 52e0 	and.w	r2, r2, #7168	@ 0x1c00
 80054b8:	60c2      	str	r2, [r0, #12]

  /* Get the APB2 configuration ----------------------------------------------*/
  RCC_ClkInitStruct->APB2CLKDivider = (uint32_t)((RCC->CFGR & RCC_CFGR_PPRE2) >> 3U);
 80054ba:	689b      	ldr	r3, [r3, #8]
 80054bc:	08db      	lsrs	r3, r3, #3
 80054be:	f403 53e0 	and.w	r3, r3, #7168	@ 0x1c00
 80054c2:	6103      	str	r3, [r0, #16]

  /* Get the Flash Wait State (Latency) configuration ------------------------*/
  *pFLatency = (uint32_t)(FLASH->ACR & FLASH_ACR_LATENCY);
 80054c4:	4b03      	ldr	r3, [pc, #12]	@ (80054d4 <HAL_RCC_GetClockConfig+0x38>)
 80054c6:	681b      	ldr	r3, [r3, #0]
 80054c8:	f003 0307 	and.w	r3, r3, #7
 80054cc:	600b      	str	r3, [r1, #0]
}
 80054ce:	4770      	bx	lr
 80054d0:	40023800 	.word	0x40023800
 80054d4:	40023c00 	.word	0x40023c00

080054d8 <TIM_TI1_ConfigInputStage>:
  * @param  TIM_ICFilter Specifies the Input Capture Filter.
  *          This parameter must be a value between 0x00 and 0x0F.
  * @retval None
  */
static void TIM_TI1_ConfigInputStage(TIM_TypeDef *TIMx, uint32_t TIM_ICPolarity, uint32_t TIM_ICFilter)
{
 80054d8:	b410      	push	{r4}
  uint32_t tmpccmr1;
  uint32_t tmpccer;

  /* Disable the Channel 1: Reset the CC1E Bit */
  tmpccer = TIMx->CCER;
 80054da:	6a03      	ldr	r3, [r0, #32]
  TIMx->CCER &= ~TIM_CCER_CC1E;
 80054dc:	6a04      	ldr	r4, [r0, #32]
 80054de:	f024 0401 	bic.w	r4, r4, #1
 80054e2:	6204      	str	r4, [r0, #32]
  tmpccmr1 = TIMx->CCMR1;
 80054e4:	6984      	ldr	r4, [r0, #24]

  /* Set the filter */
  tmpccmr1 &= ~TIM_CCMR1_IC1F;
 80054e6:	f024 0cf0 	bic.w	ip, r4, #240	@ 0xf0
  tmpccmr1 |= (TIM_ICFilter << 4U);
 80054ea:	ea4c 1202 	orr.w	r2, ip, r2, lsl #4

  /* Select the Polarity and set the CC1E Bit */
  tmpccer &= ~(TIM_CCER_CC1P | TIM_CCER_CC1NP);
 80054ee:	f023 030a 	bic.w	r3, r3, #10
  tmpccer |= TIM_ICPolarity;
 80054f2:	430b      	orrs	r3, r1

  /* Write to TIMx CCMR1 and CCER registers */
  TIMx->CCMR1 = tmpccmr1;
 80054f4:	6182      	str	r2, [r0, #24]
  TIMx->CCER = tmpccer;
 80054f6:	6203      	str	r3, [r0, #32]
}
 80054f8:	f85d 4b04 	ldr.w	r4, [sp], #4
 80054fc:	4770      	bx	lr

080054fe <TIM_TI2_ConfigInputStage>:
  * @param  TIM_ICFilter Specifies the Input Capture Filter.
  *          This parameter must be a value between 0x00 and 0x0F.
  * @retval None
  */
static void TIM_TI2_ConfigInputStage(TIM_TypeDef *TIMx, uint32_t TIM_ICPolarity, uint32_t TIM_ICFilter)
{
 80054fe:	b410      	push	{r4}
  uint32_t tmpccmr1;
  uint32_t tmpccer;

  /* Disable the Channel 2: Reset the CC2E Bit */
  tmpccer = TIMx->CCER;
 8005500:	6a03      	ldr	r3, [r0, #32]
  TIMx->CCER &= ~TIM_CCER_CC2E;
 8005502:	6a04      	ldr	r4, [r0, #32]
 8005504:	f024 0410 	bic.w	r4, r4, #16
 8005508:	6204      	str	r4, [r0, #32]
  tmpccmr1 = TIMx->CCMR1;
 800550a:	6984      	ldr	r4, [r0, #24]

  /* Set the filter */
  tmpccmr1 &= ~TIM_CCMR1_IC2F;
 800550c:	f424 4c70 	bic.w	ip, r4, #61440	@ 0xf000
  tmpccmr1 |= (TIM_ICFilter << 12U);
 8005510:	ea4c 3202 	orr.w	r2, ip, r2, lsl #12

  /* Select the Polarity and set the CC2E Bit */
  tmpccer &= ~(TIM_CCER_CC2P | TIM_CCER_CC2NP);
 8005514:	f023 03a0 	bic.w	r3, r3, #160	@ 0xa0
  tmpccer |= (TIM_ICPolarity << 4U);
 8005518:	ea43 1301 	orr.w	r3, r3, r1, lsl #4

  /* Write to TIMx CCMR1 and CCER registers */
  TIMx->CCMR1 = tmpccmr1 ;
 800551c:	6182      	str	r2, [r0, #24]
  TIMx->CCER = tmpccer;
 800551e:	6203      	str	r3, [r0, #32]
}
 8005520:	f85d 4b04 	ldr.w	r4, [sp], #4
 8005524:	4770      	bx	lr

08005526 <TIM_ITRx_SetConfig>:
static void TIM_ITRx_SetConfig(TIM_TypeDef *TIMx, uint32_t InputTriggerSource)
{
  uint32_t tmpsmcr;

  /* Get the TIMx SMCR register value */
  tmpsmcr = TIMx->SMCR;
 8005526:	6883      	ldr	r3, [r0, #8]
  /* Reset the TS Bits */
  tmpsmcr &= ~TIM_SMCR_TS;
 8005528:	f023 0370 	bic.w	r3, r3, #112	@ 0x70
  /* Set the Input Trigger source and the slave mode*/
  tmpsmcr |= (InputTriggerSource | TIM_SLAVEMODE_EXTERNAL1);
 800552c:	430b      	orrs	r3, r1
 800552e:	f043 0307 	orr.w	r3, r3, #7
  /* Write to TIMx SMCR */
  TIMx->SMCR = tmpsmcr;
 8005532:	6083      	str	r3, [r0, #8]
}
 8005534:	4770      	bx	lr
	...

08005538 <HAL_TIM_Base_Start_IT>:
  if (htim->State != HAL_TIM_STATE_READY)
 8005538:	f890 303d 	ldrb.w	r3, [r0, #61]	@ 0x3d
 800553c:	b2db      	uxtb	r3, r3
 800553e:	2b01      	cmp	r3, #1
 8005540:	d12f      	bne.n	80055a2 <HAL_TIM_Base_Start_IT+0x6a>
  htim->State = HAL_TIM_STATE_BUSY;
 8005542:	2302      	movs	r3, #2
 8005544:	f880 303d 	strb.w	r3, [r0, #61]	@ 0x3d
  __HAL_TIM_ENABLE_IT(htim, TIM_IT_UPDATE);
 8005548:	6802      	ldr	r2, [r0, #0]
 800554a:	68d3      	ldr	r3, [r2, #12]
 800554c:	f043 0301 	orr.w	r3, r3, #1
 8005550:	60d3      	str	r3, [r2, #12]
  if (IS_TIM_SLAVE_INSTANCE(htim->Instance))
 8005552:	6803      	ldr	r3, [r0, #0]
 8005554:	4a15      	ldr	r2, [pc, #84]	@ (80055ac <HAL_TIM_Base_Start_IT+0x74>)
 8005556:	4293      	cmp	r3, r2
 8005558:	d018      	beq.n	800558c <HAL_TIM_Base_Start_IT+0x54>
 800555a:	f1b3 4f80 	cmp.w	r3, #1073741824	@ 0x40000000
 800555e:	d015      	beq.n	800558c <HAL_TIM_Base_Start_IT+0x54>
 8005560:	f5a2 427c 	sub.w	r2, r2, #64512	@ 0xfc00
 8005564:	4293      	cmp	r3, r2
 8005566:	d011      	beq.n	800558c <HAL_TIM_Base_Start_IT+0x54>
 8005568:	f502 6280 	add.w	r2, r2, #1024	@ 0x400
 800556c:	4293      	cmp	r3, r2
 800556e:	d00d      	beq.n	800558c <HAL_TIM_Base_Start_IT+0x54>
 8005570:	f502 6280 	add.w	r2, r2, #1024	@ 0x400
 8005574:	4293      	cmp	r3, r2
 8005576:	d009      	beq.n	800558c <HAL_TIM_Base_Start_IT+0x54>
 8005578:	f502 329a 	add.w	r2, r2, #78848	@ 0x13400
 800557c:	4293      	cmp	r3, r2
 800557e:	d005      	beq.n	800558c <HAL_TIM_Base_Start_IT+0x54>
    __HAL_TIM_ENABLE(htim);
 8005580:	681a      	ldr	r2, [r3, #0]
 8005582:	f042 0201 	orr.w	r2, r2, #1
 8005586:	601a      	str	r2, [r3, #0]
  return HAL_OK;
 8005588:	2000      	movs	r0, #0
 800558a:	4770      	bx	lr
    tmpsmcr = htim->Instance->SMCR & TIM_SMCR_SMS;
 800558c:	689a      	ldr	r2, [r3, #8]
 800558e:	f002 0207 	and.w	r2, r2, #7
    if (!IS_TIM_SLAVEMODE_TRIGGER_ENABLED(tmpsmcr))
 8005592:	2a06      	cmp	r2, #6
 8005594:	d007      	beq.n	80055a6 <HAL_TIM_Base_Start_IT+0x6e>
      __HAL_TIM_ENABLE(htim);
 8005596:	681a      	ldr	r2, [r3, #0]
 8005598:	f042 0201 	orr.w	r2, r2, #1
 800559c:	601a      	str	r2, [r3, #0]
  return HAL_OK;
 800559e:	2000      	movs	r0, #0
 80055a0:	4770      	bx	lr
    return HAL_ERROR;
 80055a2:	2001      	movs	r0, #1
 80055a4:	4770      	bx	lr
  return HAL_OK;
 80055a6:	2000      	movs	r0, #0
}
 80055a8:	4770      	bx	lr
 80055aa:	bf00      	nop
 80055ac:	40010000 	.word	0x40010000

080055b0 <HAL_TIM_OC_DelayElapsedCallback>:
}
 80055b0:	4770      	bx	lr

080055b2 <HAL_TIM_IC_CaptureCallback>:
}
 80055b2:	4770      	bx	lr

080055b4 <HAL_TIM_PWM_PulseFinishedCallback>:
}
 80055b4:	4770      	bx	lr

080055b6 <HAL_TIM_TriggerCallback>:
}
 80055b6:	4770      	bx	lr

080055b8 <HAL_TIM_IRQHandler>:
{
 80055b8:	b570      	push	{r4, r5, r6, lr}
 80055ba:	4604      	mov	r4, r0
  uint32_t itsource = htim->Instance->DIER;
 80055bc:	6803      	ldr	r3, [r0, #0]
 80055be:	68de      	ldr	r6, [r3, #12]
  uint32_t itflag   = htim->Instance->SR;
 80055c0:	691d      	ldr	r5, [r3, #16]
  if ((itflag & (TIM_FLAG_CC1)) == (TIM_FLAG_CC1))
 80055c2:	f015 0f02 	tst.w	r5, #2
 80055c6:	d010      	beq.n	80055ea <HAL_TIM_IRQHandler+0x32>
    if ((itsource & (TIM_IT_CC1)) == (TIM_IT_CC1))
 80055c8:	f016 0f02 	tst.w	r6, #2
 80055cc:	d00d      	beq.n	80055ea <HAL_TIM_IRQHandler+0x32>
        __HAL_TIM_CLEAR_FLAG(htim, TIM_FLAG_CC1);
 80055ce:	f06f 0202 	mvn.w	r2, #2
 80055d2:	611a      	str	r2, [r3, #16]
        htim->Channel = HAL_TIM_ACTIVE_CHANNEL_1;
 80055d4:	2301      	movs	r3, #1
 80055d6:	7703      	strb	r3, [r0, #28]
        if ((htim->Instance->CCMR1 & TIM_CCMR1_CC1S) != 0x00U)
 80055d8:	6803      	ldr	r3, [r0, #0]
 80055da:	699b      	ldr	r3, [r3, #24]
 80055dc:	f013 0f03 	tst.w	r3, #3
 80055e0:	d05e      	beq.n	80056a0 <HAL_TIM_IRQHandler+0xe8>
          HAL_TIM_IC_CaptureCallback(htim);
 80055e2:	f7ff ffe6 	bl	80055b2 <HAL_TIM_IC_CaptureCallback>
        htim->Channel = HAL_TIM_ACTIVE_CHANNEL_CLEARED;
 80055e6:	2300      	movs	r3, #0
 80055e8:	7723      	strb	r3, [r4, #28]
  if ((itflag & (TIM_FLAG_CC2)) == (TIM_FLAG_CC2))
 80055ea:	f015 0f04 	tst.w	r5, #4
 80055ee:	d012      	beq.n	8005616 <HAL_TIM_IRQHandler+0x5e>
    if ((itsource & (TIM_IT_CC2)) == (TIM_IT_CC2))
 80055f0:	f016 0f04 	tst.w	r6, #4
 80055f4:	d00f      	beq.n	8005616 <HAL_TIM_IRQHandler+0x5e>
      __HAL_TIM_CLEAR_FLAG(htim, TIM_FLAG_CC2);
 80055f6:	6823      	ldr	r3, [r4, #0]
 80055f8:	f06f 0204 	mvn.w	r2, #4
 80055fc:	611a      	str	r2, [r3, #16]
      htim->Channel = HAL_TIM_ACTIVE_CHANNEL_2;
 80055fe:	2302      	movs	r3, #2
 8005600:	7723      	strb	r3, [r4, #28]
      if ((htim->Instance->CCMR1 & TIM_CCMR1_CC2S) != 0x00U)
 8005602:	6823      	ldr	r3, [r4, #0]
 8005604:	699b      	ldr	r3, [r3, #24]
 8005606:	f413 7f40 	tst.w	r3, #768	@ 0x300
 800560a:	d04f      	beq.n	80056ac <HAL_TIM_IRQHandler+0xf4>
        HAL_TIM_IC_CaptureCallback(htim);
 800560c:	4620      	mov	r0, r4
 800560e:	f7ff ffd0 	bl	80055b2 <HAL_TIM_IC_CaptureCallback>
      htim->Channel = HAL_TIM_ACTIVE_CHANNEL_CLEARED;
 8005612:	2300      	movs	r3, #0
 8005614:	7723      	strb	r3, [r4, #28]
  if ((itflag & (TIM_FLAG_CC3)) == (TIM_FLAG_CC3))
 8005616:	f015 0f08 	tst.w	r5, #8
 800561a:	d012      	beq.n	8005642 <HAL_TIM_IRQHandler+0x8a>
    if ((itsource & (TIM_IT_CC3)) == (TIM_IT_CC3))
 800561c:	f016 0f08 	tst.w	r6, #8
 8005620:	d00f      	beq.n	8005642 <HAL_TIM_IRQHandler+0x8a>
      __HAL_TIM_CLEAR_FLAG(htim, TIM_FLAG_CC3);
 8005622:	6823      	ldr	r3, [r4, #0]
 8005624:	f06f 0208 	mvn.w	r2, #8
 8005628:	611a      	str	r2, [r3, #16]
      htim->Channel = HAL_TIM_ACTIVE_CHANNEL_3;
 800562a:	2304      	movs	r3, #4
 800562c:	7723      	strb	r3, [r4, #28]
      if ((htim->Instance->CCMR2 & TIM_CCMR2_CC3S) != 0x00U)
 800562e:	6823      	ldr	r3, [r4, #0]
 8005630:	69db      	ldr	r3, [r3, #28]
 8005632:	f013 0f03 	tst.w	r3, #3
 8005636:	d040      	beq.n	80056ba <HAL_TIM_IRQHandler+0x102>
        HAL_TIM_IC_CaptureCallback(htim);
 8005638:	4620      	mov	r0, r4
 800563a:	f7ff ffba 	bl	80055b2 <HAL_TIM_IC_CaptureCallback>
      htim->Channel = HAL_TIM_ACTIVE_CHANNEL_CLEARED;
 800563e:	2300      	movs	r3, #0
 8005640:	7723      	strb	r3, [r4, #28]
  if ((itflag & (TIM_FLAG_CC4)) == (TIM_FLAG_CC4))
 8005642:	f015 0f10 	tst.w	r5, #16
 8005646:	d012      	beq.n	800566e <HAL_TIM_IRQHandler+0xb6>
    if ((itsource & (TIM_IT_CC4)) == (TIM_IT_CC4))
 8005648:	f016 0f10 	tst.w	r6, #16
 800564c:	d00f      	beq.n	800566e <HAL_TIM_IRQHandler+0xb6>
      __HAL_TIM_CLEAR_FLAG(htim, TIM_FLAG_CC4);
 800564e:	6823      	ldr	r3, [r4, #0]
 8005650:	f06f 0210 	mvn.w	r2, #16
 8005654:	611a      	str	r2, [r3, #16]
      htim->Channel = HAL_TIM_ACTIVE_CHANNEL_4;
 8005656:	2308      	movs	r3, #8
 8005658:	7723      	strb	r3, [r4, #28]
      if ((htim->Instance->CCMR2 & TIM_CCMR2_CC4S) != 0x00U)
 800565a:	6823      	ldr	r3, [r4, #0]
 800565c:	69db      	ldr	r3, [r3, #28]
 800565e:	f413 7f40 	tst.w	r3, #768	@ 0x300
 8005662:	d031      	beq.n	80056c8 <HAL_TIM_IRQHandler+0x110>
        HAL_TIM_IC_CaptureCallback(htim);
 8005664:	4620      	mov	r0, r4
 8005666:	f7ff ffa4 	bl	80055b2 <HAL_TIM_IC_CaptureCallback>
      htim->Channel = HAL_TIM_ACTIVE_CHANNEL_CLEARED;
 800566a:	2300      	movs	r3, #0
 800566c:	7723      	strb	r3, [r4, #28]
  if ((itflag & (TIM_FLAG_UPDATE)) == (TIM_FLAG_UPDATE))
 800566e:	f015 0f01 	tst.w	r5, #1
 8005672:	d002      	beq.n	800567a <HAL_TIM_IRQHandler+0xc2>
    if ((itsource & (TIM_IT_UPDATE)) == (TIM_IT_UPDATE))
 8005674:	f016 0f01 	tst.w	r6, #1
 8005678:	d12d      	bne.n	80056d6 <HAL_TIM_IRQHandler+0x11e>
  if ((itflag & (TIM_FLAG_BREAK)) == (TIM_FLAG_BREAK))
 800567a:	f015 0f80 	tst.w	r5, #128	@ 0x80
 800567e:	d002      	beq.n	8005686 <HAL_TIM_IRQHandler+0xce>
    if ((itsource & (TIM_IT_BREAK)) == (TIM_IT_BREAK))
 8005680:	f016 0f80 	tst.w	r6, #128	@ 0x80
 8005684:	d12f      	bne.n	80056e6 <HAL_TIM_IRQHandler+0x12e>
  if ((itflag & (TIM_FLAG_TRIGGER)) == (TIM_FLAG_TRIGGER))
 8005686:	f015 0f40 	tst.w	r5, #64	@ 0x40
 800568a:	d002      	beq.n	8005692 <HAL_TIM_IRQHandler+0xda>
    if ((itsource & (TIM_IT_TRIGGER)) == (TIM_IT_TRIGGER))
 800568c:	f016 0f40 	tst.w	r6, #64	@ 0x40
 8005690:	d131      	bne.n	80056f6 <HAL_TIM_IRQHandler+0x13e>
  if ((itflag & (TIM_FLAG_COM)) == (TIM_FLAG_COM))
 8005692:	f015 0f20 	tst.w	r5, #32
 8005696:	d002      	beq.n	800569e <HAL_TIM_IRQHandler+0xe6>
    if ((itsource & (TIM_IT_COM)) == (TIM_IT_COM))
 8005698:	f016 0f20 	tst.w	r6, #32
 800569c:	d133      	bne.n	8005706 <HAL_TIM_IRQHandler+0x14e>
}
 800569e:	bd70      	pop	{r4, r5, r6, pc}
          HAL_TIM_OC_DelayElapsedCallback(htim);
 80056a0:	f7ff ff86 	bl	80055b0 <HAL_TIM_OC_DelayElapsedCallback>
          HAL_TIM_PWM_PulseFinishedCallback(htim);
 80056a4:	4620      	mov	r0, r4
 80056a6:	f7ff ff85 	bl	80055b4 <HAL_TIM_PWM_PulseFinishedCallback>
 80056aa:	e79c      	b.n	80055e6 <HAL_TIM_IRQHandler+0x2e>
        HAL_TIM_OC_DelayElapsedCallback(htim);
 80056ac:	4620      	mov	r0, r4
 80056ae:	f7ff ff7f 	bl	80055b0 <HAL_TIM_OC_DelayElapsedCallback>
        HAL_TIM_PWM_PulseFinishedCallback(htim);
 80056b2:	4620      	mov	r0, r4
 80056b4:	f7ff ff7e 	bl	80055b4 <HAL_TIM_PWM_PulseFinishedCallback>
 80056b8:	e7ab      	b.n	8005612 <HAL_TIM_IRQHandler+0x5a>
        HAL_TIM_OC_DelayElapsedCallback(htim);
 80056ba:	4620      	mov	r0, r4
 80056bc:	f7ff ff78 	bl	80055b0 <HAL_TIM_OC_DelayElapsedCallback>
        HAL_TIM_PWM_PulseFinishedCallback(htim);
 80056c0:	4620      	mov	r0, r4
 80056c2:	f7ff ff77 	bl	80055b4 <HAL_TIM_PWM_PulseFinishedCallback>
 80056c6:	e7ba      	b.n	800563e <HAL_TIM_IRQHandler+0x86>
        HAL_TIM_OC_DelayElapsedCallback(htim);
 80056c8:	4620      	mov	r0, r4
 80056ca:	f7ff ff71 	bl	80055b0 <HAL_TIM_OC_DelayElapsedCallback>
        HAL_TIM_PWM_PulseFinishedCallback(htim);
 80056ce:	4620      	mov	r0, r4
 80056d0:	f7ff ff70 	bl	80055b4 <HAL_TIM_PWM_PulseFinishedCallback>
 80056d4:	e7c9      	b.n	800566a <HAL_TIM_IRQHandler+0xb2>
      __HAL_TIM_CLEAR_FLAG(htim, TIM_FLAG_UPDATE);
 80056d6:	6823      	ldr	r3, [r4, #0]
 80056d8:	f06f 0201 	mvn.w	r2, #1
 80056dc:	611a      	str	r2, [r3, #16]
      HAL_TIM_PeriodElapsedCallback(htim);
 80056de:	4620      	mov	r0, r4
 80056e0:	f7fe fe60 	bl	80043a4 <HAL_TIM_PeriodElapsedCallback>
 80056e4:	e7c9      	b.n	800567a <HAL_TIM_IRQHandler+0xc2>
      __HAL_TIM_CLEAR_FLAG(htim, TIM_FLAG_BREAK);
 80056e6:	6823      	ldr	r3, [r4, #0]
 80056e8:	f06f 0280 	mvn.w	r2, #128	@ 0x80
 80056ec:	611a      	str	r2, [r3, #16]
      HAL_TIMEx_BreakCallback(htim);
 80056ee:	4620      	mov	r0, r4
 80056f0:	f000 f95b 	bl	80059aa <HAL_TIMEx_BreakCallback>
 80056f4:	e7c7      	b.n	8005686 <HAL_TIM_IRQHandler+0xce>
      __HAL_TIM_CLEAR_FLAG(htim, TIM_FLAG_TRIGGER);
 80056f6:	6823      	ldr	r3, [r4, #0]
 80056f8:	f06f 0240 	mvn.w	r2, #64	@ 0x40
 80056fc:	611a      	str	r2, [r3, #16]
      HAL_TIM_TriggerCallback(htim);
 80056fe:	4620      	mov	r0, r4
 8005700:	f7ff ff59 	bl	80055b6 <HAL_TIM_TriggerCallback>
 8005704:	e7c5      	b.n	8005692 <HAL_TIM_IRQHandler+0xda>
      __HAL_TIM_CLEAR_FLAG(htim, TIM_FLAG_COM);
 8005706:	6823      	ldr	r3, [r4, #0]
 8005708:	f06f 0220 	mvn.w	r2, #32
 800570c:	611a      	str	r2, [r3, #16]
      HAL_TIMEx_CommutCallback(htim);
 800570e:	4620      	mov	r0, r4
 8005710:	f000 f94a 	bl	80059a8 <HAL_TIMEx_CommutCallback>
}
 8005714:	e7c3      	b.n	800569e <HAL_TIM_IRQHandler+0xe6>
	...

08005718 <TIM_Base_SetConfig>:
  tmpcr1 = TIMx->CR1;
 8005718:	6803      	ldr	r3, [r0, #0]
  if (IS_TIM_COUNTER_MODE_SELECT_INSTANCE(TIMx))
 800571a:	4a27      	ldr	r2, [pc, #156]	@ (80057b8 <TIM_Base_SetConfig+0xa0>)
 800571c:	4290      	cmp	r0, r2
 800571e:	d00e      	beq.n	800573e <TIM_Base_SetConfig+0x26>
 8005720:	f1b0 4f80 	cmp.w	r0, #1073741824	@ 0x40000000
 8005724:	d00b      	beq.n	800573e <TIM_Base_SetConfig+0x26>
 8005726:	f5a2 427c 	sub.w	r2, r2, #64512	@ 0xfc00
 800572a:	4290      	cmp	r0, r2
 800572c:	d007      	beq.n	800573e <TIM_Base_SetConfig+0x26>
 800572e:	f502 6280 	add.w	r2, r2, #1024	@ 0x400
 8005732:	4290      	cmp	r0, r2
 8005734:	d003      	beq.n	800573e <TIM_Base_SetConfig+0x26>
 8005736:	f502 6280 	add.w	r2, r2, #1024	@ 0x400
 800573a:	4290      	cmp	r0, r2
 800573c:	d103      	bne.n	8005746 <TIM_Base_SetConfig+0x2e>
    tmpcr1 &= ~(TIM_CR1_DIR | TIM_CR1_CMS);
 800573e:	f023 0370 	bic.w	r3, r3, #112	@ 0x70
    tmpcr1 |= Structure->CounterMode;
 8005742:	684a      	ldr	r2, [r1, #4]
 8005744:	4313      	orrs	r3, r2
  if (IS_TIM_CLOCK_DIVISION_INSTANCE(TIMx))
 8005746:	4a1c      	ldr	r2, [pc, #112]	@ (80057b8 <TIM_Base_SetConfig+0xa0>)
 8005748:	4290      	cmp	r0, r2
 800574a:	d01a      	beq.n	8005782 <TIM_Base_SetConfig+0x6a>
 800574c:	f1b0 4f80 	cmp.w	r0, #1073741824	@ 0x40000000
 8005750:	d017      	beq.n	8005782 <TIM_Base_SetConfig+0x6a>
 8005752:	f5a2 427c 	sub.w	r2, r2, #64512	@ 0xfc00
 8005756:	4290      	cmp	r0, r2
 8005758:	d013      	beq.n	8005782 <TIM_Base_SetConfig+0x6a>
 800575a:	f502 6280 	add.w	r2, r2, #1024	@ 0x400
 800575e:	4290      	cmp	r0, r2
 8005760:	d00f      	beq.n	8005782 <TIM_Base_SetConfig+0x6a>
 8005762:	f502 6280 	add.w	r2, r2, #1024	@ 0x400
 8005766:	4290      	cmp	r0, r2
 8005768:	d00b      	beq.n	8005782 <TIM_Base_SetConfig+0x6a>
 800576a:	f502 329a 	add.w	r2, r2, #78848	@ 0x13400
 800576e:	4290      	cmp	r0, r2
 8005770:	d007      	beq.n	8005782 <TIM_Base_SetConfig+0x6a>
 8005772:	f502 6280 	add.w	r2, r2, #1024	@ 0x400
 8005776:	4290      	cmp	r0, r2
 8005778:	d003      	beq.n	8005782 <TIM_Base_SetConfig+0x6a>
 800577a:	f502 6280 	add.w	r2, r2, #1024	@ 0x400
 800577e:	4290      	cmp	r0, r2
 8005780:	d103      	bne.n	800578a <TIM_Base_SetConfig+0x72>
    tmpcr1 &= ~TIM_CR1_CKD;
 8005782:	f423 7340 	bic.w	r3, r3, #768	@ 0x300
    tmpcr1 |= (uint32_t)Structure->ClockDivision;
 8005786:	68ca      	ldr	r2, [r1, #12]
 8005788:	4313      	orrs	r3, r2
  MODIFY_REG(tmpcr1, TIM_CR1_ARPE, Structure->AutoReloadPreload);
 800578a:	f023 0380 	bic.w	r3, r3, #128	@ 0x80
 800578e:	694a      	ldr	r2, [r1, #20]
 8005790:	4313      	orrs	r3, r2
  TIMx->ARR = (uint32_t)Structure->Period ;
 8005792:	688a      	ldr	r2, [r1, #8]
 8005794:	62c2      	str	r2, [r0, #44]	@ 0x2c
  TIMx->PSC = Structure->Prescaler;
 8005796:	680a      	ldr	r2, [r1, #0]
 8005798:	6282      	str	r2, [r0, #40]	@ 0x28
  if (IS_TIM_REPETITION_COUNTER_INSTANCE(TIMx))
 800579a:	4a07      	ldr	r2, [pc, #28]	@ (80057b8 <TIM_Base_SetConfig+0xa0>)
 800579c:	4290      	cmp	r0, r2
 800579e:	d007      	beq.n	80057b0 <TIM_Base_SetConfig+0x98>
  SET_BIT(TIMx->CR1, TIM_CR1_URS);
 80057a0:	6802      	ldr	r2, [r0, #0]
 80057a2:	f042 0204 	orr.w	r2, r2, #4
 80057a6:	6002      	str	r2, [r0, #0]
  TIMx->EGR = TIM_EGR_UG;
 80057a8:	2201      	movs	r2, #1
 80057aa:	6142      	str	r2, [r0, #20]
  TIMx->CR1 = tmpcr1;
 80057ac:	6003      	str	r3, [r0, #0]
}
 80057ae:	4770      	bx	lr
    TIMx->RCR = Structure->RepetitionCounter;
 80057b0:	690a      	ldr	r2, [r1, #16]
 80057b2:	6302      	str	r2, [r0, #48]	@ 0x30
 80057b4:	e7f4      	b.n	80057a0 <TIM_Base_SetConfig+0x88>
 80057b6:	bf00      	nop
 80057b8:	40010000 	.word	0x40010000

080057bc <HAL_TIM_Base_Init>:
  if (htim == NULL)
 80057bc:	b340      	cbz	r0, 8005810 <HAL_TIM_Base_Init+0x54>
{
 80057be:	b510      	push	{r4, lr}
 80057c0:	4604      	mov	r4, r0
  if (htim->State == HAL_TIM_STATE_RESET)
 80057c2:	f890 303d 	ldrb.w	r3, [r0, #61]	@ 0x3d
 80057c6:	b1f3      	cbz	r3, 8005806 <HAL_TIM_Base_Init+0x4a>
  htim->State = HAL_TIM_STATE_BUSY;
 80057c8:	2302      	movs	r3, #2
 80057ca:	f884 303d 	strb.w	r3, [r4, #61]	@ 0x3d
  TIM_Base_SetConfig(htim->Instance, &htim->Init);
 80057ce:	4621      	mov	r1, r4
 80057d0:	f851 0b04 	ldr.w	r0, [r1], #4
 80057d4:	f7ff ffa0 	bl	8005718 <TIM_Base_SetConfig>
  htim->DMABurstState = HAL_DMA_BURST_STATE_READY;
 80057d8:	2301      	movs	r3, #1
 80057da:	f884 3046 	strb.w	r3, [r4, #70]	@ 0x46
  TIM_CHANNEL_STATE_SET_ALL(htim, HAL_TIM_CHANNEL_STATE_READY);
 80057de:	f884 303e 	strb.w	r3, [r4, #62]	@ 0x3e
 80057e2:	f884 303f 	strb.w	r3, [r4, #63]	@ 0x3f
 80057e6:	f884 3040 	strb.w	r3, [r4, #64]	@ 0x40
 80057ea:	f884 3041 	strb.w	r3, [r4, #65]	@ 0x41
  TIM_CHANNEL_N_STATE_SET_ALL(htim, HAL_TIM_CHANNEL_STATE_READY);
 80057ee:	f884 3042 	strb.w	r3, [r4, #66]	@ 0x42
 80057f2:	f884 3043 	strb.w	r3, [r4, #67]	@ 0x43
 80057f6:	f884 3044 	strb.w	r3, [r4, #68]	@ 0x44
 80057fa:	f884 3045 	strb.w	r3, [r4, #69]	@ 0x45
  htim->State = HAL_TIM_STATE_READY;
 80057fe:	f884 303d 	strb.w	r3, [r4, #61]	@ 0x3d
  return HAL_OK;
 8005802:	2000      	movs	r0, #0
}
 8005804:	bd10      	pop	{r4, pc}
    htim->Lock = HAL_UNLOCKED;
 8005806:	f880 303c 	strb.w	r3, [r0, #60]	@ 0x3c
    HAL_TIM_Base_MspInit(htim);
 800580a:	f000 fa79 	bl	8005d00 <HAL_TIM_Base_MspInit>
 800580e:	e7db      	b.n	80057c8 <HAL_TIM_Base_Init+0xc>
    return HAL_ERROR;
 8005810:	2001      	movs	r0, #1
}
 8005812:	4770      	bx	lr

08005814 <TIM_ETR_SetConfig>:
  *          This parameter must be a value between 0x00 and 0x0F
  * @retval None
  */
void TIM_ETR_SetConfig(TIM_TypeDef *TIMx, uint32_t TIM_ExtTRGPrescaler,
                       uint32_t TIM_ExtTRGPolarity, uint32_t ExtTRGFilter)
{
 8005814:	b410      	push	{r4}
  uint32_t tmpsmcr;

  tmpsmcr = TIMx->SMCR;
 8005816:	6884      	ldr	r4, [r0, #8]

  /* Reset the ETR Bits */
  tmpsmcr &= ~(TIM_SMCR_ETF | TIM_SMCR_ETPS | TIM_SMCR_ECE | TIM_SMCR_ETP);
 8005818:	f424 4c7f 	bic.w	ip, r4, #65280	@ 0xff00

  /* Set the Prescaler, the Filter value and the Polarity */
  tmpsmcr |= (uint32_t)(TIM_ExtTRGPrescaler | (TIM_ExtTRGPolarity | (ExtTRGFilter << 8U)));
 800581c:	ea42 2203 	orr.w	r2, r2, r3, lsl #8
 8005820:	430a      	orrs	r2, r1
 8005822:	ea42 020c 	orr.w	r2, r2, ip

  /* Write to TIMx SMCR */
  TIMx->SMCR = tmpsmcr;
 8005826:	6082      	str	r2, [r0, #8]
}
 8005828:	f85d 4b04 	ldr.w	r4, [sp], #4
 800582c:	4770      	bx	lr

0800582e <HAL_TIM_ConfigClockSource>:
  __HAL_LOCK(htim);
 800582e:	f890 303c 	ldrb.w	r3, [r0, #60]	@ 0x3c
 8005832:	2b01      	cmp	r3, #1
 8005834:	d078      	beq.n	8005928 <HAL_TIM_ConfigClockSource+0xfa>
{
 8005836:	b510      	push	{r4, lr}
 8005838:	4604      	mov	r4, r0
  __HAL_LOCK(htim);
 800583a:	2301      	movs	r3, #1
 800583c:	f880 303c 	strb.w	r3, [r0, #60]	@ 0x3c
  htim->State = HAL_TIM_STATE_BUSY;
 8005840:	2302      	movs	r3, #2
 8005842:	f880 303d 	strb.w	r3, [r0, #61]	@ 0x3d
  tmpsmcr = htim->Instance->SMCR;
 8005846:	6802      	ldr	r2, [r0, #0]
 8005848:	6893      	ldr	r3, [r2, #8]
  tmpsmcr &= ~(TIM_SMCR_ETF | TIM_SMCR_ETPS | TIM_SMCR_ECE | TIM_SMCR_ETP);
 800584a:	f423 437f 	bic.w	r3, r3, #65280	@ 0xff00
 800584e:	f023 0377 	bic.w	r3, r3, #119	@ 0x77
  htim->Instance->SMCR = tmpsmcr;
 8005852:	6093      	str	r3, [r2, #8]
  switch (sClockSourceConfig->ClockSource)
 8005854:	680b      	ldr	r3, [r1, #0]
 8005856:	2b60      	cmp	r3, #96	@ 0x60
 8005858:	d04c      	beq.n	80058f4 <HAL_TIM_ConfigClockSource+0xc6>
 800585a:	d829      	bhi.n	80058b0 <HAL_TIM_ConfigClockSource+0x82>
 800585c:	2b40      	cmp	r3, #64	@ 0x40
 800585e:	d054      	beq.n	800590a <HAL_TIM_ConfigClockSource+0xdc>
 8005860:	d90c      	bls.n	800587c <HAL_TIM_ConfigClockSource+0x4e>
 8005862:	2b50      	cmp	r3, #80	@ 0x50
 8005864:	d122      	bne.n	80058ac <HAL_TIM_ConfigClockSource+0x7e>
      TIM_TI1_ConfigInputStage(htim->Instance,
 8005866:	68ca      	ldr	r2, [r1, #12]
 8005868:	6849      	ldr	r1, [r1, #4]
 800586a:	6800      	ldr	r0, [r0, #0]
 800586c:	f7ff fe34 	bl	80054d8 <TIM_TI1_ConfigInputStage>
      TIM_ITRx_SetConfig(htim->Instance, TIM_CLOCKSOURCE_TI1);
 8005870:	2150      	movs	r1, #80	@ 0x50
 8005872:	6820      	ldr	r0, [r4, #0]
 8005874:	f7ff fe57 	bl	8005526 <TIM_ITRx_SetConfig>
  HAL_StatusTypeDef status = HAL_OK;
 8005878:	2000      	movs	r0, #0
      break;
 800587a:	e005      	b.n	8005888 <HAL_TIM_ConfigClockSource+0x5a>
  switch (sClockSourceConfig->ClockSource)
 800587c:	2b20      	cmp	r3, #32
 800587e:	d00d      	beq.n	800589c <HAL_TIM_ConfigClockSource+0x6e>
 8005880:	d909      	bls.n	8005896 <HAL_TIM_ConfigClockSource+0x68>
 8005882:	2b30      	cmp	r3, #48	@ 0x30
 8005884:	d00a      	beq.n	800589c <HAL_TIM_ConfigClockSource+0x6e>
      status = HAL_ERROR;
 8005886:	2001      	movs	r0, #1
  htim->State = HAL_TIM_STATE_READY;
 8005888:	2301      	movs	r3, #1
 800588a:	f884 303d 	strb.w	r3, [r4, #61]	@ 0x3d
  __HAL_UNLOCK(htim);
 800588e:	2300      	movs	r3, #0
 8005890:	f884 303c 	strb.w	r3, [r4, #60]	@ 0x3c
}
 8005894:	bd10      	pop	{r4, pc}
  switch (sClockSourceConfig->ClockSource)
 8005896:	b10b      	cbz	r3, 800589c <HAL_TIM_ConfigClockSource+0x6e>
 8005898:	2b10      	cmp	r3, #16
 800589a:	d105      	bne.n	80058a8 <HAL_TIM_ConfigClockSource+0x7a>
      TIM_ITRx_SetConfig(htim->Instance, sClockSourceConfig->ClockSource);
 800589c:	4619      	mov	r1, r3
 800589e:	6820      	ldr	r0, [r4, #0]
 80058a0:	f7ff fe41 	bl	8005526 <TIM_ITRx_SetConfig>
  HAL_StatusTypeDef status = HAL_OK;
 80058a4:	2000      	movs	r0, #0
      break;
 80058a6:	e7ef      	b.n	8005888 <HAL_TIM_ConfigClockSource+0x5a>
      status = HAL_ERROR;
 80058a8:	2001      	movs	r0, #1
 80058aa:	e7ed      	b.n	8005888 <HAL_TIM_ConfigClockSource+0x5a>
 80058ac:	2001      	movs	r0, #1
 80058ae:	e7eb      	b.n	8005888 <HAL_TIM_ConfigClockSource+0x5a>
  switch (sClockSourceConfig->ClockSource)
 80058b0:	f5b3 5f80 	cmp.w	r3, #4096	@ 0x1000
 80058b4:	d034      	beq.n	8005920 <HAL_TIM_ConfigClockSource+0xf2>
 80058b6:	f5b3 5f00 	cmp.w	r3, #8192	@ 0x2000
 80058ba:	d10c      	bne.n	80058d6 <HAL_TIM_ConfigClockSource+0xa8>
      TIM_ETR_SetConfig(htim->Instance,
 80058bc:	68cb      	ldr	r3, [r1, #12]
 80058be:	684a      	ldr	r2, [r1, #4]
 80058c0:	6889      	ldr	r1, [r1, #8]
 80058c2:	6800      	ldr	r0, [r0, #0]
 80058c4:	f7ff ffa6 	bl	8005814 <TIM_ETR_SetConfig>
      htim->Instance->SMCR |= TIM_SMCR_ECE;
 80058c8:	6822      	ldr	r2, [r4, #0]
 80058ca:	6893      	ldr	r3, [r2, #8]
 80058cc:	f443 4380 	orr.w	r3, r3, #16384	@ 0x4000
 80058d0:	6093      	str	r3, [r2, #8]
  HAL_StatusTypeDef status = HAL_OK;
 80058d2:	2000      	movs	r0, #0
      break;
 80058d4:	e7d8      	b.n	8005888 <HAL_TIM_ConfigClockSource+0x5a>
  switch (sClockSourceConfig->ClockSource)
 80058d6:	2b70      	cmp	r3, #112	@ 0x70
 80058d8:	d124      	bne.n	8005924 <HAL_TIM_ConfigClockSource+0xf6>
      TIM_ETR_SetConfig(htim->Instance,
 80058da:	68cb      	ldr	r3, [r1, #12]
 80058dc:	684a      	ldr	r2, [r1, #4]
 80058de:	6889      	ldr	r1, [r1, #8]
 80058e0:	6800      	ldr	r0, [r0, #0]
 80058e2:	f7ff ff97 	bl	8005814 <TIM_ETR_SetConfig>
      tmpsmcr = htim->Instance->SMCR;
 80058e6:	6822      	ldr	r2, [r4, #0]
 80058e8:	6893      	ldr	r3, [r2, #8]
      tmpsmcr |= (TIM_SLAVEMODE_EXTERNAL1 | TIM_CLOCKSOURCE_ETRMODE1);
 80058ea:	f043 0377 	orr.w	r3, r3, #119	@ 0x77
      htim->Instance->SMCR = tmpsmcr;
 80058ee:	6093      	str	r3, [r2, #8]
  HAL_StatusTypeDef status = HAL_OK;
 80058f0:	2000      	movs	r0, #0
      break;
 80058f2:	e7c9      	b.n	8005888 <HAL_TIM_ConfigClockSource+0x5a>
      TIM_TI2_ConfigInputStage(htim->Instance,
 80058f4:	68ca      	ldr	r2, [r1, #12]
 80058f6:	6849      	ldr	r1, [r1, #4]
 80058f8:	6800      	ldr	r0, [r0, #0]
 80058fa:	f7ff fe00 	bl	80054fe <TIM_TI2_ConfigInputStage>
      TIM_ITRx_SetConfig(htim->Instance, TIM_CLOCKSOURCE_TI2);
 80058fe:	2160      	movs	r1, #96	@ 0x60
 8005900:	6820      	ldr	r0, [r4, #0]
 8005902:	f7ff fe10 	bl	8005526 <TIM_ITRx_SetConfig>
  HAL_StatusTypeDef status = HAL_OK;
 8005906:	2000      	movs	r0, #0
      break;
 8005908:	e7be      	b.n	8005888 <HAL_TIM_ConfigClockSource+0x5a>
      TIM_TI1_ConfigInputStage(htim->Instance,
 800590a:	68ca      	ldr	r2, [r1, #12]
 800590c:	6849      	ldr	r1, [r1, #4]
 800590e:	6800      	ldr	r0, [r0, #0]
 8005910:	f7ff fde2 	bl	80054d8 <TIM_TI1_ConfigInputStage>
      TIM_ITRx_SetConfig(htim->Instance, TIM_CLOCKSOURCE_TI1ED);
 8005914:	2140      	movs	r1, #64	@ 0x40
 8005916:	6820      	ldr	r0, [r4, #0]
 8005918:	f7ff fe05 	bl	8005526 <TIM_ITRx_SetConfig>
  HAL_StatusTypeDef status = HAL_OK;
 800591c:	2000      	movs	r0, #0
      break;
 800591e:	e7b3      	b.n	8005888 <HAL_TIM_ConfigClockSource+0x5a>
  switch (sClockSourceConfig->ClockSource)
 8005920:	2000      	movs	r0, #0
 8005922:	e7b1      	b.n	8005888 <HAL_TIM_ConfigClockSource+0x5a>
      status = HAL_ERROR;
 8005924:	2001      	movs	r0, #1
 8005926:	e7af      	b.n	8005888 <HAL_TIM_ConfigClockSource+0x5a>
  __HAL_LOCK(htim);
 8005928:	2002      	movs	r0, #2
}
 800592a:	4770      	bx	lr

0800592c <HAL_TIMEx_MasterConfigSynchronization>:
  assert_param(IS_TIM_MASTER_INSTANCE(htim->Instance));
  assert_param(IS_TIM_TRGO_SOURCE(sMasterConfig->MasterOutputTrigger));
  assert_param(IS_TIM_MSM_STATE(sMasterConfig->MasterSlaveMode));

  /* Check input state */
  __HAL_LOCK(htim);
 800592c:	f890 203c 	ldrb.w	r2, [r0, #60]	@ 0x3c
 8005930:	2a01      	cmp	r2, #1
 8005932:	d035      	beq.n	80059a0 <HAL_TIMEx_MasterConfigSynchronization+0x74>
{
 8005934:	b410      	push	{r4}
 8005936:	4603      	mov	r3, r0
  __HAL_LOCK(htim);
 8005938:	2201      	movs	r2, #1
 800593a:	f880 203c 	strb.w	r2, [r0, #60]	@ 0x3c

  /* Change the handler state */
  htim->State = HAL_TIM_STATE_BUSY;
 800593e:	2202      	movs	r2, #2
 8005940:	f880 203d 	strb.w	r2, [r0, #61]	@ 0x3d

  /* Get the TIMx CR2 register value */
  tmpcr2 = htim->Instance->CR2;
 8005944:	6802      	ldr	r2, [r0, #0]
 8005946:	6850      	ldr	r0, [r2, #4]

  /* Get the TIMx SMCR register value */
  tmpsmcr = htim->Instance->SMCR;
 8005948:	6894      	ldr	r4, [r2, #8]

  /* Reset the MMS Bits */
  tmpcr2 &= ~TIM_CR2_MMS;
 800594a:	f020 0c70 	bic.w	ip, r0, #112	@ 0x70
  /* Select the TRGO source */
  tmpcr2 |=  sMasterConfig->MasterOutputTrigger;
 800594e:	6808      	ldr	r0, [r1, #0]
 8005950:	ea40 000c 	orr.w	r0, r0, ip

  /* Update TIMx CR2 */
  htim->Instance->CR2 = tmpcr2;
 8005954:	6050      	str	r0, [r2, #4]

  if (IS_TIM_SLAVE_INSTANCE(htim->Instance))
 8005956:	681a      	ldr	r2, [r3, #0]
 8005958:	4812      	ldr	r0, [pc, #72]	@ (80059a4 <HAL_TIMEx_MasterConfigSynchronization+0x78>)
 800595a:	4282      	cmp	r2, r0
 800595c:	d012      	beq.n	8005984 <HAL_TIMEx_MasterConfigSynchronization+0x58>
 800595e:	f1b2 4f80 	cmp.w	r2, #1073741824	@ 0x40000000
 8005962:	d00f      	beq.n	8005984 <HAL_TIMEx_MasterConfigSynchronization+0x58>
 8005964:	f5a0 407c 	sub.w	r0, r0, #64512	@ 0xfc00
 8005968:	4282      	cmp	r2, r0
 800596a:	d00b      	beq.n	8005984 <HAL_TIMEx_MasterConfigSynchronization+0x58>
 800596c:	f500 6080 	add.w	r0, r0, #1024	@ 0x400
 8005970:	4282      	cmp	r2, r0
 8005972:	d007      	beq.n	8005984 <HAL_TIMEx_MasterConfigSynchronization+0x58>
 8005974:	f500 6080 	add.w	r0, r0, #1024	@ 0x400
 8005978:	4282      	cmp	r2, r0
 800597a:	d003      	beq.n	8005984 <HAL_TIMEx_MasterConfigSynchronization+0x58>
 800597c:	f500 309a 	add.w	r0, r0, #78848	@ 0x13400
 8005980:	4282      	cmp	r2, r0
 8005982:	d104      	bne.n	800598e <HAL_TIMEx_MasterConfigSynchronization+0x62>
  {
    /* Reset the MSM Bit */
    tmpsmcr &= ~TIM_SMCR_MSM;
 8005984:	f024 0480 	bic.w	r4, r4, #128	@ 0x80
    /* Set master mode */
    tmpsmcr |= sMasterConfig->MasterSlaveMode;
 8005988:	6849      	ldr	r1, [r1, #4]
 800598a:	4321      	orrs	r1, r4

    /* Update TIMx SMCR */
    htim->Instance->SMCR = tmpsmcr;
 800598c:	6091      	str	r1, [r2, #8]
  }

  /* Change the htim state */
  htim->State = HAL_TIM_STATE_READY;
 800598e:	2201      	movs	r2, #1
 8005990:	f883 203d 	strb.w	r2, [r3, #61]	@ 0x3d

  __HAL_UNLOCK(htim);
 8005994:	2000      	movs	r0, #0
 8005996:	f883 003c 	strb.w	r0, [r3, #60]	@ 0x3c

  return HAL_OK;
}
 800599a:	f85d 4b04 	ldr.w	r4, [sp], #4
 800599e:	4770      	bx	lr
  __HAL_LOCK(htim);
 80059a0:	2002      	movs	r0, #2
}
 80059a2:	4770      	bx	lr
 80059a4:	40010000 	.word	0x40010000

080059a8 <HAL_TIMEx_CommutCallback>:
  UNUSED(htim);

  /* NOTE : This function should not be modified, when the callback is needed,
            the HAL_TIMEx_CommutCallback could be implemented in the user file
   */
}
 80059a8:	4770      	bx	lr

080059aa <HAL_TIMEx_BreakCallback>:
  UNUSED(htim);

  /* NOTE : This function should not be modified, when the callback is needed,
            the HAL_TIMEx_BreakCallback could be implemented in the user file
   */
}
 80059aa:	4770      	bx	lr

080059ac <HAL_InitTick>:
  *         reset by HAL_Init() or at any time when clock is configured, by HAL_RCC_ClockConfig().
  * @param  TickPriority: Tick interrupt priority.
  * @retval HAL status
  */
HAL_StatusTypeDef HAL_InitTick(uint32_t TickPriority)
{
 80059ac:	b530      	push	{r4, r5, lr}
 80059ae:	b089      	sub	sp, #36	@ 0x24
 80059b0:	4605      	mov	r5, r0
  uint32_t              pFLatency;

  HAL_StatusTypeDef     status;

  /* Enable TIM1 clock */
  __HAL_RCC_TIM1_CLK_ENABLE();
 80059b2:	2400      	movs	r4, #0
 80059b4:	9401      	str	r4, [sp, #4]
 80059b6:	4b1d      	ldr	r3, [pc, #116]	@ (8005a2c <HAL_InitTick+0x80>)
 80059b8:	6c5a      	ldr	r2, [r3, #68]	@ 0x44
 80059ba:	f042 0201 	orr.w	r2, r2, #1
 80059be:	645a      	str	r2, [r3, #68]	@ 0x44
 80059c0:	6c5b      	ldr	r3, [r3, #68]	@ 0x44
 80059c2:	f003 0301 	and.w	r3, r3, #1
 80059c6:	9301      	str	r3, [sp, #4]
 80059c8:	9b01      	ldr	r3, [sp, #4]

  /* Get clock configuration */
  HAL_RCC_GetClockConfig(&clkconfig, &pFLatency);
 80059ca:	a902      	add	r1, sp, #8
 80059cc:	a803      	add	r0, sp, #12
 80059ce:	f7ff fd65 	bl	800549c <HAL_RCC_GetClockConfig>

  /* Compute TIM1 clock */
      uwTimclock = HAL_RCC_GetPCLK2Freq();
 80059d2:	f7ff fd53 	bl	800547c <HAL_RCC_GetPCLK2Freq>

  /* Compute the prescaler value to have TIM1 counter clock equal to 1MHz */
  uwPrescalerValue = (uint32_t) ((uwTimclock / 1000000U) - 1U);
 80059d6:	4a16      	ldr	r2, [pc, #88]	@ (8005a30 <HAL_InitTick+0x84>)
 80059d8:	fba2 2300 	umull	r2, r3, r2, r0
 80059dc:	0c9b      	lsrs	r3, r3, #18
 80059de:	3b01      	subs	r3, #1

  /* Initialize TIM1 */
  htim1.Instance = TIM1;
 80059e0:	4814      	ldr	r0, [pc, #80]	@ (8005a34 <HAL_InitTick+0x88>)
 80059e2:	4a15      	ldr	r2, [pc, #84]	@ (8005a38 <HAL_InitTick+0x8c>)
 80059e4:	6002      	str	r2, [r0, #0]
   * Period = [(TIM1CLK/1000) - 1]. to have a (1/1000) s time base.
   * Prescaler = (uwTimclock/1000000 - 1) to have a 1MHz counter clock.
   * ClockDivision = 0
   * Counter direction = Up
   */
  htim1.Init.Period = (1000000U / 1000U) - 1U;
 80059e6:	f240 32e7 	movw	r2, #999	@ 0x3e7
 80059ea:	60c2      	str	r2, [r0, #12]
  htim1.Init.Prescaler = uwPrescalerValue;
 80059ec:	6043      	str	r3, [r0, #4]
  htim1.Init.ClockDivision = 0;
 80059ee:	6104      	str	r4, [r0, #16]
  htim1.Init.CounterMode = TIM_COUNTERMODE_UP;
 80059f0:	6084      	str	r4, [r0, #8]
  htim1.Init.AutoReloadPreload = TIM_AUTORELOAD_PRELOAD_DISABLE;
 80059f2:	6184      	str	r4, [r0, #24]

  status = HAL_TIM_Base_Init(&htim1);
 80059f4:	f7ff fee2 	bl	80057bc <HAL_TIM_Base_Init>
  if (status == HAL_OK)
 80059f8:	4604      	mov	r4, r0
 80059fa:	b110      	cbz	r0, 8005a02 <HAL_InitTick+0x56>
    }
  }

 /* Return function status */
  return status;
}
 80059fc:	4620      	mov	r0, r4
 80059fe:	b009      	add	sp, #36	@ 0x24
 8005a00:	bd30      	pop	{r4, r5, pc}
    status = HAL_TIM_Base_Start_IT(&htim1);
 8005a02:	480c      	ldr	r0, [pc, #48]	@ (8005a34 <HAL_InitTick+0x88>)
 8005a04:	f7ff fd98 	bl	8005538 <HAL_TIM_Base_Start_IT>
    if (status == HAL_OK)
 8005a08:	4604      	mov	r4, r0
 8005a0a:	2800      	cmp	r0, #0
 8005a0c:	d1f6      	bne.n	80059fc <HAL_InitTick+0x50>
        HAL_NVIC_EnableIRQ(TIM1_UP_TIM10_IRQn);
 8005a0e:	2019      	movs	r0, #25
 8005a10:	f7ff f8b6 	bl	8004b80 <HAL_NVIC_EnableIRQ>
      if (TickPriority < (1UL << __NVIC_PRIO_BITS))
 8005a14:	2d0f      	cmp	r5, #15
 8005a16:	d901      	bls.n	8005a1c <HAL_InitTick+0x70>
        status = HAL_ERROR;
 8005a18:	2401      	movs	r4, #1
 8005a1a:	e7ef      	b.n	80059fc <HAL_InitTick+0x50>
        HAL_NVIC_SetPriority(TIM1_UP_TIM10_IRQn, TickPriority, 0U);
 8005a1c:	2200      	movs	r2, #0
 8005a1e:	4629      	mov	r1, r5
 8005a20:	2019      	movs	r0, #25
 8005a22:	f7ff f89d 	bl	8004b60 <HAL_NVIC_SetPriority>
        uwTickPrio = TickPriority;
 8005a26:	4b05      	ldr	r3, [pc, #20]	@ (8005a3c <HAL_InitTick+0x90>)
 8005a28:	601d      	str	r5, [r3, #0]
 8005a2a:	e7e7      	b.n	80059fc <HAL_InitTick+0x50>
 8005a2c:	40023800 	.word	0x40023800
 8005a30:	431bde83 	.word	0x431bde83
 8005a34:	2000180c 	.word	0x2000180c
 8005a38:	40010000 	.word	0x40010000
 8005a3c:	200001f4 	.word	0x200001f4

08005a40 <UART_SetConfig>:
  * @param  huart  Pointer to a UART_HandleTypeDef structure that contains
  *                the configuration information for the specified UART module.
  * @retval None
  */
static void UART_SetConfig(UART_HandleTypeDef *huart)
{
 8005a40:	b510      	push	{r4, lr}
 8005a42:	4604      	mov	r4, r0
  assert_param(IS_UART_MODE(huart->Init.Mode));

  /*-------------------------- USART CR2 Configuration -----------------------*/
  /* Configure the UART Stop Bits: Set STOP[13:12] bits
     according to huart->Init.StopBits value */
  MODIFY_REG(huart->Instance->CR2, USART_CR2_STOP, huart->Init.StopBits);
 8005a44:	6802      	ldr	r2, [r0, #0]
 8005a46:	6913      	ldr	r3, [r2, #16]
 8005a48:	f423 5340 	bic.w	r3, r3, #12288	@ 0x3000
 8005a4c:	68c1      	ldr	r1, [r0, #12]
 8005a4e:	430b      	orrs	r3, r1
 8005a50:	6113      	str	r3, [r2, #16]
     Set the M bits according to huart->Init.WordLength value
     Set PCE and PS bits according to huart->Init.Parity value
     Set TE and RE bits according to huart->Init.Mode value
     Set OVER8 bit according to huart->Init.OverSampling value */

  tmpreg = (uint32_t)huart->Init.WordLength | huart->Init.Parity | huart->Init.Mode | huart->Init.OverSampling;
 8005a52:	6883      	ldr	r3, [r0, #8]
 8005a54:	6902      	ldr	r2, [r0, #16]
 8005a56:	431a      	orrs	r2, r3
 8005a58:	6943      	ldr	r3, [r0, #20]
 8005a5a:	431a      	orrs	r2, r3
 8005a5c:	69c3      	ldr	r3, [r0, #28]
 8005a5e:	431a      	orrs	r2, r3
  MODIFY_REG(huart->Instance->CR1,
 8005a60:	6801      	ldr	r1, [r0, #0]
 8005a62:	68cb      	ldr	r3, [r1, #12]
 8005a64:	f423 4316 	bic.w	r3, r3, #38400	@ 0x9600
 8005a68:	f023 030c 	bic.w	r3, r3, #12
 8005a6c:	4313      	orrs	r3, r2
 8005a6e:	60cb      	str	r3, [r1, #12]
             (uint32_t)(USART_CR1_M | USART_CR1_PCE | USART_CR1_PS | USART_CR1_TE | USART_CR1_RE | USART_CR1_OVER8),
             tmpreg);

  /*-------------------------- USART CR3 Configuration -----------------------*/
  /* Configure the UART HFC: Set CTSE and RTSE bits according to huart->Init.HwFlowCtl value */
  MODIFY_REG(huart->Instance->CR3, (USART_CR3_RTSE | USART_CR3_CTSE), huart->Init.HwFlowCtl);
 8005a70:	6802      	ldr	r2, [r0, #0]
 8005a72:	6953      	ldr	r3, [r2, #20]
 8005a74:	f423 7340 	bic.w	r3, r3, #768	@ 0x300
 8005a78:	6981      	ldr	r1, [r0, #24]
 8005a7a:	430b      	orrs	r3, r1
 8005a7c:	6153      	str	r3, [r2, #20]
    if ((huart->Instance == USART1) || (huart->Instance == USART6) || (huart->Instance == UART9) || (huart->Instance == UART10))
    {
      pclk = HAL_RCC_GetPCLK2Freq();
    }
#elif defined(USART6)
    if ((huart->Instance == USART1) || (huart->Instance == USART6))
 8005a7e:	6803      	ldr	r3, [r0, #0]
 8005a80:	4a31      	ldr	r2, [pc, #196]	@ (8005b48 <UART_SetConfig+0x108>)
 8005a82:	4293      	cmp	r3, r2
 8005a84:	d006      	beq.n	8005a94 <UART_SetConfig+0x54>
 8005a86:	f502 6280 	add.w	r2, r2, #1024	@ 0x400
 8005a8a:	4293      	cmp	r3, r2
 8005a8c:	d002      	beq.n	8005a94 <UART_SetConfig+0x54>
      pclk = HAL_RCC_GetPCLK2Freq();
    }
#endif /* USART6 */
    else
    {
      pclk = HAL_RCC_GetPCLK1Freq();
 8005a8e:	f7ff fce5 	bl	800545c <HAL_RCC_GetPCLK1Freq>
 8005a92:	e001      	b.n	8005a98 <UART_SetConfig+0x58>
      pclk = HAL_RCC_GetPCLK2Freq();
 8005a94:	f7ff fcf2 	bl	800547c <HAL_RCC_GetPCLK2Freq>
    }
  /*-------------------------- USART BRR Configuration ---------------------*/
  if (huart->Init.OverSampling == UART_OVERSAMPLING_8)
 8005a98:	69e3      	ldr	r3, [r4, #28]
 8005a9a:	f5b3 4f00 	cmp.w	r3, #32768	@ 0x8000
 8005a9e:	d029      	beq.n	8005af4 <UART_SetConfig+0xb4>
  {
    huart->Instance->BRR = UART_BRR_SAMPLING8(pclk, huart->Init.BaudRate);
  }
  else
  {
    huart->Instance->BRR = UART_BRR_SAMPLING16(pclk, huart->Init.BaudRate);
 8005aa0:	2100      	movs	r1, #0
 8005aa2:	1803      	adds	r3, r0, r0
 8005aa4:	4149      	adcs	r1, r1
 8005aa6:	181b      	adds	r3, r3, r0
 8005aa8:	f141 0100 	adc.w	r1, r1, #0
 8005aac:	00c9      	lsls	r1, r1, #3
 8005aae:	ea41 7153 	orr.w	r1, r1, r3, lsr #29
 8005ab2:	00db      	lsls	r3, r3, #3
 8005ab4:	1818      	adds	r0, r3, r0
 8005ab6:	6863      	ldr	r3, [r4, #4]
 8005ab8:	ea4f 0283 	mov.w	r2, r3, lsl #2
 8005abc:	ea4f 7393 	mov.w	r3, r3, lsr #30
 8005ac0:	f141 0100 	adc.w	r1, r1, #0
 8005ac4:	f7fe f97a 	bl	8003dbc <__aeabi_uldivmod>
 8005ac8:	4a20      	ldr	r2, [pc, #128]	@ (8005b4c <UART_SetConfig+0x10c>)
 8005aca:	fba2 3100 	umull	r3, r1, r2, r0
 8005ace:	0949      	lsrs	r1, r1, #5
 8005ad0:	2364      	movs	r3, #100	@ 0x64
 8005ad2:	fb03 0311 	mls	r3, r3, r1, r0
 8005ad6:	011b      	lsls	r3, r3, #4
 8005ad8:	3332      	adds	r3, #50	@ 0x32
 8005ada:	fba2 2303 	umull	r2, r3, r2, r3
 8005ade:	095b      	lsrs	r3, r3, #5
 8005ae0:	f003 02f0 	and.w	r2, r3, #240	@ 0xf0
 8005ae4:	eb02 1201 	add.w	r2, r2, r1, lsl #4
 8005ae8:	f003 030f 	and.w	r3, r3, #15
 8005aec:	6821      	ldr	r1, [r4, #0]
 8005aee:	4413      	add	r3, r2
 8005af0:	608b      	str	r3, [r1, #8]
  }
}
 8005af2:	bd10      	pop	{r4, pc}
    huart->Instance->BRR = UART_BRR_SAMPLING8(pclk, huart->Init.BaudRate);
 8005af4:	2300      	movs	r3, #0
 8005af6:	1802      	adds	r2, r0, r0
 8005af8:	eb43 0103 	adc.w	r1, r3, r3
 8005afc:	1812      	adds	r2, r2, r0
 8005afe:	f141 0100 	adc.w	r1, r1, #0
 8005b02:	00c9      	lsls	r1, r1, #3
 8005b04:	ea41 7152 	orr.w	r1, r1, r2, lsr #29
 8005b08:	00d2      	lsls	r2, r2, #3
 8005b0a:	1810      	adds	r0, r2, r0
 8005b0c:	f141 0100 	adc.w	r1, r1, #0
 8005b10:	6862      	ldr	r2, [r4, #4]
 8005b12:	1892      	adds	r2, r2, r2
 8005b14:	415b      	adcs	r3, r3
 8005b16:	f7fe f951 	bl	8003dbc <__aeabi_uldivmod>
 8005b1a:	4a0c      	ldr	r2, [pc, #48]	@ (8005b4c <UART_SetConfig+0x10c>)
 8005b1c:	fba2 3100 	umull	r3, r1, r2, r0
 8005b20:	0949      	lsrs	r1, r1, #5
 8005b22:	2364      	movs	r3, #100	@ 0x64
 8005b24:	fb03 0311 	mls	r3, r3, r1, r0
 8005b28:	00db      	lsls	r3, r3, #3
 8005b2a:	3332      	adds	r3, #50	@ 0x32
 8005b2c:	fba2 2303 	umull	r2, r3, r2, r3
 8005b30:	095b      	lsrs	r3, r3, #5
 8005b32:	005a      	lsls	r2, r3, #1
 8005b34:	f402 72f8 	and.w	r2, r2, #496	@ 0x1f0
 8005b38:	eb02 1201 	add.w	r2, r2, r1, lsl #4
 8005b3c:	f003 0307 	and.w	r3, r3, #7
 8005b40:	6821      	ldr	r1, [r4, #0]
 8005b42:	4413      	add	r3, r2
 8005b44:	608b      	str	r3, [r1, #8]
 8005b46:	e7d4      	b.n	8005af2 <UART_SetConfig+0xb2>
 8005b48:	40011000 	.word	0x40011000
 8005b4c:	51eb851f 	.word	0x51eb851f

08005b50 <HAL_UART_Init>:
  if (huart == NULL)
 8005b50:	b360      	cbz	r0, 8005bac <HAL_UART_Init+0x5c>
{
 8005b52:	b510      	push	{r4, lr}
 8005b54:	4604      	mov	r4, r0
  if (huart->gState == HAL_UART_STATE_RESET)
 8005b56:	f890 3041 	ldrb.w	r3, [r0, #65]	@ 0x41
 8005b5a:	b313      	cbz	r3, 8005ba2 <HAL_UART_Init+0x52>
  huart->gState = HAL_UART_STATE_BUSY;
 8005b5c:	2324      	movs	r3, #36	@ 0x24
 8005b5e:	f884 3041 	strb.w	r3, [r4, #65]	@ 0x41
  __HAL_UART_DISABLE(huart);
 8005b62:	6822      	ldr	r2, [r4, #0]
 8005b64:	68d3      	ldr	r3, [r2, #12]
 8005b66:	f423 5300 	bic.w	r3, r3, #8192	@ 0x2000
 8005b6a:	60d3      	str	r3, [r2, #12]
  UART_SetConfig(huart);
 8005b6c:	4620      	mov	r0, r4
 8005b6e:	f7ff ff67 	bl	8005a40 <UART_SetConfig>
  CLEAR_BIT(huart->Instance->CR2, (USART_CR2_LINEN | USART_CR2_CLKEN));
 8005b72:	6822      	ldr	r2, [r4, #0]
 8005b74:	6913      	ldr	r3, [r2, #16]
 8005b76:	f423 4390 	bic.w	r3, r3, #18432	@ 0x4800
 8005b7a:	6113      	str	r3, [r2, #16]
  CLEAR_BIT(huart->Instance->CR3, (USART_CR3_SCEN | USART_CR3_HDSEL | USART_CR3_IREN));
 8005b7c:	6822      	ldr	r2, [r4, #0]
 8005b7e:	6953      	ldr	r3, [r2, #20]
 8005b80:	f023 032a 	bic.w	r3, r3, #42	@ 0x2a
 8005b84:	6153      	str	r3, [r2, #20]
  __HAL_UART_ENABLE(huart);
 8005b86:	6822      	ldr	r2, [r4, #0]
 8005b88:	68d3      	ldr	r3, [r2, #12]
 8005b8a:	f443 5300 	orr.w	r3, r3, #8192	@ 0x2000
 8005b8e:	60d3      	str	r3, [r2, #12]
  huart->ErrorCode = HAL_UART_ERROR_NONE;
 8005b90:	2000      	movs	r0, #0
 8005b92:	6460      	str	r0, [r4, #68]	@ 0x44
  huart->gState = HAL_UART_STATE_READY;
 8005b94:	2320      	movs	r3, #32
 8005b96:	f884 3041 	strb.w	r3, [r4, #65]	@ 0x41
  huart->RxState = HAL_UART_STATE_READY;
 8005b9a:	f884 3042 	strb.w	r3, [r4, #66]	@ 0x42
  huart->RxEventType = HAL_UART_RXEVENT_TC;
 8005b9e:	6360      	str	r0, [r4, #52]	@ 0x34
}
 8005ba0:	bd10      	pop	{r4, pc}
    huart->Lock = HAL_UNLOCKED;
 8005ba2:	f880 3040 	strb.w	r3, [r0, #64]	@ 0x40
    HAL_UART_MspInit(huart);
 8005ba6:	f000 f8dd 	bl	8005d64 <HAL_UART_MspInit>
 8005baa:	e7d7      	b.n	8005b5c <HAL_UART_Init+0xc>
    return HAL_ERROR;
 8005bac:	2001      	movs	r0, #1
}
 8005bae:	4770      	bx	lr

08005bb0 <NMI_Handler>:
{
  /* USER CODE BEGIN NonMaskableInt_IRQn 0 */

  /* USER CODE END NonMaskableInt_IRQn 0 */
  /* USER CODE BEGIN NonMaskableInt_IRQn 1 */
   while (1)
 8005bb0:	e7fe      	b.n	8005bb0 <NMI_Handler>

08005bb2 <HardFault_Handler>:
void HardFault_Handler(void)
{
  /* USER CODE BEGIN HardFault_IRQn 0 */

  /* USER CODE END HardFault_IRQn 0 */
  while (1)
 8005bb2:	e7fe      	b.n	8005bb2 <HardFault_Handler>

08005bb4 <MemManage_Handler>:

/**
  * @brief This function handles Memory management fault.
  */
void MemManage_Handler(void)
{
 8005bb4:	b084      	sub	sp, #16
  /* USER CODE BEGIN MemoryManagement_IRQn 0 */
  volatile uint32_t fault_address = SCB->MMFAR;
 8005bb6:	4b08      	ldr	r3, [pc, #32]	@ (8005bd8 <MemManage_Handler+0x24>)
 8005bb8:	6b5a      	ldr	r2, [r3, #52]	@ 0x34
 8005bba:	9203      	str	r2, [sp, #12]
  volatile uint32_t cfsr = SCB->CFSR;
 8005bbc:	6a9b      	ldr	r3, [r3, #40]	@ 0x28
 8005bbe:	9302      	str	r3, [sp, #8]
  volatile uint32_t mmfsr = (cfsr & 0xFF);
 8005bc0:	9b02      	ldr	r3, [sp, #8]
 8005bc2:	b2db      	uxtb	r3, r3
 8005bc4:	9301      	str	r3, [sp, #4]
  volatile uint32_t fault_status = (mmfsr & 0x7F);
 8005bc6:	9b01      	ldr	r3, [sp, #4]
 8005bc8:	f003 037f 	and.w	r3, r3, #127	@ 0x7f
 8005bcc:	9300      	str	r3, [sp, #0]
  (void)fault_address;
 8005bce:	9b03      	ldr	r3, [sp, #12]
  (void)cfsr;
 8005bd0:	9b02      	ldr	r3, [sp, #8]
  (void)mmfsr;
 8005bd2:	9b01      	ldr	r3, [sp, #4]
  (void)fault_status;
 8005bd4:	9b00      	ldr	r3, [sp, #0]
  /* USER CODE END MemoryManagement_IRQn 0 */
  while (1)
 8005bd6:	e7fe      	b.n	8005bd6 <MemManage_Handler+0x22>
 8005bd8:	e000ed00 	.word	0xe000ed00

08005bdc <BusFault_Handler>:
void BusFault_Handler(void)
{
  /* USER CODE BEGIN BusFault_IRQn 0 */

  /* USER CODE END BusFault_IRQn 0 */
  while (1)
 8005bdc:	e7fe      	b.n	8005bdc <BusFault_Handler>

08005bde <UsageFault_Handler>:
void UsageFault_Handler(void)
{
  /* USER CODE BEGIN UsageFault_IRQn 0 */

  /* USER CODE END UsageFault_IRQn 0 */
  while (1)
 8005bde:	e7fe      	b.n	8005bde <UsageFault_Handler>

08005be0 <DebugMon_Handler>:

  /* USER CODE END DebugMonitor_IRQn 0 */
  /* USER CODE BEGIN DebugMonitor_IRQn 1 */

  /* USER CODE END DebugMonitor_IRQn 1 */
}
 8005be0:	4770      	bx	lr
	...

08005be4 <ADC_IRQHandler>:

/**
  * @brief This function handles ADC1 global interrupt.
  */
void ADC_IRQHandler(void)
{
 8005be4:	b508      	push	{r3, lr}
  /* USER CODE BEGIN ADC_IRQn 0 */

  /* USER CODE END ADC_IRQn 0 */
  HAL_ADC_IRQHandler(&hadc1);
 8005be6:	4802      	ldr	r0, [pc, #8]	@ (8005bf0 <ADC_IRQHandler+0xc>)
 8005be8:	f7fe fdec 	bl	80047c4 <HAL_ADC_IRQHandler>
  /* USER CODE BEGIN ADC_IRQn 1 */

  /* USER CODE END ADC_IRQn 1 */
}
 8005bec:	bd08      	pop	{r3, pc}
 8005bee:	bf00      	nop
 8005bf0:	2000041c 	.word	0x2000041c

08005bf4 <TIM1_UP_TIM10_IRQHandler>:

/**
  * @brief This function handles TIM1 update interrupt and TIM10 global interrupt.
  */
void TIM1_UP_TIM10_IRQHandler(void)
{
 8005bf4:	b508      	push	{r3, lr}
  /* USER CODE BEGIN TIM1_UP_TIM10_IRQn 0 */

  /* USER CODE END TIM1_UP_TIM10_IRQn 0 */
  HAL_TIM_IRQHandler(&htim1);
 8005bf6:	4802      	ldr	r0, [pc, #8]	@ (8005c00 <TIM1_UP_TIM10_IRQHandler+0xc>)
 8005bf8:	f7ff fcde 	bl	80055b8 <HAL_TIM_IRQHandler>
  /* USER CODE BEGIN TIM1_UP_TIM10_IRQn 1 */

  /* USER CODE END TIM1_UP_TIM10_IRQn 1 */
}
 8005bfc:	bd08      	pop	{r3, pc}
 8005bfe:	bf00      	nop
 8005c00:	2000180c 	.word	0x2000180c

08005c04 <SystemInit>:
  */
void SystemInit(void)
{
  /* FPU settings ------------------------------------------------------------*/
  #if (__FPU_PRESENT == 1) && (__FPU_USED == 1)
    SCB->CPACR |= ((3UL << 10*2)|(3UL << 11*2));  /* set CP10 and CP11 Full Access */
 8005c04:	4a03      	ldr	r2, [pc, #12]	@ (8005c14 <SystemInit+0x10>)
 8005c06:	f8d2 3088 	ldr.w	r3, [r2, #136]	@ 0x88
 8005c0a:	f443 0370 	orr.w	r3, r3, #15728640	@ 0xf00000
 8005c0e:	f8c2 3088 	str.w	r3, [r2, #136]	@ 0x88

  /* Configure the Vector Table location -------------------------------------*/
#if defined(USER_VECT_TAB_ADDRESS)
  SCB->VTOR = VECT_TAB_BASE_ADDRESS | VECT_TAB_OFFSET; /* Vector Table Relocation in Internal SRAM */
#endif /* USER_VECT_TAB_ADDRESS */
}
 8005c12:	4770      	bx	lr
 8005c14:	e000ed00 	.word	0xe000ed00

08005c18 <prvResetNextTaskUnblockTime>:
	if( listLIST_IS_EMPTY( pxDelayedTaskList ) != pdFALSE )
 8005c18:	4b08      	ldr	r3, [pc, #32]	@ (8005c3c <prvResetNextTaskUnblockTime+0x24>)
 8005c1a:	681b      	ldr	r3, [r3, #0]
 8005c1c:	681b      	ldr	r3, [r3, #0]
 8005c1e:	b923      	cbnz	r3, 8005c2a <prvResetNextTaskUnblockTime+0x12>
		xNextTaskUnblockTime = portMAX_DELAY;
 8005c20:	4b07      	ldr	r3, [pc, #28]	@ (8005c40 <prvResetNextTaskUnblockTime+0x28>)
 8005c22:	f04f 32ff 	mov.w	r2, #4294967295	@ 0xffffffff
 8005c26:	601a      	str	r2, [r3, #0]
 8005c28:	4770      	bx	lr
		( pxTCB ) = listGET_OWNER_OF_HEAD_ENTRY( pxDelayedTaskList ); /*lint !e9079 void * is used as this macro is used with timers and co-routines too.  Alignment is known to be fine as the type of the pointer stored and retrieved is the same. */
 8005c2a:	4b04      	ldr	r3, [pc, #16]	@ (8005c3c <prvResetNextTaskUnblockTime+0x24>)
 8005c2c:	681b      	ldr	r3, [r3, #0]
 8005c2e:	68db      	ldr	r3, [r3, #12]
 8005c30:	68db      	ldr	r3, [r3, #12]
		xNextTaskUnblockTime = listGET_LIST_ITEM_VALUE( &( ( pxTCB )->xStateListItem ) );
 8005c32:	6a5a      	ldr	r2, [r3, #36]	@ 0x24
 8005c34:	4b02      	ldr	r3, [pc, #8]	@ (8005c40 <prvResetNextTaskUnblockTime+0x28>)
 8005c36:	601a      	str	r2, [r3, #0]
}
 8005c38:	4770      	bx	lr
 8005c3a:	bf00      	nop
 8005c3c:	200000b0 	.word	0x200000b0
 8005c40:	20000048 	.word	0x20000048

08005c44 <prvIdleTask>:
{
 8005c44:	b508      	push	{r3, lr}
		prvCheckTasksWaitingTermination();
 8005c46:	f7fc fa5b 	bl	8002100 <prvCheckTasksWaitingTermination>
			if( listCURRENT_LIST_LENGTH( &( pxReadyTasksLists[ tskIDLE_PRIORITY ] ) ) > ( UBaseType_t ) 1 )
 8005c4a:	4b03      	ldr	r3, [pc, #12]	@ (8005c58 <prvIdleTask+0x14>)
 8005c4c:	681b      	ldr	r3, [r3, #0]
 8005c4e:	2b01      	cmp	r3, #1
 8005c50:	d9f9      	bls.n	8005c46 <prvIdleTask+0x2>
				taskYIELD();
 8005c52:	df01      	svc	1
 8005c54:	e7f7      	b.n	8005c46 <prvIdleTask+0x2>
 8005c56:	bf00      	nop
 8005c58:	200000dc 	.word	0x200000dc

08005c5c <xTaskNotifyStateClear>:
	{
 8005c5c:	b510      	push	{r4, lr}
		pxTCB = prvGetTCBFromHandle( xTask );
 8005c5e:	4604      	mov	r4, r0
 8005c60:	b158      	cbz	r0, 8005c7a <xTaskNotifyStateClear+0x1e>
		taskENTER_CRITICAL();
 8005c62:	f7fe fc35 	bl	80044d0 <vPortEnterCritical>
			if( pxTCB->ucNotifyState == taskNOTIFICATION_RECEIVED )
 8005c66:	f894 3070 	ldrb.w	r3, [r4, #112]	@ 0x70
 8005c6a:	b2db      	uxtb	r3, r3
 8005c6c:	2b02      	cmp	r3, #2
 8005c6e:	d007      	beq.n	8005c80 <xTaskNotifyStateClear+0x24>
				xReturn = pdFAIL;
 8005c70:	2400      	movs	r4, #0
		taskEXIT_CRITICAL();
 8005c72:	f7fe fc41 	bl	80044f8 <vPortExitCritical>
	}
 8005c76:	4620      	mov	r0, r4
 8005c78:	bd10      	pop	{r4, pc}
		pxTCB = prvGetTCBFromHandle( xTask );
 8005c7a:	4b04      	ldr	r3, [pc, #16]	@ (8005c8c <xTaskNotifyStateClear+0x30>)
 8005c7c:	681c      	ldr	r4, [r3, #0]
 8005c7e:	e7f0      	b.n	8005c62 <xTaskNotifyStateClear+0x6>
				pxTCB->ucNotifyState = taskNOT_WAITING_NOTIFICATION;
 8005c80:	2300      	movs	r3, #0
 8005c82:	f884 3070 	strb.w	r3, [r4, #112]	@ 0x70
				xReturn = pdPASS;
 8005c86:	2401      	movs	r4, #1
 8005c88:	e7f3      	b.n	8005c72 <xTaskNotifyStateClear+0x16>
 8005c8a:	bf00      	nop
 8005c8c:	20000168 	.word	0x20000168

08005c90 <MX_TIM3_Init>:

TIM_HandleTypeDef htim3;

/* TIM3 init function */
void MX_TIM3_Init(void)
{
 8005c90:	b500      	push	{lr}
 8005c92:	b087      	sub	sp, #28

  /* USER CODE BEGIN TIM3_Init 0 */

  /* USER CODE END TIM3_Init 0 */

  TIM_ClockConfigTypeDef sClockSourceConfig = {0};
 8005c94:	2300      	movs	r3, #0
 8005c96:	9302      	str	r3, [sp, #8]
 8005c98:	9303      	str	r3, [sp, #12]
 8005c9a:	9304      	str	r3, [sp, #16]
 8005c9c:	9305      	str	r3, [sp, #20]
  TIM_MasterConfigTypeDef sMasterConfig = {0};
 8005c9e:	9300      	str	r3, [sp, #0]
 8005ca0:	9301      	str	r3, [sp, #4]

  /* USER CODE BEGIN TIM3_Init 1 */

  /* USER CODE END TIM3_Init 1 */
  htim3.Instance = TIM3;
 8005ca2:	4815      	ldr	r0, [pc, #84]	@ (8005cf8 <MX_TIM3_Init+0x68>)
 8005ca4:	4a15      	ldr	r2, [pc, #84]	@ (8005cfc <MX_TIM3_Init+0x6c>)
 8005ca6:	6002      	str	r2, [r0, #0]
  htim3.Init.Prescaler = 1000-1;
 8005ca8:	f240 32e7 	movw	r2, #999	@ 0x3e7
 8005cac:	6042      	str	r2, [r0, #4]
  htim3.Init.CounterMode = TIM_COUNTERMODE_UP;
 8005cae:	6083      	str	r3, [r0, #8]
  htim3.Init.Period = 1000-1;
 8005cb0:	60c2      	str	r2, [r0, #12]
  htim3.Init.ClockDivision = TIM_CLOCKDIVISION_DIV1;
 8005cb2:	6103      	str	r3, [r0, #16]
  htim3.Init.AutoReloadPreload = TIM_AUTORELOAD_PRELOAD_DISABLE;
 8005cb4:	6183      	str	r3, [r0, #24]
  if (HAL_TIM_Base_Init(&htim3) != HAL_OK)
 8005cb6:	f7ff fd81 	bl	80057bc <HAL_TIM_Base_Init>
 8005cba:	b998      	cbnz	r0, 8005ce4 <MX_TIM3_Init+0x54>
  {
    Error_Handler();
  }
  sClockSourceConfig.ClockSource = TIM_CLOCKSOURCE_INTERNAL;
 8005cbc:	f44f 5380 	mov.w	r3, #4096	@ 0x1000
 8005cc0:	9302      	str	r3, [sp, #8]
  if (HAL_TIM_ConfigClockSource(&htim3, &sClockSourceConfig) != HAL_OK)
 8005cc2:	a902      	add	r1, sp, #8
 8005cc4:	480c      	ldr	r0, [pc, #48]	@ (8005cf8 <MX_TIM3_Init+0x68>)
 8005cc6:	f7ff fdb2 	bl	800582e <HAL_TIM_ConfigClockSource>
 8005cca:	b970      	cbnz	r0, 8005cea <MX_TIM3_Init+0x5a>
  {
    Error_Handler();
  }
  sMasterConfig.MasterOutputTrigger = TIM_TRGO_UPDATE;
 8005ccc:	2320      	movs	r3, #32
 8005cce:	9300      	str	r3, [sp, #0]
  sMasterConfig.MasterSlaveMode = TIM_MASTERSLAVEMODE_DISABLE;
 8005cd0:	2300      	movs	r3, #0
 8005cd2:	9301      	str	r3, [sp, #4]
  if (HAL_TIMEx_MasterConfigSynchronization(&htim3, &sMasterConfig) != HAL_OK)
 8005cd4:	4669      	mov	r1, sp
 8005cd6:	4808      	ldr	r0, [pc, #32]	@ (8005cf8 <MX_TIM3_Init+0x68>)
 8005cd8:	f7ff fe28 	bl	800592c <HAL_TIMEx_MasterConfigSynchronization>
 8005cdc:	b940      	cbnz	r0, 8005cf0 <MX_TIM3_Init+0x60>
  }
  /* USER CODE BEGIN TIM3_Init 2 */

  /* USER CODE END TIM3_Init 2 */

}
 8005cde:	b007      	add	sp, #28
 8005ce0:	f85d fb04 	ldr.w	pc, [sp], #4
    Error_Handler();
 8005ce4:	f7fe fb6a 	bl	80043bc <Error_Handler>
 8005ce8:	e7e8      	b.n	8005cbc <MX_TIM3_Init+0x2c>
    Error_Handler();
 8005cea:	f7fe fb67 	bl	80043bc <Error_Handler>
 8005cee:	e7ed      	b.n	8005ccc <MX_TIM3_Init+0x3c>
    Error_Handler();
 8005cf0:	f7fe fb64 	bl	80043bc <Error_Handler>
}
 8005cf4:	e7f3      	b.n	8005cde <MX_TIM3_Init+0x4e>
 8005cf6:	bf00      	nop
 8005cf8:	20001854 	.word	0x20001854
 8005cfc:	40000400 	.word	0x40000400

08005d00 <HAL_TIM_Base_MspInit>:

void HAL_TIM_Base_MspInit(TIM_HandleTypeDef* tim_baseHandle)
{

  if(tim_baseHandle->Instance==TIM3)
 8005d00:	6802      	ldr	r2, [r0, #0]
 8005d02:	4b09      	ldr	r3, [pc, #36]	@ (8005d28 <HAL_TIM_Base_MspInit+0x28>)
 8005d04:	429a      	cmp	r2, r3
 8005d06:	d000      	beq.n	8005d0a <HAL_TIM_Base_MspInit+0xa>
 8005d08:	4770      	bx	lr
{
 8005d0a:	b082      	sub	sp, #8
  {
  /* USER CODE BEGIN TIM3_MspInit 0 */

  /* USER CODE END TIM3_MspInit 0 */
    /* TIM3 clock enable */
    __HAL_RCC_TIM3_CLK_ENABLE();
 8005d0c:	2300      	movs	r3, #0
 8005d0e:	9301      	str	r3, [sp, #4]
 8005d10:	4b06      	ldr	r3, [pc, #24]	@ (8005d2c <HAL_TIM_Base_MspInit+0x2c>)
 8005d12:	6c1a      	ldr	r2, [r3, #64]	@ 0x40
 8005d14:	f042 0202 	orr.w	r2, r2, #2
 8005d18:	641a      	str	r2, [r3, #64]	@ 0x40
 8005d1a:	6c1b      	ldr	r3, [r3, #64]	@ 0x40
 8005d1c:	f003 0302 	and.w	r3, r3, #2
 8005d20:	9301      	str	r3, [sp, #4]
 8005d22:	9b01      	ldr	r3, [sp, #4]
  /* USER CODE BEGIN TIM3_MspInit 1 */

  /* USER CODE END TIM3_MspInit 1 */
  }
}
 8005d24:	b002      	add	sp, #8
 8005d26:	4770      	bx	lr
 8005d28:	40000400 	.word	0x40000400
 8005d2c:	40023800 	.word	0x40023800

08005d30 <MX_USART2_UART_Init>:
UART_HandleTypeDef huart2;

/* USART2 init function */

void MX_USART2_UART_Init(void)
{
 8005d30:	b508      	push	{r3, lr}
  /* USER CODE END USART2_Init 0 */

  /* USER CODE BEGIN USART2_Init 1 */

  /* USER CODE END USART2_Init 1 */
  huart2.Instance = USART2;
 8005d32:	480a      	ldr	r0, [pc, #40]	@ (8005d5c <MX_USART2_UART_Init+0x2c>)
 8005d34:	4b0a      	ldr	r3, [pc, #40]	@ (8005d60 <MX_USART2_UART_Init+0x30>)
 8005d36:	6003      	str	r3, [r0, #0]
  huart2.Init.BaudRate = 115200;
 8005d38:	f44f 33e1 	mov.w	r3, #115200	@ 0x1c200
 8005d3c:	6043      	str	r3, [r0, #4]
  huart2.Init.WordLength = UART_WORDLENGTH_8B;
 8005d3e:	2300      	movs	r3, #0
 8005d40:	6083      	str	r3, [r0, #8]
  huart2.Init.StopBits = UART_STOPBITS_1;
 8005d42:	60c3      	str	r3, [r0, #12]
  huart2.Init.Parity = UART_PARITY_NONE;
 8005d44:	6103      	str	r3, [r0, #16]
  huart2.Init.Mode = UART_MODE_TX_RX;
 8005d46:	220c      	movs	r2, #12
 8005d48:	6142      	str	r2, [r0, #20]
  huart2.Init.HwFlowCtl = UART_HWCONTROL_NONE;
 8005d4a:	6183      	str	r3, [r0, #24]
  huart2.Init.OverSampling = UART_OVERSAMPLING_16;
 8005d4c:	61c3      	str	r3, [r0, #28]
  if (HAL_UART_Init(&huart2) != HAL_OK)
 8005d4e:	f7ff feff 	bl	8005b50 <HAL_UART_Init>
 8005d52:	b900      	cbnz	r0, 8005d56 <MX_USART2_UART_Init+0x26>
  }
  /* USER CODE BEGIN USART2_Init 2 */

  /* USER CODE END USART2_Init 2 */

}
 8005d54:	bd08      	pop	{r3, pc}
    Error_Handler();
 8005d56:	f7fe fb31 	bl	80043bc <Error_Handler>
}
 8005d5a:	e7fb      	b.n	8005d54 <MX_USART2_UART_Init+0x24>
 8005d5c:	2000189c 	.word	0x2000189c
 8005d60:	40004400 	.word	0x40004400

08005d64 <HAL_UART_MspInit>:

void HAL_UART_MspInit(UART_HandleTypeDef* uartHandle)
{
 8005d64:	b500      	push	{lr}
 8005d66:	b089      	sub	sp, #36	@ 0x24

  GPIO_InitTypeDef GPIO_InitStruct = {0};
 8005d68:	2300      	movs	r3, #0
 8005d6a:	9303      	str	r3, [sp, #12]
 8005d6c:	9304      	str	r3, [sp, #16]
 8005d6e:	9305      	str	r3, [sp, #20]
 8005d70:	9306      	str	r3, [sp, #24]
 8005d72:	9307      	str	r3, [sp, #28]
  if(uartHandle->Instance==USART2)
 8005d74:	6802      	ldr	r2, [r0, #0]
 8005d76:	4b15      	ldr	r3, [pc, #84]	@ (8005dcc <HAL_UART_MspInit+0x68>)
 8005d78:	429a      	cmp	r2, r3
 8005d7a:	d002      	beq.n	8005d82 <HAL_UART_MspInit+0x1e>

  /* USER CODE BEGIN USART2_MspInit 1 */

  /* USER CODE END USART2_MspInit 1 */
  }
}
 8005d7c:	b009      	add	sp, #36	@ 0x24
 8005d7e:	f85d fb04 	ldr.w	pc, [sp], #4
    __HAL_RCC_USART2_CLK_ENABLE();
 8005d82:	2100      	movs	r1, #0
 8005d84:	9101      	str	r1, [sp, #4]
 8005d86:	f503 33fa 	add.w	r3, r3, #128000	@ 0x1f400
 8005d8a:	6c1a      	ldr	r2, [r3, #64]	@ 0x40
 8005d8c:	f442 3200 	orr.w	r2, r2, #131072	@ 0x20000
 8005d90:	641a      	str	r2, [r3, #64]	@ 0x40
 8005d92:	6c1a      	ldr	r2, [r3, #64]	@ 0x40
 8005d94:	f402 3200 	and.w	r2, r2, #131072	@ 0x20000
 8005d98:	9201      	str	r2, [sp, #4]
 8005d9a:	9a01      	ldr	r2, [sp, #4]
    __HAL_RCC_GPIOA_CLK_ENABLE();
 8005d9c:	9102      	str	r1, [sp, #8]
 8005d9e:	6b1a      	ldr	r2, [r3, #48]	@ 0x30
 8005da0:	f042 0201 	orr.w	r2, r2, #1
 8005da4:	631a      	str	r2, [r3, #48]	@ 0x30
 8005da6:	6b1b      	ldr	r3, [r3, #48]	@ 0x30
 8005da8:	f003 0301 	and.w	r3, r3, #1
 8005dac:	9302      	str	r3, [sp, #8]
 8005dae:	9b02      	ldr	r3, [sp, #8]
    GPIO_InitStruct.Pin = USART_TX_Pin|USART_RX_Pin;
 8005db0:	230c      	movs	r3, #12
 8005db2:	9303      	str	r3, [sp, #12]
    GPIO_InitStruct.Mode = GPIO_MODE_AF_PP;
 8005db4:	2302      	movs	r3, #2
 8005db6:	9304      	str	r3, [sp, #16]
    GPIO_InitStruct.Speed = GPIO_SPEED_FREQ_VERY_HIGH;
 8005db8:	2303      	movs	r3, #3
 8005dba:	9306      	str	r3, [sp, #24]
    GPIO_InitStruct.Alternate = GPIO_AF7_USART2;
 8005dbc:	2307      	movs	r3, #7
 8005dbe:	9307      	str	r3, [sp, #28]
    HAL_GPIO_Init(GPIOA, &GPIO_InitStruct);
 8005dc0:	a903      	add	r1, sp, #12
 8005dc2:	4803      	ldr	r0, [pc, #12]	@ (8005dd0 <HAL_UART_MspInit+0x6c>)
 8005dc4:	f7fe fee0 	bl	8004b88 <HAL_GPIO_Init>
}
 8005dc8:	e7d8      	b.n	8005d7c <HAL_UART_MspInit+0x18>
 8005dca:	bf00      	nop
 8005dcc:	40004400 	.word	0x40004400
 8005dd0:	40020000 	.word	0x40020000

08005dd4 <Reset_Handler>:

    .section  .text.Reset_Handler
  .weak  Reset_Handler
  .type  Reset_Handler, %function
Reset_Handler:  
  ldr   sp, =_estack    		 /* set stack pointer */
 8005dd4:	f8df d034 	ldr.w	sp, [pc, #52]	@ 8005e0c <LoopFillZerobss+0xe>

/* Call the clock system initialization function.*/
  bl  SystemInit   
 8005dd8:	f7ff ff14 	bl	8005c04 <SystemInit>

/* Copy the data segment initializers from flash to SRAM */  
  ldr r0, =_sdata
 8005ddc:	480c      	ldr	r0, [pc, #48]	@ (8005e10 <LoopFillZerobss+0x12>)
  ldr r1, =_edata
 8005dde:	490d      	ldr	r1, [pc, #52]	@ (8005e14 <LoopFillZerobss+0x16>)
  ldr r2, =_sidata
 8005de0:	4a0d      	ldr	r2, [pc, #52]	@ (8005e18 <LoopFillZerobss+0x1a>)
  movs r3, #0
 8005de2:	2300      	movs	r3, #0
  b LoopCopyDataInit
 8005de4:	e002      	b.n	8005dec <LoopCopyDataInit>

08005de6 <CopyDataInit>:

CopyDataInit:
  ldr r4, [r2, r3]
 8005de6:	58d4      	ldr	r4, [r2, r3]
  str r4, [r0, r3]
 8005de8:	50c4      	str	r4, [r0, r3]
  adds r3, r3, #4
 8005dea:	3304      	adds	r3, #4

08005dec <LoopCopyDataInit>:

LoopCopyDataInit:
  adds r4, r0, r3
 8005dec:	18c4      	adds	r4, r0, r3
  cmp r4, r1
 8005dee:	428c      	cmp	r4, r1
  bcc CopyDataInit
 8005df0:	d3f9      	bcc.n	8005de6 <CopyDataInit>
  
/* Zero fill the bss segment. */
  ldr r2, =_sbss
 8005df2:	4a0a      	ldr	r2, [pc, #40]	@ (8005e1c <LoopFillZerobss+0x1e>)
  ldr r4, =_ebss
 8005df4:	4c0a      	ldr	r4, [pc, #40]	@ (8005e20 <LoopFillZerobss+0x22>)
  movs r3, #0
 8005df6:	2300      	movs	r3, #0
  b LoopFillZerobss
 8005df8:	e001      	b.n	8005dfe <LoopFillZerobss>

08005dfa <FillZerobss>:

FillZerobss:
  str  r3, [r2]
 8005dfa:	6013      	str	r3, [r2, #0]
  adds r2, r2, #4
 8005dfc:	3204      	adds	r2, #4

08005dfe <LoopFillZerobss>:

LoopFillZerobss:
  cmp r2, r4
 8005dfe:	42a2      	cmp	r2, r4
  bcc FillZerobss
 8005e00:	d3fb      	bcc.n	8005dfa <FillZerobss>

/* Call static constructors */
    bl __libc_init_array
 8005e02:	f7fd fec7 	bl	8003b94 <__libc_init_array>
/* Call the application's entry point.*/
  bl  main
 8005e06:	f7fe fb2f 	bl	8004468 <main>
  bx  lr    
 8005e0a:	4770      	bx	lr
  ldr   sp, =_estack    		 /* set stack pointer */
 8005e0c:	20020000 	.word	0x20020000
  ldr r0, =_sdata
 8005e10:	20000000 	.word	0x20000000
  ldr r1, =_edata
 8005e14:	200001fc 	.word	0x200001fc
  ldr r2, =_sidata
 8005e18:	08005eb0 	.word	0x08005eb0
  ldr r2, =_sbss
 8005e1c:	20000400 	.word	0x20000400
  ldr r4, =_ebss
 8005e20:	200018e4 	.word	0x200018e4

08005e24 <DMA1_Stream0_IRQHandler>:
 * @retval None       
*/
    .section  .text.Default_Handler,"ax",%progbits
Default_Handler:
Infinite_Loop:
  b  Infinite_Loop
 8005e24:	e7fe      	b.n	8005e24 <DMA1_Stream0_IRQHandler>
	...

08005e28 <_init>:
 8005e28:	b5f8      	push	{r3, r4, r5, r6, r7, lr}
 8005e2a:	bf00      	nop
 8005e2c:	bcf8      	pop	{r3, r4, r5, r6, r7}
 8005e2e:	bc08      	pop	{r3}
 8005e30:	469e      	mov	lr, r3
 8005e32:	4770      	bx	lr

08005e34 <_fini>:
 8005e34:	b5f8      	push	{r3, r4, r5, r6, r7, lr}
 8005e36:	bf00      	nop
 8005e38:	bcf8      	pop	{r3, r4, r5, r6, r7}
 8005e3a:	bc08      	pop	{r3}
 8005e3c:	469e      	mov	lr, r3
 8005e3e:	4770      	bx	lr
