ARM GAS  /tmp/ccpAxJaT.s 			page 1


   1              		.cpu cortex-m4
   2              		.arch armv7e-m
   3              		.fpu fpv4-sp-d16
   4              		.eabi_attribute 27, 1
   5              		.eabi_attribute 28, 1
   6              		.eabi_attribute 20, 1
   7              		.eabi_attribute 21, 1
   8              		.eabi_attribute 23, 3
   9              		.eabi_attribute 24, 1
  10              		.eabi_attribute 25, 1
  11              		.eabi_attribute 26, 1
  12              		.eabi_attribute 30, 1
  13              		.eabi_attribute 34, 1
  14              		.eabi_attribute 18, 4
  15              		.file	"mpu_wrappers.c"
  16              		.text
  17              	.Ltext0:
  18              		.cfi_sections	.debug_frame
  19              		.file 1 "Middlewares/Third_Party/FreeRTOS/Source/portable/Common/mpu_wrappers.c"
  20              		.section	freertos_system_calls,"ax",%progbits
  21              		.align	1
  22              		.global	xPortRaisePrivilege
  23              		.syntax unified
  24              		.thumb
  25              		.thumb_func
  27              	xPortRaisePrivilege:
  28              	.LFB5:
   1:Middlewares/Third_Party/FreeRTOS/Source/portable/Common/mpu_wrappers.c **** /*
   2:Middlewares/Third_Party/FreeRTOS/Source/portable/Common/mpu_wrappers.c ****  * FreeRTOS Kernel V10.3.1
   3:Middlewares/Third_Party/FreeRTOS/Source/portable/Common/mpu_wrappers.c ****  * Copyright (C) 2020 Amazon.com, Inc. or its affiliates.  All Rights Reserved.
   4:Middlewares/Third_Party/FreeRTOS/Source/portable/Common/mpu_wrappers.c ****  *
   5:Middlewares/Third_Party/FreeRTOS/Source/portable/Common/mpu_wrappers.c ****  * Permission is hereby granted, free of charge, to any person obtaining a copy of
   6:Middlewares/Third_Party/FreeRTOS/Source/portable/Common/mpu_wrappers.c ****  * this software and associated documentation files (the "Software"), to deal in
   7:Middlewares/Third_Party/FreeRTOS/Source/portable/Common/mpu_wrappers.c ****  * the Software without restriction, including without limitation the rights to
   8:Middlewares/Third_Party/FreeRTOS/Source/portable/Common/mpu_wrappers.c ****  * use, copy, modify, merge, publish, distribute, sublicense, and/or sell copies of
   9:Middlewares/Third_Party/FreeRTOS/Source/portable/Common/mpu_wrappers.c ****  * the Software, and to permit persons to whom the Software is furnished to do so,
  10:Middlewares/Third_Party/FreeRTOS/Source/portable/Common/mpu_wrappers.c ****  * subject to the following conditions:
  11:Middlewares/Third_Party/FreeRTOS/Source/portable/Common/mpu_wrappers.c ****  *
  12:Middlewares/Third_Party/FreeRTOS/Source/portable/Common/mpu_wrappers.c ****  * The above copyright notice and this permission notice shall be included in all
  13:Middlewares/Third_Party/FreeRTOS/Source/portable/Common/mpu_wrappers.c ****  * copies or substantial portions of the Software.
  14:Middlewares/Third_Party/FreeRTOS/Source/portable/Common/mpu_wrappers.c ****  *
  15:Middlewares/Third_Party/FreeRTOS/Source/portable/Common/mpu_wrappers.c ****  * THE SOFTWARE IS PROVIDED "AS IS", WITHOUT WARRANTY OF ANY KIND, EXPRESS OR
  16:Middlewares/Third_Party/FreeRTOS/Source/portable/Common/mpu_wrappers.c ****  * IMPLIED, INCLUDING BUT NOT LIMITED TO THE WARRANTIES OF MERCHANTABILITY, FITNESS
  17:Middlewares/Third_Party/FreeRTOS/Source/portable/Common/mpu_wrappers.c ****  * FOR A PARTICULAR PURPOSE AND NONINFRINGEMENT. IN NO EVENT SHALL THE AUTHORS OR
  18:Middlewares/Third_Party/FreeRTOS/Source/portable/Common/mpu_wrappers.c ****  * COPYRIGHT HOLDERS BE LIABLE FOR ANY CLAIM, DAMAGES OR OTHER LIABILITY, WHETHER
  19:Middlewares/Third_Party/FreeRTOS/Source/portable/Common/mpu_wrappers.c ****  * IN AN ACTION OF CONTRACT, TORT OR OTHERWISE, ARISING FROM, OUT OF OR IN
  20:Middlewares/Third_Party/FreeRTOS/Source/portable/Common/mpu_wrappers.c ****  * CONNECTION WITH THE SOFTWARE OR THE USE OR OTHER DEALINGS IN THE SOFTWARE.
  21:Middlewares/Third_Party/FreeRTOS/Source/portable/Common/mpu_wrappers.c ****  *
  22:Middlewares/Third_Party/FreeRTOS/Source/portable/Common/mpu_wrappers.c ****  * http://www.FreeRTOS.org
  23:Middlewares/Third_Party/FreeRTOS/Source/portable/Common/mpu_wrappers.c ****  * http://aws.amazon.com/freertos
  24:Middlewares/Third_Party/FreeRTOS/Source/portable/Common/mpu_wrappers.c ****  *
  25:Middlewares/Third_Party/FreeRTOS/Source/portable/Common/mpu_wrappers.c ****  * 1 tab == 4 spaces!
  26:Middlewares/Third_Party/FreeRTOS/Source/portable/Common/mpu_wrappers.c ****  */
  27:Middlewares/Third_Party/FreeRTOS/Source/portable/Common/mpu_wrappers.c **** 
  28:Middlewares/Third_Party/FreeRTOS/Source/portable/Common/mpu_wrappers.c **** /*
  29:Middlewares/Third_Party/FreeRTOS/Source/portable/Common/mpu_wrappers.c ****  * Implementation of the wrapper functions used to raise the processor privilege
  30:Middlewares/Third_Party/FreeRTOS/Source/portable/Common/mpu_wrappers.c ****  * before calling a standard FreeRTOS API function.
ARM GAS  /tmp/ccpAxJaT.s 			page 2


  31:Middlewares/Third_Party/FreeRTOS/Source/portable/Common/mpu_wrappers.c ****  */
  32:Middlewares/Third_Party/FreeRTOS/Source/portable/Common/mpu_wrappers.c **** 
  33:Middlewares/Third_Party/FreeRTOS/Source/portable/Common/mpu_wrappers.c **** /* Defining MPU_WRAPPERS_INCLUDED_FROM_API_FILE prevents task.h from redefining
  34:Middlewares/Third_Party/FreeRTOS/Source/portable/Common/mpu_wrappers.c **** all the API functions to use the MPU wrappers.  That should only be done when
  35:Middlewares/Third_Party/FreeRTOS/Source/portable/Common/mpu_wrappers.c **** task.h is included from an application file. */
  36:Middlewares/Third_Party/FreeRTOS/Source/portable/Common/mpu_wrappers.c **** #define MPU_WRAPPERS_INCLUDED_FROM_API_FILE
  37:Middlewares/Third_Party/FreeRTOS/Source/portable/Common/mpu_wrappers.c **** 
  38:Middlewares/Third_Party/FreeRTOS/Source/portable/Common/mpu_wrappers.c **** /* Scheduler includes. */
  39:Middlewares/Third_Party/FreeRTOS/Source/portable/Common/mpu_wrappers.c **** #include "FreeRTOS.h"
  40:Middlewares/Third_Party/FreeRTOS/Source/portable/Common/mpu_wrappers.c **** #include "task.h"
  41:Middlewares/Third_Party/FreeRTOS/Source/portable/Common/mpu_wrappers.c **** #include "queue.h"
  42:Middlewares/Third_Party/FreeRTOS/Source/portable/Common/mpu_wrappers.c **** #include "timers.h"
  43:Middlewares/Third_Party/FreeRTOS/Source/portable/Common/mpu_wrappers.c **** #include "event_groups.h"
  44:Middlewares/Third_Party/FreeRTOS/Source/portable/Common/mpu_wrappers.c **** #include "stream_buffer.h"
  45:Middlewares/Third_Party/FreeRTOS/Source/portable/Common/mpu_wrappers.c **** #include "mpu_prototypes.h"
  46:Middlewares/Third_Party/FreeRTOS/Source/portable/Common/mpu_wrappers.c **** 
  47:Middlewares/Third_Party/FreeRTOS/Source/portable/Common/mpu_wrappers.c **** #undef MPU_WRAPPERS_INCLUDED_FROM_API_FILE
  48:Middlewares/Third_Party/FreeRTOS/Source/portable/Common/mpu_wrappers.c **** 
  49:Middlewares/Third_Party/FreeRTOS/Source/portable/Common/mpu_wrappers.c **** /**
  50:Middlewares/Third_Party/FreeRTOS/Source/portable/Common/mpu_wrappers.c ****  * @brief Calls the port specific code to raise the privilege.
  51:Middlewares/Third_Party/FreeRTOS/Source/portable/Common/mpu_wrappers.c ****  *
  52:Middlewares/Third_Party/FreeRTOS/Source/portable/Common/mpu_wrappers.c ****  * @return pdFALSE if privilege was raised, pdTRUE otherwise.
  53:Middlewares/Third_Party/FreeRTOS/Source/portable/Common/mpu_wrappers.c ****  */
  54:Middlewares/Third_Party/FreeRTOS/Source/portable/Common/mpu_wrappers.c **** BaseType_t xPortRaisePrivilege( void ) FREERTOS_SYSTEM_CALL;
  55:Middlewares/Third_Party/FreeRTOS/Source/portable/Common/mpu_wrappers.c **** 
  56:Middlewares/Third_Party/FreeRTOS/Source/portable/Common/mpu_wrappers.c **** /**
  57:Middlewares/Third_Party/FreeRTOS/Source/portable/Common/mpu_wrappers.c ****  * @brief If xRunningPrivileged is not pdTRUE, calls the port specific
  58:Middlewares/Third_Party/FreeRTOS/Source/portable/Common/mpu_wrappers.c ****  * code to reset the privilege, otherwise does nothing.
  59:Middlewares/Third_Party/FreeRTOS/Source/portable/Common/mpu_wrappers.c ****  */
  60:Middlewares/Third_Party/FreeRTOS/Source/portable/Common/mpu_wrappers.c **** void vPortResetPrivilege( BaseType_t xRunningPrivileged );
  61:Middlewares/Third_Party/FreeRTOS/Source/portable/Common/mpu_wrappers.c **** /*-----------------------------------------------------------*/
  62:Middlewares/Third_Party/FreeRTOS/Source/portable/Common/mpu_wrappers.c **** 
  63:Middlewares/Third_Party/FreeRTOS/Source/portable/Common/mpu_wrappers.c **** BaseType_t xPortRaisePrivilege( void ) /* FREERTOS_SYSTEM_CALL */
  64:Middlewares/Third_Party/FreeRTOS/Source/portable/Common/mpu_wrappers.c **** {
  29              		.loc 1 64 1 view -0
  30              		.cfi_startproc
  31              		@ args = 0, pretend = 0, frame = 0
  32              		@ frame_needed = 0, uses_anonymous_args = 0
  33 0000 08B5     		push	{r3, lr}
  34              		.cfi_def_cfa_offset 8
  35              		.cfi_offset 3, -8
  36              		.cfi_offset 14, -4
  65:Middlewares/Third_Party/FreeRTOS/Source/portable/Common/mpu_wrappers.c **** BaseType_t xRunningPrivileged;
  37              		.loc 1 65 1 view .LVU1
  66:Middlewares/Third_Party/FreeRTOS/Source/portable/Common/mpu_wrappers.c **** 
  67:Middlewares/Third_Party/FreeRTOS/Source/portable/Common/mpu_wrappers.c **** 	/* Check whether the processor is already privileged. */
  68:Middlewares/Third_Party/FreeRTOS/Source/portable/Common/mpu_wrappers.c **** 	xRunningPrivileged = portIS_PRIVILEGED();
  38              		.loc 1 68 2 view .LVU2
  39              		.loc 1 68 23 is_stmt 0 view .LVU3
  40 0002 FFF7FEFF 		bl	xIsPrivileged
  41              	.LVL0:
  69:Middlewares/Third_Party/FreeRTOS/Source/portable/Common/mpu_wrappers.c **** 
  70:Middlewares/Third_Party/FreeRTOS/Source/portable/Common/mpu_wrappers.c **** 	/* If the processor is not already privileged, raise privilege. */
  71:Middlewares/Third_Party/FreeRTOS/Source/portable/Common/mpu_wrappers.c **** 	if( xRunningPrivileged != pdTRUE )
  42              		.loc 1 71 2 is_stmt 1 view .LVU4
  43              		.loc 1 71 4 is_stmt 0 view .LVU5
  44 0006 0128     		cmp	r0, #1
ARM GAS  /tmp/ccpAxJaT.s 			page 3


  45 0008 00D0     		beq	.L1
  72:Middlewares/Third_Party/FreeRTOS/Source/portable/Common/mpu_wrappers.c **** 	{
  73:Middlewares/Third_Party/FreeRTOS/Source/portable/Common/mpu_wrappers.c **** 		portRAISE_PRIVILEGE();
  46              		.loc 1 73 3 is_stmt 1 view .LVU6
  47              		.syntax unified
  48              	@ 73 "Middlewares/Third_Party/FreeRTOS/Source/portable/Common/mpu_wrappers.c" 1
  49 000a 02DF     		svc #2 
  50              	
  51              	@ 0 "" 2
  52              		.loc 1 73 24 view .LVU7
  74:Middlewares/Third_Party/FreeRTOS/Source/portable/Common/mpu_wrappers.c **** 	}
  75:Middlewares/Third_Party/FreeRTOS/Source/portable/Common/mpu_wrappers.c **** 
  76:Middlewares/Third_Party/FreeRTOS/Source/portable/Common/mpu_wrappers.c **** 	return xRunningPrivileged;
  53              		.loc 1 76 2 view .LVU8
  54              		.thumb
  55              		.syntax unified
  56              	.L1:
  77:Middlewares/Third_Party/FreeRTOS/Source/portable/Common/mpu_wrappers.c **** }
  57              		.loc 1 77 1 is_stmt 0 view .LVU9
  58 000c 08BD     		pop	{r3, pc}
  59              		.cfi_endproc
  60              	.LFE5:
  62              		.section	.text.vPortResetPrivilege,"ax",%progbits
  63              		.align	1
  64              		.global	vPortResetPrivilege
  65              		.syntax unified
  66              		.thumb
  67              		.thumb_func
  69              	vPortResetPrivilege:
  70              	.LVL1:
  71              	.LFB6:
  78:Middlewares/Third_Party/FreeRTOS/Source/portable/Common/mpu_wrappers.c **** /*-----------------------------------------------------------*/
  79:Middlewares/Third_Party/FreeRTOS/Source/portable/Common/mpu_wrappers.c **** 
  80:Middlewares/Third_Party/FreeRTOS/Source/portable/Common/mpu_wrappers.c **** void vPortResetPrivilege( BaseType_t xRunningPrivileged )
  81:Middlewares/Third_Party/FreeRTOS/Source/portable/Common/mpu_wrappers.c **** {
  72              		.loc 1 81 1 is_stmt 1 view -0
  73              		.cfi_startproc
  74              		@ args = 0, pretend = 0, frame = 0
  75              		@ frame_needed = 0, uses_anonymous_args = 0
  82:Middlewares/Third_Party/FreeRTOS/Source/portable/Common/mpu_wrappers.c **** 	if( xRunningPrivileged != pdTRUE )
  76              		.loc 1 82 2 view .LVU11
  77              		.loc 1 82 4 is_stmt 0 view .LVU12
  78 0000 0128     		cmp	r0, #1
  79 0002 00D1     		bne	.L10
  80 0004 7047     		bx	lr
  81              	.L10:
  81:Middlewares/Third_Party/FreeRTOS/Source/portable/Common/mpu_wrappers.c **** 	if( xRunningPrivileged != pdTRUE )
  82              		.loc 1 81 1 view .LVU13
  83 0006 08B5     		push	{r3, lr}
  84              		.cfi_def_cfa_offset 8
  85              		.cfi_offset 3, -8
  86              		.cfi_offset 14, -4
  83:Middlewares/Third_Party/FreeRTOS/Source/portable/Common/mpu_wrappers.c **** 	{
  84:Middlewares/Third_Party/FreeRTOS/Source/portable/Common/mpu_wrappers.c **** 		portRESET_PRIVILEGE();
  87              		.loc 1 84 3 is_stmt 1 view .LVU14
  88 0008 FFF7FEFF 		bl	vResetPrivilege
  89              	.LVL2:
ARM GAS  /tmp/ccpAxJaT.s 			page 4


  85:Middlewares/Third_Party/FreeRTOS/Source/portable/Common/mpu_wrappers.c **** 	}
  86:Middlewares/Third_Party/FreeRTOS/Source/portable/Common/mpu_wrappers.c **** }
  90              		.loc 1 86 1 is_stmt 0 view .LVU15
  91 000c 08BD     		pop	{r3, pc}
  92              		.cfi_endproc
  93              	.LFE6:
  95              		.section	freertos_system_calls
  96              		.align	1
  97              		.global	MPU_xTaskCreateStatic
  98              		.syntax unified
  99              		.thumb
 100              		.thumb_func
 102              	MPU_xTaskCreateStatic:
 103              	.LVL3:
 104              	.LFB8:
  87:Middlewares/Third_Party/FreeRTOS/Source/portable/Common/mpu_wrappers.c **** /*-----------------------------------------------------------*/
  88:Middlewares/Third_Party/FreeRTOS/Source/portable/Common/mpu_wrappers.c **** 
  89:Middlewares/Third_Party/FreeRTOS/Source/portable/Common/mpu_wrappers.c **** #if( configSUPPORT_DYNAMIC_ALLOCATION == 1 )
  90:Middlewares/Third_Party/FreeRTOS/Source/portable/Common/mpu_wrappers.c **** 	BaseType_t MPU_xTaskCreateRestricted( const TaskParameters_t * const pxTaskDefinition, TaskHandle_
  91:Middlewares/Third_Party/FreeRTOS/Source/portable/Common/mpu_wrappers.c **** 	{
  92:Middlewares/Third_Party/FreeRTOS/Source/portable/Common/mpu_wrappers.c **** 	BaseType_t xReturn;
  93:Middlewares/Third_Party/FreeRTOS/Source/portable/Common/mpu_wrappers.c **** 	BaseType_t xRunningPrivileged = xPortRaisePrivilege();
  94:Middlewares/Third_Party/FreeRTOS/Source/portable/Common/mpu_wrappers.c **** 
  95:Middlewares/Third_Party/FreeRTOS/Source/portable/Common/mpu_wrappers.c **** 		xReturn = xTaskCreateRestricted( pxTaskDefinition, pxCreatedTask );
  96:Middlewares/Third_Party/FreeRTOS/Source/portable/Common/mpu_wrappers.c **** 		vPortResetPrivilege( xRunningPrivileged );
  97:Middlewares/Third_Party/FreeRTOS/Source/portable/Common/mpu_wrappers.c **** 		return xReturn;
  98:Middlewares/Third_Party/FreeRTOS/Source/portable/Common/mpu_wrappers.c **** 	}
  99:Middlewares/Third_Party/FreeRTOS/Source/portable/Common/mpu_wrappers.c **** #endif /* conifgSUPPORT_DYNAMIC_ALLOCATION */
 100:Middlewares/Third_Party/FreeRTOS/Source/portable/Common/mpu_wrappers.c **** /*-----------------------------------------------------------*/
 101:Middlewares/Third_Party/FreeRTOS/Source/portable/Common/mpu_wrappers.c **** 
 102:Middlewares/Third_Party/FreeRTOS/Source/portable/Common/mpu_wrappers.c **** #if( configSUPPORT_STATIC_ALLOCATION == 1 )
 103:Middlewares/Third_Party/FreeRTOS/Source/portable/Common/mpu_wrappers.c **** 	BaseType_t MPU_xTaskCreateRestrictedStatic( const TaskParameters_t * const pxTaskDefinition, TaskH
 104:Middlewares/Third_Party/FreeRTOS/Source/portable/Common/mpu_wrappers.c **** 	{
 105:Middlewares/Third_Party/FreeRTOS/Source/portable/Common/mpu_wrappers.c **** 	BaseType_t xReturn;
 106:Middlewares/Third_Party/FreeRTOS/Source/portable/Common/mpu_wrappers.c **** 	BaseType_t xRunningPrivileged = xPortRaisePrivilege();
 107:Middlewares/Third_Party/FreeRTOS/Source/portable/Common/mpu_wrappers.c **** 
 108:Middlewares/Third_Party/FreeRTOS/Source/portable/Common/mpu_wrappers.c **** 		xReturn = xTaskCreateRestrictedStatic( pxTaskDefinition, pxCreatedTask );
 109:Middlewares/Third_Party/FreeRTOS/Source/portable/Common/mpu_wrappers.c **** 		vPortResetPrivilege( xRunningPrivileged );
 110:Middlewares/Third_Party/FreeRTOS/Source/portable/Common/mpu_wrappers.c **** 		return xReturn;
 111:Middlewares/Third_Party/FreeRTOS/Source/portable/Common/mpu_wrappers.c **** 	}
 112:Middlewares/Third_Party/FreeRTOS/Source/portable/Common/mpu_wrappers.c **** #endif /* conifgSUPPORT_DYNAMIC_ALLOCATION */
 113:Middlewares/Third_Party/FreeRTOS/Source/portable/Common/mpu_wrappers.c **** /*-----------------------------------------------------------*/
 114:Middlewares/Third_Party/FreeRTOS/Source/portable/Common/mpu_wrappers.c **** 
 115:Middlewares/Third_Party/FreeRTOS/Source/portable/Common/mpu_wrappers.c **** #if( configSUPPORT_DYNAMIC_ALLOCATION == 1 )
 116:Middlewares/Third_Party/FreeRTOS/Source/portable/Common/mpu_wrappers.c **** 	BaseType_t MPU_xTaskCreate( TaskFunction_t pvTaskCode, const char * const pcName, uint16_t usStack
 117:Middlewares/Third_Party/FreeRTOS/Source/portable/Common/mpu_wrappers.c **** 	{
 118:Middlewares/Third_Party/FreeRTOS/Source/portable/Common/mpu_wrappers.c **** 	BaseType_t xReturn;
 119:Middlewares/Third_Party/FreeRTOS/Source/portable/Common/mpu_wrappers.c **** 	BaseType_t xRunningPrivileged = xPortRaisePrivilege();
 120:Middlewares/Third_Party/FreeRTOS/Source/portable/Common/mpu_wrappers.c **** 
 121:Middlewares/Third_Party/FreeRTOS/Source/portable/Common/mpu_wrappers.c **** 		xReturn = xTaskCreate( pvTaskCode, pcName, usStackDepth, pvParameters, uxPriority, pxCreatedTask 
 122:Middlewares/Third_Party/FreeRTOS/Source/portable/Common/mpu_wrappers.c **** 		vPortResetPrivilege( xRunningPrivileged );
 123:Middlewares/Third_Party/FreeRTOS/Source/portable/Common/mpu_wrappers.c **** 		return xReturn;
 124:Middlewares/Third_Party/FreeRTOS/Source/portable/Common/mpu_wrappers.c **** 	}
 125:Middlewares/Third_Party/FreeRTOS/Source/portable/Common/mpu_wrappers.c **** #endif /* configSUPPORT_DYNAMIC_ALLOCATION */
 126:Middlewares/Third_Party/FreeRTOS/Source/portable/Common/mpu_wrappers.c **** /*-----------------------------------------------------------*/
 127:Middlewares/Third_Party/FreeRTOS/Source/portable/Common/mpu_wrappers.c **** 
 128:Middlewares/Third_Party/FreeRTOS/Source/portable/Common/mpu_wrappers.c **** #if( configSUPPORT_STATIC_ALLOCATION == 1 )
ARM GAS  /tmp/ccpAxJaT.s 			page 5


 129:Middlewares/Third_Party/FreeRTOS/Source/portable/Common/mpu_wrappers.c **** 	TaskHandle_t MPU_xTaskCreateStatic( TaskFunction_t pxTaskCode, const char * const pcName, const ui
 130:Middlewares/Third_Party/FreeRTOS/Source/portable/Common/mpu_wrappers.c **** 	{
 105              		.loc 1 130 2 is_stmt 1 view -0
 106              		.cfi_startproc
 107              		@ args = 12, pretend = 0, frame = 0
 108              		@ frame_needed = 0, uses_anonymous_args = 0
 109              		.loc 1 130 2 is_stmt 0 view .LVU17
 110 000e 2DE9F041 		push	{r4, r5, r6, r7, r8, lr}
 111              		.cfi_def_cfa_offset 24
 112              		.cfi_offset 4, -24
 113              		.cfi_offset 5, -20
 114              		.cfi_offset 6, -16
 115              		.cfi_offset 7, -12
 116              		.cfi_offset 8, -8
 117              		.cfi_offset 14, -4
 118 0012 84B0     		sub	sp, sp, #16
 119              		.cfi_def_cfa_offset 40
 120 0014 0446     		mov	r4, r0
 121 0016 0E46     		mov	r6, r1
 122 0018 1746     		mov	r7, r2
 123 001a 9846     		mov	r8, r3
 131:Middlewares/Third_Party/FreeRTOS/Source/portable/Common/mpu_wrappers.c **** 	TaskHandle_t xReturn;
 124              		.loc 1 131 2 is_stmt 1 view .LVU18
 132:Middlewares/Third_Party/FreeRTOS/Source/portable/Common/mpu_wrappers.c **** 	BaseType_t xRunningPrivileged = xPortRaisePrivilege();
 125              		.loc 1 132 2 view .LVU19
 126              		.loc 1 132 34 is_stmt 0 view .LVU20
 127 001c FFF7FEFF 		bl	xPortRaisePrivilege
 128              	.LVL4:
 129              		.loc 1 132 34 view .LVU21
 130 0020 0546     		mov	r5, r0
 131              	.LVL5:
 133:Middlewares/Third_Party/FreeRTOS/Source/portable/Common/mpu_wrappers.c **** 
 134:Middlewares/Third_Party/FreeRTOS/Source/portable/Common/mpu_wrappers.c **** 		xReturn = xTaskCreateStatic( pxTaskCode, pcName, ulStackDepth, pvParameters, uxPriority, puxStack
 132              		.loc 1 134 3 is_stmt 1 view .LVU22
 133              		.loc 1 134 13 is_stmt 0 view .LVU23
 134 0022 0C9B     		ldr	r3, [sp, #48]
 135 0024 0293     		str	r3, [sp, #8]
 136 0026 0B9B     		ldr	r3, [sp, #44]
 137 0028 0193     		str	r3, [sp, #4]
 138 002a 0A9B     		ldr	r3, [sp, #40]
 139 002c 0093     		str	r3, [sp]
 140 002e 4346     		mov	r3, r8
 141 0030 3A46     		mov	r2, r7
 142 0032 3146     		mov	r1, r6
 143 0034 2046     		mov	r0, r4
 144              	.LVL6:
 145              		.loc 1 134 13 view .LVU24
 146 0036 FFF7FEFF 		bl	xTaskCreateStatic
 147              	.LVL7:
 148 003a 0446     		mov	r4, r0
 149              	.LVL8:
 135:Middlewares/Third_Party/FreeRTOS/Source/portable/Common/mpu_wrappers.c **** 		vPortResetPrivilege( xRunningPrivileged );
 150              		.loc 1 135 3 is_stmt 1 view .LVU25
 151 003c 2846     		mov	r0, r5
 152              	.LVL9:
 153              		.loc 1 135 3 is_stmt 0 view .LVU26
 154 003e FFF7FEFF 		bl	vPortResetPrivilege
ARM GAS  /tmp/ccpAxJaT.s 			page 6


 155              	.LVL10:
 136:Middlewares/Third_Party/FreeRTOS/Source/portable/Common/mpu_wrappers.c **** 		return xReturn;
 156              		.loc 1 136 3 is_stmt 1 view .LVU27
 137:Middlewares/Third_Party/FreeRTOS/Source/portable/Common/mpu_wrappers.c **** 	}
 157              		.loc 1 137 2 is_stmt 0 view .LVU28
 158 0042 2046     		mov	r0, r4
 159 0044 04B0     		add	sp, sp, #16
 160              		.cfi_def_cfa_offset 24
 161              		@ sp needed
 162 0046 BDE8F081 		pop	{r4, r5, r6, r7, r8, pc}
 163              		.loc 1 137 2 view .LVU29
 164              		.cfi_endproc
 165              	.LFE8:
 167              		.align	1
 168              		.global	MPU_xTaskCreateRestrictedStatic
 169              		.syntax unified
 170              		.thumb
 171              		.thumb_func
 173              	MPU_xTaskCreateRestrictedStatic:
 174              	.LVL11:
 175              	.LFB7:
 104:Middlewares/Third_Party/FreeRTOS/Source/portable/Common/mpu_wrappers.c **** 	BaseType_t xReturn;
 176              		.loc 1 104 2 is_stmt 1 view -0
 177              		.cfi_startproc
 178              		@ args = 0, pretend = 0, frame = 0
 179              		@ frame_needed = 0, uses_anonymous_args = 0
 104:Middlewares/Third_Party/FreeRTOS/Source/portable/Common/mpu_wrappers.c **** 	BaseType_t xReturn;
 180              		.loc 1 104 2 is_stmt 0 view .LVU31
 181 004a 70B5     		push	{r4, r5, r6, lr}
 182              		.cfi_def_cfa_offset 16
 183              		.cfi_offset 4, -16
 184              		.cfi_offset 5, -12
 185              		.cfi_offset 6, -8
 186              		.cfi_offset 14, -4
 187 004c 0446     		mov	r4, r0
 188 004e 0E46     		mov	r6, r1
 105:Middlewares/Third_Party/FreeRTOS/Source/portable/Common/mpu_wrappers.c **** 	BaseType_t xRunningPrivileged = xPortRaisePrivilege();
 189              		.loc 1 105 2 is_stmt 1 view .LVU32
 106:Middlewares/Third_Party/FreeRTOS/Source/portable/Common/mpu_wrappers.c **** 
 190              		.loc 1 106 2 view .LVU33
 106:Middlewares/Third_Party/FreeRTOS/Source/portable/Common/mpu_wrappers.c **** 
 191              		.loc 1 106 34 is_stmt 0 view .LVU34
 192 0050 FFF7FEFF 		bl	xPortRaisePrivilege
 193              	.LVL12:
 106:Middlewares/Third_Party/FreeRTOS/Source/portable/Common/mpu_wrappers.c **** 
 194              		.loc 1 106 34 view .LVU35
 195 0054 0546     		mov	r5, r0
 196              	.LVL13:
 108:Middlewares/Third_Party/FreeRTOS/Source/portable/Common/mpu_wrappers.c **** 		vPortResetPrivilege( xRunningPrivileged );
 197              		.loc 1 108 3 is_stmt 1 view .LVU36
 108:Middlewares/Third_Party/FreeRTOS/Source/portable/Common/mpu_wrappers.c **** 		vPortResetPrivilege( xRunningPrivileged );
 198              		.loc 1 108 13 is_stmt 0 view .LVU37
 199 0056 3146     		mov	r1, r6
 200 0058 2046     		mov	r0, r4
 201              	.LVL14:
 108:Middlewares/Third_Party/FreeRTOS/Source/portable/Common/mpu_wrappers.c **** 		vPortResetPrivilege( xRunningPrivileged );
 202              		.loc 1 108 13 view .LVU38
ARM GAS  /tmp/ccpAxJaT.s 			page 7


 203 005a FFF7FEFF 		bl	xTaskCreateRestrictedStatic
 204              	.LVL15:
 205 005e 0446     		mov	r4, r0
 206              	.LVL16:
 109:Middlewares/Third_Party/FreeRTOS/Source/portable/Common/mpu_wrappers.c **** 		return xReturn;
 207              		.loc 1 109 3 is_stmt 1 view .LVU39
 208 0060 2846     		mov	r0, r5
 209              	.LVL17:
 109:Middlewares/Third_Party/FreeRTOS/Source/portable/Common/mpu_wrappers.c **** 		return xReturn;
 210              		.loc 1 109 3 is_stmt 0 view .LVU40
 211 0062 FFF7FEFF 		bl	vPortResetPrivilege
 212              	.LVL18:
 110:Middlewares/Third_Party/FreeRTOS/Source/portable/Common/mpu_wrappers.c **** 	}
 213              		.loc 1 110 3 is_stmt 1 view .LVU41
 111:Middlewares/Third_Party/FreeRTOS/Source/portable/Common/mpu_wrappers.c **** #endif /* conifgSUPPORT_DYNAMIC_ALLOCATION */
 214              		.loc 1 111 2 is_stmt 0 view .LVU42
 215 0066 2046     		mov	r0, r4
 216 0068 70BD     		pop	{r4, r5, r6, pc}
 111:Middlewares/Third_Party/FreeRTOS/Source/portable/Common/mpu_wrappers.c **** #endif /* conifgSUPPORT_DYNAMIC_ALLOCATION */
 217              		.loc 1 111 2 view .LVU43
 218              		.cfi_endproc
 219              	.LFE7:
 221              		.align	1
 222              		.global	MPU_vTaskAllocateMPURegions
 223              		.syntax unified
 224              		.thumb
 225              		.thumb_func
 227              	MPU_vTaskAllocateMPURegions:
 228              	.LVL19:
 229              	.LFB9:
 138:Middlewares/Third_Party/FreeRTOS/Source/portable/Common/mpu_wrappers.c **** #endif /* configSUPPORT_STATIC_ALLOCATION */
 139:Middlewares/Third_Party/FreeRTOS/Source/portable/Common/mpu_wrappers.c **** /*-----------------------------------------------------------*/
 140:Middlewares/Third_Party/FreeRTOS/Source/portable/Common/mpu_wrappers.c **** 
 141:Middlewares/Third_Party/FreeRTOS/Source/portable/Common/mpu_wrappers.c **** void MPU_vTaskAllocateMPURegions( TaskHandle_t xTask, const MemoryRegion_t * const xRegions ) /* FR
 142:Middlewares/Third_Party/FreeRTOS/Source/portable/Common/mpu_wrappers.c **** {
 230              		.loc 1 142 1 is_stmt 1 view -0
 231              		.cfi_startproc
 232              		@ args = 0, pretend = 0, frame = 0
 233              		@ frame_needed = 0, uses_anonymous_args = 0
 234              		.loc 1 142 1 is_stmt 0 view .LVU45
 235 006a 70B5     		push	{r4, r5, r6, lr}
 236              		.cfi_def_cfa_offset 16
 237              		.cfi_offset 4, -16
 238              		.cfi_offset 5, -12
 239              		.cfi_offset 6, -8
 240              		.cfi_offset 14, -4
 241 006c 0546     		mov	r5, r0
 242 006e 0E46     		mov	r6, r1
 143:Middlewares/Third_Party/FreeRTOS/Source/portable/Common/mpu_wrappers.c **** BaseType_t xRunningPrivileged = xPortRaisePrivilege();
 243              		.loc 1 143 1 is_stmt 1 view .LVU46
 244              		.loc 1 143 33 is_stmt 0 view .LVU47
 245 0070 FFF7FEFF 		bl	xPortRaisePrivilege
 246              	.LVL20:
 247              		.loc 1 143 33 view .LVU48
 248 0074 0446     		mov	r4, r0
 249              	.LVL21:
 144:Middlewares/Third_Party/FreeRTOS/Source/portable/Common/mpu_wrappers.c **** 
ARM GAS  /tmp/ccpAxJaT.s 			page 8


 145:Middlewares/Third_Party/FreeRTOS/Source/portable/Common/mpu_wrappers.c **** 	vTaskAllocateMPURegions( xTask, xRegions );
 250              		.loc 1 145 2 is_stmt 1 view .LVU49
 251 0076 3146     		mov	r1, r6
 252 0078 2846     		mov	r0, r5
 253              	.LVL22:
 254              		.loc 1 145 2 is_stmt 0 view .LVU50
 255 007a FFF7FEFF 		bl	vTaskAllocateMPURegions
 256              	.LVL23:
 146:Middlewares/Third_Party/FreeRTOS/Source/portable/Common/mpu_wrappers.c **** 	vPortResetPrivilege( xRunningPrivileged );
 257              		.loc 1 146 2 is_stmt 1 view .LVU51
 258 007e 2046     		mov	r0, r4
 259 0080 FFF7FEFF 		bl	vPortResetPrivilege
 260              	.LVL24:
 147:Middlewares/Third_Party/FreeRTOS/Source/portable/Common/mpu_wrappers.c **** }
 261              		.loc 1 147 1 is_stmt 0 view .LVU52
 262 0084 70BD     		pop	{r4, r5, r6, pc}
 263              		.loc 1 147 1 view .LVU53
 264              		.cfi_endproc
 265              	.LFE9:
 267              		.align	1
 268              		.global	MPU_vTaskDelete
 269              		.syntax unified
 270              		.thumb
 271              		.thumb_func
 273              	MPU_vTaskDelete:
 274              	.LVL25:
 275              	.LFB10:
 148:Middlewares/Third_Party/FreeRTOS/Source/portable/Common/mpu_wrappers.c **** /*-----------------------------------------------------------*/
 149:Middlewares/Third_Party/FreeRTOS/Source/portable/Common/mpu_wrappers.c **** 
 150:Middlewares/Third_Party/FreeRTOS/Source/portable/Common/mpu_wrappers.c **** #if ( INCLUDE_vTaskDelete == 1 )
 151:Middlewares/Third_Party/FreeRTOS/Source/portable/Common/mpu_wrappers.c **** 	void MPU_vTaskDelete( TaskHandle_t pxTaskToDelete ) /* FREERTOS_SYSTEM_CALL */
 152:Middlewares/Third_Party/FreeRTOS/Source/portable/Common/mpu_wrappers.c **** 	{
 276              		.loc 1 152 2 is_stmt 1 view -0
 277              		.cfi_startproc
 278              		@ args = 0, pretend = 0, frame = 0
 279              		@ frame_needed = 0, uses_anonymous_args = 0
 280              		.loc 1 152 2 is_stmt 0 view .LVU55
 281 0086 38B5     		push	{r3, r4, r5, lr}
 282              		.cfi_def_cfa_offset 16
 283              		.cfi_offset 3, -16
 284              		.cfi_offset 4, -12
 285              		.cfi_offset 5, -8
 286              		.cfi_offset 14, -4
 287 0088 0546     		mov	r5, r0
 153:Middlewares/Third_Party/FreeRTOS/Source/portable/Common/mpu_wrappers.c **** 	BaseType_t xRunningPrivileged = xPortRaisePrivilege();
 288              		.loc 1 153 2 is_stmt 1 view .LVU56
 289              		.loc 1 153 34 is_stmt 0 view .LVU57
 290 008a FFF7FEFF 		bl	xPortRaisePrivilege
 291              	.LVL26:
 292              		.loc 1 153 34 view .LVU58
 293 008e 0446     		mov	r4, r0
 294              	.LVL27:
 154:Middlewares/Third_Party/FreeRTOS/Source/portable/Common/mpu_wrappers.c **** 
 155:Middlewares/Third_Party/FreeRTOS/Source/portable/Common/mpu_wrappers.c **** 		vTaskDelete( pxTaskToDelete );
 295              		.loc 1 155 3 is_stmt 1 view .LVU59
 296 0090 2846     		mov	r0, r5
 297              	.LVL28:
ARM GAS  /tmp/ccpAxJaT.s 			page 9


 298              		.loc 1 155 3 is_stmt 0 view .LVU60
 299 0092 FFF7FEFF 		bl	vTaskDelete
 300              	.LVL29:
 156:Middlewares/Third_Party/FreeRTOS/Source/portable/Common/mpu_wrappers.c **** 		vPortResetPrivilege( xRunningPrivileged );
 301              		.loc 1 156 3 is_stmt 1 view .LVU61
 302 0096 2046     		mov	r0, r4
 303 0098 FFF7FEFF 		bl	vPortResetPrivilege
 304              	.LVL30:
 157:Middlewares/Third_Party/FreeRTOS/Source/portable/Common/mpu_wrappers.c **** 	}
 305              		.loc 1 157 2 is_stmt 0 view .LVU62
 306 009c 38BD     		pop	{r3, r4, r5, pc}
 307              		.loc 1 157 2 view .LVU63
 308              		.cfi_endproc
 309              	.LFE10:
 311              		.align	1
 312              		.global	MPU_vTaskDelay
 313              		.syntax unified
 314              		.thumb
 315              		.thumb_func
 317              	MPU_vTaskDelay:
 318              	.LVL31:
 319              	.LFB12:
 158:Middlewares/Third_Party/FreeRTOS/Source/portable/Common/mpu_wrappers.c **** #endif
 159:Middlewares/Third_Party/FreeRTOS/Source/portable/Common/mpu_wrappers.c **** /*-----------------------------------------------------------*/
 160:Middlewares/Third_Party/FreeRTOS/Source/portable/Common/mpu_wrappers.c **** 
 161:Middlewares/Third_Party/FreeRTOS/Source/portable/Common/mpu_wrappers.c **** #if ( INCLUDE_vTaskDelayUntil == 1 )
 162:Middlewares/Third_Party/FreeRTOS/Source/portable/Common/mpu_wrappers.c **** 	void MPU_vTaskDelayUntil( TickType_t * const pxPreviousWakeTime, TickType_t xTimeIncrement ) /* FR
 163:Middlewares/Third_Party/FreeRTOS/Source/portable/Common/mpu_wrappers.c **** 	{
 164:Middlewares/Third_Party/FreeRTOS/Source/portable/Common/mpu_wrappers.c **** 	BaseType_t xRunningPrivileged = xPortRaisePrivilege();
 165:Middlewares/Third_Party/FreeRTOS/Source/portable/Common/mpu_wrappers.c **** 
 166:Middlewares/Third_Party/FreeRTOS/Source/portable/Common/mpu_wrappers.c **** 		vTaskDelayUntil( pxPreviousWakeTime, xTimeIncrement );
 167:Middlewares/Third_Party/FreeRTOS/Source/portable/Common/mpu_wrappers.c **** 		vPortResetPrivilege( xRunningPrivileged );
 168:Middlewares/Third_Party/FreeRTOS/Source/portable/Common/mpu_wrappers.c **** 	}
 169:Middlewares/Third_Party/FreeRTOS/Source/portable/Common/mpu_wrappers.c **** #endif
 170:Middlewares/Third_Party/FreeRTOS/Source/portable/Common/mpu_wrappers.c **** /*-----------------------------------------------------------*/
 171:Middlewares/Third_Party/FreeRTOS/Source/portable/Common/mpu_wrappers.c **** 
 172:Middlewares/Third_Party/FreeRTOS/Source/portable/Common/mpu_wrappers.c **** #if ( INCLUDE_xTaskAbortDelay == 1 )
 173:Middlewares/Third_Party/FreeRTOS/Source/portable/Common/mpu_wrappers.c **** 	BaseType_t MPU_xTaskAbortDelay( TaskHandle_t xTask ) /* FREERTOS_SYSTEM_CALL */
 174:Middlewares/Third_Party/FreeRTOS/Source/portable/Common/mpu_wrappers.c **** 	{
 175:Middlewares/Third_Party/FreeRTOS/Source/portable/Common/mpu_wrappers.c **** 	BaseType_t xReturn;
 176:Middlewares/Third_Party/FreeRTOS/Source/portable/Common/mpu_wrappers.c **** 	BaseType_t xRunningPrivileged = xPortRaisePrivilege();
 177:Middlewares/Third_Party/FreeRTOS/Source/portable/Common/mpu_wrappers.c **** 
 178:Middlewares/Third_Party/FreeRTOS/Source/portable/Common/mpu_wrappers.c **** 		xReturn = xTaskAbortDelay( xTask );
 179:Middlewares/Third_Party/FreeRTOS/Source/portable/Common/mpu_wrappers.c **** 		vPortResetPrivilege( xRunningPrivileged );
 180:Middlewares/Third_Party/FreeRTOS/Source/portable/Common/mpu_wrappers.c **** 		return xReturn;
 181:Middlewares/Third_Party/FreeRTOS/Source/portable/Common/mpu_wrappers.c **** 	}
 182:Middlewares/Third_Party/FreeRTOS/Source/portable/Common/mpu_wrappers.c **** #endif
 183:Middlewares/Third_Party/FreeRTOS/Source/portable/Common/mpu_wrappers.c **** /*-----------------------------------------------------------*/
 184:Middlewares/Third_Party/FreeRTOS/Source/portable/Common/mpu_wrappers.c **** 
 185:Middlewares/Third_Party/FreeRTOS/Source/portable/Common/mpu_wrappers.c **** #if ( INCLUDE_vTaskDelay == 1 )
 186:Middlewares/Third_Party/FreeRTOS/Source/portable/Common/mpu_wrappers.c **** 	void MPU_vTaskDelay( TickType_t xTicksToDelay ) /* FREERTOS_SYSTEM_CALL */
 187:Middlewares/Third_Party/FreeRTOS/Source/portable/Common/mpu_wrappers.c **** 	{
 320              		.loc 1 187 2 is_stmt 1 view -0
 321              		.cfi_startproc
 322              		@ args = 0, pretend = 0, frame = 0
 323              		@ frame_needed = 0, uses_anonymous_args = 0
 324              		.loc 1 187 2 is_stmt 0 view .LVU65
ARM GAS  /tmp/ccpAxJaT.s 			page 10


 325 009e 38B5     		push	{r3, r4, r5, lr}
 326              		.cfi_def_cfa_offset 16
 327              		.cfi_offset 3, -16
 328              		.cfi_offset 4, -12
 329              		.cfi_offset 5, -8
 330              		.cfi_offset 14, -4
 331 00a0 0546     		mov	r5, r0
 188:Middlewares/Third_Party/FreeRTOS/Source/portable/Common/mpu_wrappers.c **** 	BaseType_t xRunningPrivileged = xPortRaisePrivilege();
 332              		.loc 1 188 2 is_stmt 1 view .LVU66
 333              		.loc 1 188 34 is_stmt 0 view .LVU67
 334 00a2 FFF7FEFF 		bl	xPortRaisePrivilege
 335              	.LVL32:
 336              		.loc 1 188 34 view .LVU68
 337 00a6 0446     		mov	r4, r0
 338              	.LVL33:
 189:Middlewares/Third_Party/FreeRTOS/Source/portable/Common/mpu_wrappers.c **** 
 190:Middlewares/Third_Party/FreeRTOS/Source/portable/Common/mpu_wrappers.c **** 		vTaskDelay( xTicksToDelay );
 339              		.loc 1 190 3 is_stmt 1 view .LVU69
 340 00a8 2846     		mov	r0, r5
 341              	.LVL34:
 342              		.loc 1 190 3 is_stmt 0 view .LVU70
 343 00aa FFF7FEFF 		bl	vTaskDelay
 344              	.LVL35:
 191:Middlewares/Third_Party/FreeRTOS/Source/portable/Common/mpu_wrappers.c **** 		vPortResetPrivilege( xRunningPrivileged );
 345              		.loc 1 191 3 is_stmt 1 view .LVU71
 346 00ae 2046     		mov	r0, r4
 347 00b0 FFF7FEFF 		bl	vPortResetPrivilege
 348              	.LVL36:
 192:Middlewares/Third_Party/FreeRTOS/Source/portable/Common/mpu_wrappers.c **** 	}
 349              		.loc 1 192 2 is_stmt 0 view .LVU72
 350 00b4 38BD     		pop	{r3, r4, r5, pc}
 351              		.loc 1 192 2 view .LVU73
 352              		.cfi_endproc
 353              	.LFE12:
 355              		.align	1
 356              		.global	MPU_vTaskDelayUntil
 357              		.syntax unified
 358              		.thumb
 359              		.thumb_func
 361              	MPU_vTaskDelayUntil:
 362              	.LVL37:
 363              	.LFB11:
 163:Middlewares/Third_Party/FreeRTOS/Source/portable/Common/mpu_wrappers.c **** 	BaseType_t xRunningPrivileged = xPortRaisePrivilege();
 364              		.loc 1 163 2 is_stmt 1 view -0
 365              		.cfi_startproc
 366              		@ args = 0, pretend = 0, frame = 0
 367              		@ frame_needed = 0, uses_anonymous_args = 0
 163:Middlewares/Third_Party/FreeRTOS/Source/portable/Common/mpu_wrappers.c **** 	BaseType_t xRunningPrivileged = xPortRaisePrivilege();
 368              		.loc 1 163 2 is_stmt 0 view .LVU75
 369 00b6 70B5     		push	{r4, r5, r6, lr}
 370              		.cfi_def_cfa_offset 16
 371              		.cfi_offset 4, -16
 372              		.cfi_offset 5, -12
 373              		.cfi_offset 6, -8
 374              		.cfi_offset 14, -4
 375 00b8 0546     		mov	r5, r0
 376 00ba 0E46     		mov	r6, r1
ARM GAS  /tmp/ccpAxJaT.s 			page 11


 164:Middlewares/Third_Party/FreeRTOS/Source/portable/Common/mpu_wrappers.c **** 
 377              		.loc 1 164 2 is_stmt 1 view .LVU76
 164:Middlewares/Third_Party/FreeRTOS/Source/portable/Common/mpu_wrappers.c **** 
 378              		.loc 1 164 34 is_stmt 0 view .LVU77
 379 00bc FFF7FEFF 		bl	xPortRaisePrivilege
 380              	.LVL38:
 164:Middlewares/Third_Party/FreeRTOS/Source/portable/Common/mpu_wrappers.c **** 
 381              		.loc 1 164 34 view .LVU78
 382 00c0 0446     		mov	r4, r0
 383              	.LVL39:
 166:Middlewares/Third_Party/FreeRTOS/Source/portable/Common/mpu_wrappers.c **** 		vPortResetPrivilege( xRunningPrivileged );
 384              		.loc 1 166 3 is_stmt 1 view .LVU79
 385 00c2 3146     		mov	r1, r6
 386 00c4 2846     		mov	r0, r5
 387              	.LVL40:
 166:Middlewares/Third_Party/FreeRTOS/Source/portable/Common/mpu_wrappers.c **** 		vPortResetPrivilege( xRunningPrivileged );
 388              		.loc 1 166 3 is_stmt 0 view .LVU80
 389 00c6 FFF7FEFF 		bl	vTaskDelayUntil
 390              	.LVL41:
 167:Middlewares/Third_Party/FreeRTOS/Source/portable/Common/mpu_wrappers.c **** 	}
 391              		.loc 1 167 3 is_stmt 1 view .LVU81
 392 00ca 2046     		mov	r0, r4
 393 00cc FFF7FEFF 		bl	vPortResetPrivilege
 394              	.LVL42:
 168:Middlewares/Third_Party/FreeRTOS/Source/portable/Common/mpu_wrappers.c **** #endif
 395              		.loc 1 168 2 is_stmt 0 view .LVU82
 396 00d0 70BD     		pop	{r4, r5, r6, pc}
 168:Middlewares/Third_Party/FreeRTOS/Source/portable/Common/mpu_wrappers.c **** #endif
 397              		.loc 1 168 2 view .LVU83
 398              		.cfi_endproc
 399              	.LFE11:
 401              		.align	1
 402              		.global	MPU_uxTaskPriorityGet
 403              		.syntax unified
 404              		.thumb
 405              		.thumb_func
 407              	MPU_uxTaskPriorityGet:
 408              	.LVL43:
 409              	.LFB13:
 193:Middlewares/Third_Party/FreeRTOS/Source/portable/Common/mpu_wrappers.c **** #endif
 194:Middlewares/Third_Party/FreeRTOS/Source/portable/Common/mpu_wrappers.c **** /*-----------------------------------------------------------*/
 195:Middlewares/Third_Party/FreeRTOS/Source/portable/Common/mpu_wrappers.c **** 
 196:Middlewares/Third_Party/FreeRTOS/Source/portable/Common/mpu_wrappers.c **** #if ( INCLUDE_uxTaskPriorityGet == 1 )
 197:Middlewares/Third_Party/FreeRTOS/Source/portable/Common/mpu_wrappers.c **** 	UBaseType_t MPU_uxTaskPriorityGet( const TaskHandle_t pxTask ) /* FREERTOS_SYSTEM_CALL */
 198:Middlewares/Third_Party/FreeRTOS/Source/portable/Common/mpu_wrappers.c **** 	{
 410              		.loc 1 198 2 is_stmt 1 view -0
 411              		.cfi_startproc
 412              		@ args = 0, pretend = 0, frame = 0
 413              		@ frame_needed = 0, uses_anonymous_args = 0
 414              		.loc 1 198 2 is_stmt 0 view .LVU85
 415 00d2 38B5     		push	{r3, r4, r5, lr}
 416              		.cfi_def_cfa_offset 16
 417              		.cfi_offset 3, -16
 418              		.cfi_offset 4, -12
 419              		.cfi_offset 5, -8
 420              		.cfi_offset 14, -4
 421 00d4 0446     		mov	r4, r0
ARM GAS  /tmp/ccpAxJaT.s 			page 12


 199:Middlewares/Third_Party/FreeRTOS/Source/portable/Common/mpu_wrappers.c **** 	UBaseType_t uxReturn;
 422              		.loc 1 199 2 is_stmt 1 view .LVU86
 200:Middlewares/Third_Party/FreeRTOS/Source/portable/Common/mpu_wrappers.c **** 	BaseType_t xRunningPrivileged = xPortRaisePrivilege();
 423              		.loc 1 200 2 view .LVU87
 424              		.loc 1 200 34 is_stmt 0 view .LVU88
 425 00d6 FFF7FEFF 		bl	xPortRaisePrivilege
 426              	.LVL44:
 427              		.loc 1 200 34 view .LVU89
 428 00da 0546     		mov	r5, r0
 429              	.LVL45:
 201:Middlewares/Third_Party/FreeRTOS/Source/portable/Common/mpu_wrappers.c **** 
 202:Middlewares/Third_Party/FreeRTOS/Source/portable/Common/mpu_wrappers.c **** 		uxReturn = uxTaskPriorityGet( pxTask );
 430              		.loc 1 202 3 is_stmt 1 view .LVU90
 431              		.loc 1 202 14 is_stmt 0 view .LVU91
 432 00dc 2046     		mov	r0, r4
 433              	.LVL46:
 434              		.loc 1 202 14 view .LVU92
 435 00de FFF7FEFF 		bl	uxTaskPriorityGet
 436              	.LVL47:
 437 00e2 0446     		mov	r4, r0
 438              	.LVL48:
 203:Middlewares/Third_Party/FreeRTOS/Source/portable/Common/mpu_wrappers.c **** 		vPortResetPrivilege( xRunningPrivileged );
 439              		.loc 1 203 3 is_stmt 1 view .LVU93
 440 00e4 2846     		mov	r0, r5
 441              	.LVL49:
 442              		.loc 1 203 3 is_stmt 0 view .LVU94
 443 00e6 FFF7FEFF 		bl	vPortResetPrivilege
 444              	.LVL50:
 204:Middlewares/Third_Party/FreeRTOS/Source/portable/Common/mpu_wrappers.c **** 		return uxReturn;
 445              		.loc 1 204 3 is_stmt 1 view .LVU95
 205:Middlewares/Third_Party/FreeRTOS/Source/portable/Common/mpu_wrappers.c **** 	}
 446              		.loc 1 205 2 is_stmt 0 view .LVU96
 447 00ea 2046     		mov	r0, r4
 448 00ec 38BD     		pop	{r3, r4, r5, pc}
 449              		.loc 1 205 2 view .LVU97
 450              		.cfi_endproc
 451              	.LFE13:
 453              		.align	1
 454              		.global	MPU_vTaskPrioritySet
 455              		.syntax unified
 456              		.thumb
 457              		.thumb_func
 459              	MPU_vTaskPrioritySet:
 460              	.LVL51:
 461              	.LFB14:
 206:Middlewares/Third_Party/FreeRTOS/Source/portable/Common/mpu_wrappers.c **** #endif
 207:Middlewares/Third_Party/FreeRTOS/Source/portable/Common/mpu_wrappers.c **** /*-----------------------------------------------------------*/
 208:Middlewares/Third_Party/FreeRTOS/Source/portable/Common/mpu_wrappers.c **** 
 209:Middlewares/Third_Party/FreeRTOS/Source/portable/Common/mpu_wrappers.c **** #if ( INCLUDE_vTaskPrioritySet == 1 )
 210:Middlewares/Third_Party/FreeRTOS/Source/portable/Common/mpu_wrappers.c **** 	void MPU_vTaskPrioritySet( TaskHandle_t pxTask, UBaseType_t uxNewPriority ) /* FREERTOS_SYSTEM_CAL
 211:Middlewares/Third_Party/FreeRTOS/Source/portable/Common/mpu_wrappers.c **** 	{
 462              		.loc 1 211 2 is_stmt 1 view -0
 463              		.cfi_startproc
 464              		@ args = 0, pretend = 0, frame = 0
 465              		@ frame_needed = 0, uses_anonymous_args = 0
 466              		.loc 1 211 2 is_stmt 0 view .LVU99
 467 00ee 70B5     		push	{r4, r5, r6, lr}
ARM GAS  /tmp/ccpAxJaT.s 			page 13


 468              		.cfi_def_cfa_offset 16
 469              		.cfi_offset 4, -16
 470              		.cfi_offset 5, -12
 471              		.cfi_offset 6, -8
 472              		.cfi_offset 14, -4
 473 00f0 0546     		mov	r5, r0
 474 00f2 0E46     		mov	r6, r1
 212:Middlewares/Third_Party/FreeRTOS/Source/portable/Common/mpu_wrappers.c **** 	BaseType_t xRunningPrivileged = xPortRaisePrivilege();
 475              		.loc 1 212 2 is_stmt 1 view .LVU100
 476              		.loc 1 212 34 is_stmt 0 view .LVU101
 477 00f4 FFF7FEFF 		bl	xPortRaisePrivilege
 478              	.LVL52:
 479              		.loc 1 212 34 view .LVU102
 480 00f8 0446     		mov	r4, r0
 481              	.LVL53:
 213:Middlewares/Third_Party/FreeRTOS/Source/portable/Common/mpu_wrappers.c **** 
 214:Middlewares/Third_Party/FreeRTOS/Source/portable/Common/mpu_wrappers.c **** 		vTaskPrioritySet( pxTask, uxNewPriority );
 482              		.loc 1 214 3 is_stmt 1 view .LVU103
 483 00fa 3146     		mov	r1, r6
 484 00fc 2846     		mov	r0, r5
 485              	.LVL54:
 486              		.loc 1 214 3 is_stmt 0 view .LVU104
 487 00fe FFF7FEFF 		bl	vTaskPrioritySet
 488              	.LVL55:
 215:Middlewares/Third_Party/FreeRTOS/Source/portable/Common/mpu_wrappers.c **** 		vPortResetPrivilege( xRunningPrivileged );
 489              		.loc 1 215 3 is_stmt 1 view .LVU105
 490 0102 2046     		mov	r0, r4
 491 0104 FFF7FEFF 		bl	vPortResetPrivilege
 492              	.LVL56:
 216:Middlewares/Third_Party/FreeRTOS/Source/portable/Common/mpu_wrappers.c **** 	}
 493              		.loc 1 216 2 is_stmt 0 view .LVU106
 494 0108 70BD     		pop	{r4, r5, r6, pc}
 495              		.loc 1 216 2 view .LVU107
 496              		.cfi_endproc
 497              	.LFE14:
 499              		.align	1
 500              		.global	MPU_vTaskSuspend
 501              		.syntax unified
 502              		.thumb
 503              		.thumb_func
 505              	MPU_vTaskSuspend:
 506              	.LVL57:
 507              	.LFB15:
 217:Middlewares/Third_Party/FreeRTOS/Source/portable/Common/mpu_wrappers.c **** #endif
 218:Middlewares/Third_Party/FreeRTOS/Source/portable/Common/mpu_wrappers.c **** /*-----------------------------------------------------------*/
 219:Middlewares/Third_Party/FreeRTOS/Source/portable/Common/mpu_wrappers.c **** 
 220:Middlewares/Third_Party/FreeRTOS/Source/portable/Common/mpu_wrappers.c **** #if ( INCLUDE_eTaskGetState == 1 )
 221:Middlewares/Third_Party/FreeRTOS/Source/portable/Common/mpu_wrappers.c **** 	eTaskState MPU_eTaskGetState( TaskHandle_t pxTask ) /* FREERTOS_SYSTEM_CALL */
 222:Middlewares/Third_Party/FreeRTOS/Source/portable/Common/mpu_wrappers.c **** 	{
 223:Middlewares/Third_Party/FreeRTOS/Source/portable/Common/mpu_wrappers.c **** 	BaseType_t xRunningPrivileged = xPortRaisePrivilege();
 224:Middlewares/Third_Party/FreeRTOS/Source/portable/Common/mpu_wrappers.c **** 	eTaskState eReturn;
 225:Middlewares/Third_Party/FreeRTOS/Source/portable/Common/mpu_wrappers.c **** 
 226:Middlewares/Third_Party/FreeRTOS/Source/portable/Common/mpu_wrappers.c **** 		eReturn = eTaskGetState( pxTask );
 227:Middlewares/Third_Party/FreeRTOS/Source/portable/Common/mpu_wrappers.c **** 		vPortResetPrivilege( xRunningPrivileged );
 228:Middlewares/Third_Party/FreeRTOS/Source/portable/Common/mpu_wrappers.c **** 		return eReturn;
 229:Middlewares/Third_Party/FreeRTOS/Source/portable/Common/mpu_wrappers.c **** 	}
 230:Middlewares/Third_Party/FreeRTOS/Source/portable/Common/mpu_wrappers.c **** #endif
ARM GAS  /tmp/ccpAxJaT.s 			page 14


 231:Middlewares/Third_Party/FreeRTOS/Source/portable/Common/mpu_wrappers.c **** /*-----------------------------------------------------------*/
 232:Middlewares/Third_Party/FreeRTOS/Source/portable/Common/mpu_wrappers.c **** 
 233:Middlewares/Third_Party/FreeRTOS/Source/portable/Common/mpu_wrappers.c **** #if( configUSE_TRACE_FACILITY == 1 )
 234:Middlewares/Third_Party/FreeRTOS/Source/portable/Common/mpu_wrappers.c **** 	void MPU_vTaskGetInfo( TaskHandle_t xTask, TaskStatus_t *pxTaskStatus, BaseType_t xGetFreeStackSpa
 235:Middlewares/Third_Party/FreeRTOS/Source/portable/Common/mpu_wrappers.c **** 	{
 236:Middlewares/Third_Party/FreeRTOS/Source/portable/Common/mpu_wrappers.c **** 	BaseType_t xRunningPrivileged = xPortRaisePrivilege();
 237:Middlewares/Third_Party/FreeRTOS/Source/portable/Common/mpu_wrappers.c **** 
 238:Middlewares/Third_Party/FreeRTOS/Source/portable/Common/mpu_wrappers.c **** 		vTaskGetInfo( xTask, pxTaskStatus, xGetFreeStackSpace, eState );
 239:Middlewares/Third_Party/FreeRTOS/Source/portable/Common/mpu_wrappers.c **** 		vPortResetPrivilege( xRunningPrivileged );
 240:Middlewares/Third_Party/FreeRTOS/Source/portable/Common/mpu_wrappers.c **** 	}
 241:Middlewares/Third_Party/FreeRTOS/Source/portable/Common/mpu_wrappers.c **** #endif
 242:Middlewares/Third_Party/FreeRTOS/Source/portable/Common/mpu_wrappers.c **** /*-----------------------------------------------------------*/
 243:Middlewares/Third_Party/FreeRTOS/Source/portable/Common/mpu_wrappers.c **** 
 244:Middlewares/Third_Party/FreeRTOS/Source/portable/Common/mpu_wrappers.c **** #if ( INCLUDE_xTaskGetIdleTaskHandle == 1 )
 245:Middlewares/Third_Party/FreeRTOS/Source/portable/Common/mpu_wrappers.c **** 	TaskHandle_t MPU_xTaskGetIdleTaskHandle( void ) /* FREERTOS_SYSTEM_CALL */
 246:Middlewares/Third_Party/FreeRTOS/Source/portable/Common/mpu_wrappers.c **** 	{
 247:Middlewares/Third_Party/FreeRTOS/Source/portable/Common/mpu_wrappers.c **** 	TaskHandle_t xReturn;
 248:Middlewares/Third_Party/FreeRTOS/Source/portable/Common/mpu_wrappers.c **** 	BaseType_t xRunningPrivileged = xPortRaisePrivilege();
 249:Middlewares/Third_Party/FreeRTOS/Source/portable/Common/mpu_wrappers.c **** 
 250:Middlewares/Third_Party/FreeRTOS/Source/portable/Common/mpu_wrappers.c **** 		xReturn = xTaskGetIdleTaskHandle();
 251:Middlewares/Third_Party/FreeRTOS/Source/portable/Common/mpu_wrappers.c **** 		vPortResetPrivilege( xRunningPrivileged );
 252:Middlewares/Third_Party/FreeRTOS/Source/portable/Common/mpu_wrappers.c **** 		return xReturn;
 253:Middlewares/Third_Party/FreeRTOS/Source/portable/Common/mpu_wrappers.c **** 	}
 254:Middlewares/Third_Party/FreeRTOS/Source/portable/Common/mpu_wrappers.c **** #endif
 255:Middlewares/Third_Party/FreeRTOS/Source/portable/Common/mpu_wrappers.c **** /*-----------------------------------------------------------*/
 256:Middlewares/Third_Party/FreeRTOS/Source/portable/Common/mpu_wrappers.c **** 
 257:Middlewares/Third_Party/FreeRTOS/Source/portable/Common/mpu_wrappers.c **** #if ( INCLUDE_vTaskSuspend == 1 )
 258:Middlewares/Third_Party/FreeRTOS/Source/portable/Common/mpu_wrappers.c **** 	void MPU_vTaskSuspend( TaskHandle_t pxTaskToSuspend ) /* FREERTOS_SYSTEM_CALL */
 259:Middlewares/Third_Party/FreeRTOS/Source/portable/Common/mpu_wrappers.c **** 	{
 508              		.loc 1 259 2 is_stmt 1 view -0
 509              		.cfi_startproc
 510              		@ args = 0, pretend = 0, frame = 0
 511              		@ frame_needed = 0, uses_anonymous_args = 0
 512              		.loc 1 259 2 is_stmt 0 view .LVU109
 513 010a 38B5     		push	{r3, r4, r5, lr}
 514              		.cfi_def_cfa_offset 16
 515              		.cfi_offset 3, -16
 516              		.cfi_offset 4, -12
 517              		.cfi_offset 5, -8
 518              		.cfi_offset 14, -4
 519 010c 0546     		mov	r5, r0
 260:Middlewares/Third_Party/FreeRTOS/Source/portable/Common/mpu_wrappers.c **** 	BaseType_t xRunningPrivileged = xPortRaisePrivilege();
 520              		.loc 1 260 2 is_stmt 1 view .LVU110
 521              		.loc 1 260 34 is_stmt 0 view .LVU111
 522 010e FFF7FEFF 		bl	xPortRaisePrivilege
 523              	.LVL58:
 524              		.loc 1 260 34 view .LVU112
 525 0112 0446     		mov	r4, r0
 526              	.LVL59:
 261:Middlewares/Third_Party/FreeRTOS/Source/portable/Common/mpu_wrappers.c **** 
 262:Middlewares/Third_Party/FreeRTOS/Source/portable/Common/mpu_wrappers.c **** 		vTaskSuspend( pxTaskToSuspend );
 527              		.loc 1 262 3 is_stmt 1 view .LVU113
 528 0114 2846     		mov	r0, r5
 529              	.LVL60:
 530              		.loc 1 262 3 is_stmt 0 view .LVU114
 531 0116 FFF7FEFF 		bl	vTaskSuspend
 532              	.LVL61:
ARM GAS  /tmp/ccpAxJaT.s 			page 15


 263:Middlewares/Third_Party/FreeRTOS/Source/portable/Common/mpu_wrappers.c **** 		vPortResetPrivilege( xRunningPrivileged );
 533              		.loc 1 263 3 is_stmt 1 view .LVU115
 534 011a 2046     		mov	r0, r4
 535 011c FFF7FEFF 		bl	vPortResetPrivilege
 536              	.LVL62:
 264:Middlewares/Third_Party/FreeRTOS/Source/portable/Common/mpu_wrappers.c **** 	}
 537              		.loc 1 264 2 is_stmt 0 view .LVU116
 538 0120 38BD     		pop	{r3, r4, r5, pc}
 539              		.loc 1 264 2 view .LVU117
 540              		.cfi_endproc
 541              	.LFE15:
 543              		.align	1
 544              		.global	MPU_vTaskResume
 545              		.syntax unified
 546              		.thumb
 547              		.thumb_func
 549              	MPU_vTaskResume:
 550              	.LVL63:
 551              	.LFB16:
 265:Middlewares/Third_Party/FreeRTOS/Source/portable/Common/mpu_wrappers.c **** #endif
 266:Middlewares/Third_Party/FreeRTOS/Source/portable/Common/mpu_wrappers.c **** /*-----------------------------------------------------------*/
 267:Middlewares/Third_Party/FreeRTOS/Source/portable/Common/mpu_wrappers.c **** 
 268:Middlewares/Third_Party/FreeRTOS/Source/portable/Common/mpu_wrappers.c **** #if ( INCLUDE_vTaskSuspend == 1 )
 269:Middlewares/Third_Party/FreeRTOS/Source/portable/Common/mpu_wrappers.c **** 	void MPU_vTaskResume( TaskHandle_t pxTaskToResume ) /* FREERTOS_SYSTEM_CALL */
 270:Middlewares/Third_Party/FreeRTOS/Source/portable/Common/mpu_wrappers.c **** 	{
 552              		.loc 1 270 2 is_stmt 1 view -0
 553              		.cfi_startproc
 554              		@ args = 0, pretend = 0, frame = 0
 555              		@ frame_needed = 0, uses_anonymous_args = 0
 556              		.loc 1 270 2 is_stmt 0 view .LVU119
 557 0122 38B5     		push	{r3, r4, r5, lr}
 558              		.cfi_def_cfa_offset 16
 559              		.cfi_offset 3, -16
 560              		.cfi_offset 4, -12
 561              		.cfi_offset 5, -8
 562              		.cfi_offset 14, -4
 563 0124 0546     		mov	r5, r0
 271:Middlewares/Third_Party/FreeRTOS/Source/portable/Common/mpu_wrappers.c **** 	BaseType_t xRunningPrivileged = xPortRaisePrivilege();
 564              		.loc 1 271 2 is_stmt 1 view .LVU120
 565              		.loc 1 271 34 is_stmt 0 view .LVU121
 566 0126 FFF7FEFF 		bl	xPortRaisePrivilege
 567              	.LVL64:
 568              		.loc 1 271 34 view .LVU122
 569 012a 0446     		mov	r4, r0
 570              	.LVL65:
 272:Middlewares/Third_Party/FreeRTOS/Source/portable/Common/mpu_wrappers.c **** 
 273:Middlewares/Third_Party/FreeRTOS/Source/portable/Common/mpu_wrappers.c **** 		vTaskResume( pxTaskToResume );
 571              		.loc 1 273 3 is_stmt 1 view .LVU123
 572 012c 2846     		mov	r0, r5
 573              	.LVL66:
 574              		.loc 1 273 3 is_stmt 0 view .LVU124
 575 012e FFF7FEFF 		bl	vTaskResume
 576              	.LVL67:
 274:Middlewares/Third_Party/FreeRTOS/Source/portable/Common/mpu_wrappers.c **** 		vPortResetPrivilege( xRunningPrivileged );
 577              		.loc 1 274 3 is_stmt 1 view .LVU125
 578 0132 2046     		mov	r0, r4
 579 0134 FFF7FEFF 		bl	vPortResetPrivilege
ARM GAS  /tmp/ccpAxJaT.s 			page 16


 580              	.LVL68:
 275:Middlewares/Third_Party/FreeRTOS/Source/portable/Common/mpu_wrappers.c **** 	}
 581              		.loc 1 275 2 is_stmt 0 view .LVU126
 582 0138 38BD     		pop	{r3, r4, r5, pc}
 583              		.loc 1 275 2 view .LVU127
 584              		.cfi_endproc
 585              	.LFE16:
 587              		.align	1
 588              		.global	MPU_vTaskSuspendAll
 589              		.syntax unified
 590              		.thumb
 591              		.thumb_func
 593              	MPU_vTaskSuspendAll:
 594              	.LFB17:
 276:Middlewares/Third_Party/FreeRTOS/Source/portable/Common/mpu_wrappers.c **** #endif
 277:Middlewares/Third_Party/FreeRTOS/Source/portable/Common/mpu_wrappers.c **** /*-----------------------------------------------------------*/
 278:Middlewares/Third_Party/FreeRTOS/Source/portable/Common/mpu_wrappers.c **** 
 279:Middlewares/Third_Party/FreeRTOS/Source/portable/Common/mpu_wrappers.c **** void MPU_vTaskSuspendAll( void ) /* FREERTOS_SYSTEM_CALL */
 280:Middlewares/Third_Party/FreeRTOS/Source/portable/Common/mpu_wrappers.c **** {
 595              		.loc 1 280 1 is_stmt 1 view -0
 596              		.cfi_startproc
 597              		@ args = 0, pretend = 0, frame = 0
 598              		@ frame_needed = 0, uses_anonymous_args = 0
 599 013a 10B5     		push	{r4, lr}
 600              		.cfi_def_cfa_offset 8
 601              		.cfi_offset 4, -8
 602              		.cfi_offset 14, -4
 281:Middlewares/Third_Party/FreeRTOS/Source/portable/Common/mpu_wrappers.c **** BaseType_t xRunningPrivileged = xPortRaisePrivilege();
 603              		.loc 1 281 1 view .LVU129
 604              		.loc 1 281 33 is_stmt 0 view .LVU130
 605 013c FFF7FEFF 		bl	xPortRaisePrivilege
 606              	.LVL69:
 607 0140 0446     		mov	r4, r0
 608              	.LVL70:
 282:Middlewares/Third_Party/FreeRTOS/Source/portable/Common/mpu_wrappers.c **** 
 283:Middlewares/Third_Party/FreeRTOS/Source/portable/Common/mpu_wrappers.c **** 	vTaskSuspendAll();
 609              		.loc 1 283 2 is_stmt 1 view .LVU131
 610 0142 FFF7FEFF 		bl	vTaskSuspendAll
 611              	.LVL71:
 284:Middlewares/Third_Party/FreeRTOS/Source/portable/Common/mpu_wrappers.c **** 	vPortResetPrivilege( xRunningPrivileged );
 612              		.loc 1 284 2 view .LVU132
 613 0146 2046     		mov	r0, r4
 614 0148 FFF7FEFF 		bl	vPortResetPrivilege
 615              	.LVL72:
 285:Middlewares/Third_Party/FreeRTOS/Source/portable/Common/mpu_wrappers.c **** }
 616              		.loc 1 285 1 is_stmt 0 view .LVU133
 617 014c 10BD     		pop	{r4, pc}
 618              		.loc 1 285 1 view .LVU134
 619              		.cfi_endproc
 620              	.LFE17:
 622              		.align	1
 623              		.global	MPU_xTaskResumeAll
 624              		.syntax unified
 625              		.thumb
 626              		.thumb_func
 628              	MPU_xTaskResumeAll:
 629              	.LFB18:
ARM GAS  /tmp/ccpAxJaT.s 			page 17


 286:Middlewares/Third_Party/FreeRTOS/Source/portable/Common/mpu_wrappers.c **** /*-----------------------------------------------------------*/
 287:Middlewares/Third_Party/FreeRTOS/Source/portable/Common/mpu_wrappers.c **** 
 288:Middlewares/Third_Party/FreeRTOS/Source/portable/Common/mpu_wrappers.c **** BaseType_t MPU_xTaskResumeAll( void ) /* FREERTOS_SYSTEM_CALL */
 289:Middlewares/Third_Party/FreeRTOS/Source/portable/Common/mpu_wrappers.c **** {
 630              		.loc 1 289 1 is_stmt 1 view -0
 631              		.cfi_startproc
 632              		@ args = 0, pretend = 0, frame = 0
 633              		@ frame_needed = 0, uses_anonymous_args = 0
 634 014e 38B5     		push	{r3, r4, r5, lr}
 635              		.cfi_def_cfa_offset 16
 636              		.cfi_offset 3, -16
 637              		.cfi_offset 4, -12
 638              		.cfi_offset 5, -8
 639              		.cfi_offset 14, -4
 290:Middlewares/Third_Party/FreeRTOS/Source/portable/Common/mpu_wrappers.c **** BaseType_t xReturn;
 640              		.loc 1 290 1 view .LVU136
 291:Middlewares/Third_Party/FreeRTOS/Source/portable/Common/mpu_wrappers.c **** BaseType_t xRunningPrivileged = xPortRaisePrivilege();
 641              		.loc 1 291 1 view .LVU137
 642              		.loc 1 291 33 is_stmt 0 view .LVU138
 643 0150 FFF7FEFF 		bl	xPortRaisePrivilege
 644              	.LVL73:
 645 0154 0546     		mov	r5, r0
 646              	.LVL74:
 292:Middlewares/Third_Party/FreeRTOS/Source/portable/Common/mpu_wrappers.c **** 
 293:Middlewares/Third_Party/FreeRTOS/Source/portable/Common/mpu_wrappers.c **** 	xReturn = xTaskResumeAll();
 647              		.loc 1 293 2 is_stmt 1 view .LVU139
 648              		.loc 1 293 12 is_stmt 0 view .LVU140
 649 0156 FFF7FEFF 		bl	xTaskResumeAll
 650              	.LVL75:
 651              		.loc 1 293 12 view .LVU141
 652 015a 0446     		mov	r4, r0
 653              	.LVL76:
 294:Middlewares/Third_Party/FreeRTOS/Source/portable/Common/mpu_wrappers.c **** 	vPortResetPrivilege( xRunningPrivileged );
 654              		.loc 1 294 2 is_stmt 1 view .LVU142
 655 015c 2846     		mov	r0, r5
 656              	.LVL77:
 657              		.loc 1 294 2 is_stmt 0 view .LVU143
 658 015e FFF7FEFF 		bl	vPortResetPrivilege
 659              	.LVL78:
 295:Middlewares/Third_Party/FreeRTOS/Source/portable/Common/mpu_wrappers.c **** 	return xReturn;
 660              		.loc 1 295 2 is_stmt 1 view .LVU144
 296:Middlewares/Third_Party/FreeRTOS/Source/portable/Common/mpu_wrappers.c **** }
 661              		.loc 1 296 1 is_stmt 0 view .LVU145
 662 0162 2046     		mov	r0, r4
 663 0164 38BD     		pop	{r3, r4, r5, pc}
 664              		.loc 1 296 1 view .LVU146
 665              		.cfi_endproc
 666              	.LFE18:
 668              		.align	1
 669              		.global	MPU_xTaskGetTickCount
 670              		.syntax unified
 671              		.thumb
 672              		.thumb_func
 674              	MPU_xTaskGetTickCount:
 675              	.LFB19:
 297:Middlewares/Third_Party/FreeRTOS/Source/portable/Common/mpu_wrappers.c **** /*-----------------------------------------------------------*/
 298:Middlewares/Third_Party/FreeRTOS/Source/portable/Common/mpu_wrappers.c **** 
ARM GAS  /tmp/ccpAxJaT.s 			page 18


 299:Middlewares/Third_Party/FreeRTOS/Source/portable/Common/mpu_wrappers.c **** TickType_t MPU_xTaskGetTickCount( void ) /* FREERTOS_SYSTEM_CALL */
 300:Middlewares/Third_Party/FreeRTOS/Source/portable/Common/mpu_wrappers.c **** {
 676              		.loc 1 300 1 is_stmt 1 view -0
 677              		.cfi_startproc
 678              		@ args = 0, pretend = 0, frame = 0
 679              		@ frame_needed = 0, uses_anonymous_args = 0
 680 0166 38B5     		push	{r3, r4, r5, lr}
 681              		.cfi_def_cfa_offset 16
 682              		.cfi_offset 3, -16
 683              		.cfi_offset 4, -12
 684              		.cfi_offset 5, -8
 685              		.cfi_offset 14, -4
 301:Middlewares/Third_Party/FreeRTOS/Source/portable/Common/mpu_wrappers.c **** TickType_t xReturn;
 686              		.loc 1 301 1 view .LVU148
 302:Middlewares/Third_Party/FreeRTOS/Source/portable/Common/mpu_wrappers.c **** BaseType_t xRunningPrivileged = xPortRaisePrivilege();
 687              		.loc 1 302 1 view .LVU149
 688              		.loc 1 302 33 is_stmt 0 view .LVU150
 689 0168 FFF7FEFF 		bl	xPortRaisePrivilege
 690              	.LVL79:
 691 016c 0546     		mov	r5, r0
 692              	.LVL80:
 303:Middlewares/Third_Party/FreeRTOS/Source/portable/Common/mpu_wrappers.c **** 
 304:Middlewares/Third_Party/FreeRTOS/Source/portable/Common/mpu_wrappers.c **** 	xReturn = xTaskGetTickCount();
 693              		.loc 1 304 2 is_stmt 1 view .LVU151
 694              		.loc 1 304 12 is_stmt 0 view .LVU152
 695 016e FFF7FEFF 		bl	xTaskGetTickCount
 696              	.LVL81:
 697              		.loc 1 304 12 view .LVU153
 698 0172 0446     		mov	r4, r0
 699              	.LVL82:
 305:Middlewares/Third_Party/FreeRTOS/Source/portable/Common/mpu_wrappers.c **** 	vPortResetPrivilege( xRunningPrivileged );
 700              		.loc 1 305 2 is_stmt 1 view .LVU154
 701 0174 2846     		mov	r0, r5
 702              	.LVL83:
 703              		.loc 1 305 2 is_stmt 0 view .LVU155
 704 0176 FFF7FEFF 		bl	vPortResetPrivilege
 705              	.LVL84:
 306:Middlewares/Third_Party/FreeRTOS/Source/portable/Common/mpu_wrappers.c **** 	return xReturn;
 706              		.loc 1 306 2 is_stmt 1 view .LVU156
 307:Middlewares/Third_Party/FreeRTOS/Source/portable/Common/mpu_wrappers.c **** }
 707              		.loc 1 307 1 is_stmt 0 view .LVU157
 708 017a 2046     		mov	r0, r4
 709 017c 38BD     		pop	{r3, r4, r5, pc}
 710              		.loc 1 307 1 view .LVU158
 711              		.cfi_endproc
 712              	.LFE19:
 714              		.align	1
 715              		.global	MPU_uxTaskGetNumberOfTasks
 716              		.syntax unified
 717              		.thumb
 718              		.thumb_func
 720              	MPU_uxTaskGetNumberOfTasks:
 721              	.LFB20:
 308:Middlewares/Third_Party/FreeRTOS/Source/portable/Common/mpu_wrappers.c **** /*-----------------------------------------------------------*/
 309:Middlewares/Third_Party/FreeRTOS/Source/portable/Common/mpu_wrappers.c **** 
 310:Middlewares/Third_Party/FreeRTOS/Source/portable/Common/mpu_wrappers.c **** UBaseType_t MPU_uxTaskGetNumberOfTasks( void ) /* FREERTOS_SYSTEM_CALL */
 311:Middlewares/Third_Party/FreeRTOS/Source/portable/Common/mpu_wrappers.c **** {
ARM GAS  /tmp/ccpAxJaT.s 			page 19


 722              		.loc 1 311 1 is_stmt 1 view -0
 723              		.cfi_startproc
 724              		@ args = 0, pretend = 0, frame = 0
 725              		@ frame_needed = 0, uses_anonymous_args = 0
 726 017e 38B5     		push	{r3, r4, r5, lr}
 727              		.cfi_def_cfa_offset 16
 728              		.cfi_offset 3, -16
 729              		.cfi_offset 4, -12
 730              		.cfi_offset 5, -8
 731              		.cfi_offset 14, -4
 312:Middlewares/Third_Party/FreeRTOS/Source/portable/Common/mpu_wrappers.c **** UBaseType_t uxReturn;
 732              		.loc 1 312 1 view .LVU160
 313:Middlewares/Third_Party/FreeRTOS/Source/portable/Common/mpu_wrappers.c **** BaseType_t xRunningPrivileged = xPortRaisePrivilege();
 733              		.loc 1 313 1 view .LVU161
 734              		.loc 1 313 33 is_stmt 0 view .LVU162
 735 0180 FFF7FEFF 		bl	xPortRaisePrivilege
 736              	.LVL85:
 737 0184 0546     		mov	r5, r0
 738              	.LVL86:
 314:Middlewares/Third_Party/FreeRTOS/Source/portable/Common/mpu_wrappers.c **** 
 315:Middlewares/Third_Party/FreeRTOS/Source/portable/Common/mpu_wrappers.c **** 	uxReturn = uxTaskGetNumberOfTasks();
 739              		.loc 1 315 2 is_stmt 1 view .LVU163
 740              		.loc 1 315 13 is_stmt 0 view .LVU164
 741 0186 FFF7FEFF 		bl	uxTaskGetNumberOfTasks
 742              	.LVL87:
 743              		.loc 1 315 13 view .LVU165
 744 018a 0446     		mov	r4, r0
 745              	.LVL88:
 316:Middlewares/Third_Party/FreeRTOS/Source/portable/Common/mpu_wrappers.c **** 	vPortResetPrivilege( xRunningPrivileged );
 746              		.loc 1 316 2 is_stmt 1 view .LVU166
 747 018c 2846     		mov	r0, r5
 748              	.LVL89:
 749              		.loc 1 316 2 is_stmt 0 view .LVU167
 750 018e FFF7FEFF 		bl	vPortResetPrivilege
 751              	.LVL90:
 317:Middlewares/Third_Party/FreeRTOS/Source/portable/Common/mpu_wrappers.c **** 	return uxReturn;
 752              		.loc 1 317 2 is_stmt 1 view .LVU168
 318:Middlewares/Third_Party/FreeRTOS/Source/portable/Common/mpu_wrappers.c **** }
 753              		.loc 1 318 1 is_stmt 0 view .LVU169
 754 0192 2046     		mov	r0, r4
 755 0194 38BD     		pop	{r3, r4, r5, pc}
 756              		.loc 1 318 1 view .LVU170
 757              		.cfi_endproc
 758              	.LFE20:
 760              		.align	1
 761              		.global	MPU_pcTaskGetName
 762              		.syntax unified
 763              		.thumb
 764              		.thumb_func
 766              	MPU_pcTaskGetName:
 767              	.LVL91:
 768              	.LFB21:
 319:Middlewares/Third_Party/FreeRTOS/Source/portable/Common/mpu_wrappers.c **** /*-----------------------------------------------------------*/
 320:Middlewares/Third_Party/FreeRTOS/Source/portable/Common/mpu_wrappers.c **** 
 321:Middlewares/Third_Party/FreeRTOS/Source/portable/Common/mpu_wrappers.c **** char * MPU_pcTaskGetName( TaskHandle_t xTaskToQuery ) /* FREERTOS_SYSTEM_CALL */
 322:Middlewares/Third_Party/FreeRTOS/Source/portable/Common/mpu_wrappers.c **** {
 769              		.loc 1 322 1 is_stmt 1 view -0
ARM GAS  /tmp/ccpAxJaT.s 			page 20


 770              		.cfi_startproc
 771              		@ args = 0, pretend = 0, frame = 0
 772              		@ frame_needed = 0, uses_anonymous_args = 0
 773              		.loc 1 322 1 is_stmt 0 view .LVU172
 774 0196 38B5     		push	{r3, r4, r5, lr}
 775              		.cfi_def_cfa_offset 16
 776              		.cfi_offset 3, -16
 777              		.cfi_offset 4, -12
 778              		.cfi_offset 5, -8
 779              		.cfi_offset 14, -4
 780 0198 0446     		mov	r4, r0
 323:Middlewares/Third_Party/FreeRTOS/Source/portable/Common/mpu_wrappers.c **** char *pcReturn;
 781              		.loc 1 323 1 is_stmt 1 view .LVU173
 324:Middlewares/Third_Party/FreeRTOS/Source/portable/Common/mpu_wrappers.c **** BaseType_t xRunningPrivileged = xPortRaisePrivilege();
 782              		.loc 1 324 1 view .LVU174
 783              		.loc 1 324 33 is_stmt 0 view .LVU175
 784 019a FFF7FEFF 		bl	xPortRaisePrivilege
 785              	.LVL92:
 786              		.loc 1 324 33 view .LVU176
 787 019e 0546     		mov	r5, r0
 788              	.LVL93:
 325:Middlewares/Third_Party/FreeRTOS/Source/portable/Common/mpu_wrappers.c **** 
 326:Middlewares/Third_Party/FreeRTOS/Source/portable/Common/mpu_wrappers.c **** 	pcReturn = pcTaskGetName( xTaskToQuery );
 789              		.loc 1 326 2 is_stmt 1 view .LVU177
 790              		.loc 1 326 13 is_stmt 0 view .LVU178
 791 01a0 2046     		mov	r0, r4
 792              	.LVL94:
 793              		.loc 1 326 13 view .LVU179
 794 01a2 FFF7FEFF 		bl	pcTaskGetName
 795              	.LVL95:
 796 01a6 0446     		mov	r4, r0
 797              	.LVL96:
 327:Middlewares/Third_Party/FreeRTOS/Source/portable/Common/mpu_wrappers.c **** 	vPortResetPrivilege( xRunningPrivileged );
 798              		.loc 1 327 2 is_stmt 1 view .LVU180
 799 01a8 2846     		mov	r0, r5
 800              	.LVL97:
 801              		.loc 1 327 2 is_stmt 0 view .LVU181
 802 01aa FFF7FEFF 		bl	vPortResetPrivilege
 803              	.LVL98:
 328:Middlewares/Third_Party/FreeRTOS/Source/portable/Common/mpu_wrappers.c **** 	return pcReturn;
 804              		.loc 1 328 2 is_stmt 1 view .LVU182
 329:Middlewares/Third_Party/FreeRTOS/Source/portable/Common/mpu_wrappers.c **** }
 805              		.loc 1 329 1 is_stmt 0 view .LVU183
 806 01ae 2046     		mov	r0, r4
 807 01b0 38BD     		pop	{r3, r4, r5, pc}
 808              		.loc 1 329 1 view .LVU184
 809              		.cfi_endproc
 810              	.LFE21:
 812              		.align	1
 813              		.global	MPU_xTaskGenericNotify
 814              		.syntax unified
 815              		.thumb
 816              		.thumb_func
 818              	MPU_xTaskGenericNotify:
 819              	.LVL99:
 820              	.LFB26:
 330:Middlewares/Third_Party/FreeRTOS/Source/portable/Common/mpu_wrappers.c **** /*-----------------------------------------------------------*/
ARM GAS  /tmp/ccpAxJaT.s 			page 21


 331:Middlewares/Third_Party/FreeRTOS/Source/portable/Common/mpu_wrappers.c **** 
 332:Middlewares/Third_Party/FreeRTOS/Source/portable/Common/mpu_wrappers.c **** #if ( INCLUDE_xTaskGetHandle == 1 )
 333:Middlewares/Third_Party/FreeRTOS/Source/portable/Common/mpu_wrappers.c **** 	TaskHandle_t MPU_xTaskGetHandle( const char *pcNameToQuery ) /* FREERTOS_SYSTEM_CALL */
 334:Middlewares/Third_Party/FreeRTOS/Source/portable/Common/mpu_wrappers.c **** 	{
 335:Middlewares/Third_Party/FreeRTOS/Source/portable/Common/mpu_wrappers.c **** 	TaskHandle_t xReturn;
 336:Middlewares/Third_Party/FreeRTOS/Source/portable/Common/mpu_wrappers.c **** 	BaseType_t xRunningPrivileged = xPortRaisePrivilege();
 337:Middlewares/Third_Party/FreeRTOS/Source/portable/Common/mpu_wrappers.c **** 
 338:Middlewares/Third_Party/FreeRTOS/Source/portable/Common/mpu_wrappers.c **** 		xReturn = xTaskGetHandle( pcNameToQuery );
 339:Middlewares/Third_Party/FreeRTOS/Source/portable/Common/mpu_wrappers.c **** 		vPortResetPrivilege( xRunningPrivileged );
 340:Middlewares/Third_Party/FreeRTOS/Source/portable/Common/mpu_wrappers.c **** 		return xReturn;
 341:Middlewares/Third_Party/FreeRTOS/Source/portable/Common/mpu_wrappers.c **** 	}
 342:Middlewares/Third_Party/FreeRTOS/Source/portable/Common/mpu_wrappers.c **** #endif
 343:Middlewares/Third_Party/FreeRTOS/Source/portable/Common/mpu_wrappers.c **** /*-----------------------------------------------------------*/
 344:Middlewares/Third_Party/FreeRTOS/Source/portable/Common/mpu_wrappers.c **** 
 345:Middlewares/Third_Party/FreeRTOS/Source/portable/Common/mpu_wrappers.c **** #if ( ( configUSE_TRACE_FACILITY == 1 ) && ( configUSE_STATS_FORMATTING_FUNCTIONS > 0 ) && ( config
 346:Middlewares/Third_Party/FreeRTOS/Source/portable/Common/mpu_wrappers.c **** 	void MPU_vTaskList( char *pcWriteBuffer ) /* FREERTOS_SYSTEM_CALL */
 347:Middlewares/Third_Party/FreeRTOS/Source/portable/Common/mpu_wrappers.c **** 	{
 348:Middlewares/Third_Party/FreeRTOS/Source/portable/Common/mpu_wrappers.c **** 	BaseType_t xRunningPrivileged = xPortRaisePrivilege();
 349:Middlewares/Third_Party/FreeRTOS/Source/portable/Common/mpu_wrappers.c **** 
 350:Middlewares/Third_Party/FreeRTOS/Source/portable/Common/mpu_wrappers.c **** 		vTaskList( pcWriteBuffer );
 351:Middlewares/Third_Party/FreeRTOS/Source/portable/Common/mpu_wrappers.c **** 		vPortResetPrivilege( xRunningPrivileged );
 352:Middlewares/Third_Party/FreeRTOS/Source/portable/Common/mpu_wrappers.c **** 	}
 353:Middlewares/Third_Party/FreeRTOS/Source/portable/Common/mpu_wrappers.c **** #endif
 354:Middlewares/Third_Party/FreeRTOS/Source/portable/Common/mpu_wrappers.c **** /*-----------------------------------------------------------*/
 355:Middlewares/Third_Party/FreeRTOS/Source/portable/Common/mpu_wrappers.c **** 
 356:Middlewares/Third_Party/FreeRTOS/Source/portable/Common/mpu_wrappers.c **** #if ( ( configGENERATE_RUN_TIME_STATS == 1 ) && ( configUSE_STATS_FORMATTING_FUNCTIONS > 0 ) && ( c
 357:Middlewares/Third_Party/FreeRTOS/Source/portable/Common/mpu_wrappers.c **** 	void MPU_vTaskGetRunTimeStats( char *pcWriteBuffer ) /* FREERTOS_SYSTEM_CALL */
 358:Middlewares/Third_Party/FreeRTOS/Source/portable/Common/mpu_wrappers.c **** 	{
 359:Middlewares/Third_Party/FreeRTOS/Source/portable/Common/mpu_wrappers.c **** 	BaseType_t xRunningPrivileged = xPortRaisePrivilege();
 360:Middlewares/Third_Party/FreeRTOS/Source/portable/Common/mpu_wrappers.c **** 
 361:Middlewares/Third_Party/FreeRTOS/Source/portable/Common/mpu_wrappers.c **** 		vTaskGetRunTimeStats( pcWriteBuffer );
 362:Middlewares/Third_Party/FreeRTOS/Source/portable/Common/mpu_wrappers.c **** 		vPortResetPrivilege( xRunningPrivileged );
 363:Middlewares/Third_Party/FreeRTOS/Source/portable/Common/mpu_wrappers.c **** 	}
 364:Middlewares/Third_Party/FreeRTOS/Source/portable/Common/mpu_wrappers.c **** #endif
 365:Middlewares/Third_Party/FreeRTOS/Source/portable/Common/mpu_wrappers.c **** /*-----------------------------------------------------------*/
 366:Middlewares/Third_Party/FreeRTOS/Source/portable/Common/mpu_wrappers.c **** 
 367:Middlewares/Third_Party/FreeRTOS/Source/portable/Common/mpu_wrappers.c **** #if( ( configGENERATE_RUN_TIME_STATS == 1 ) && ( INCLUDE_xTaskGetIdleTaskHandle == 1 ) )
 368:Middlewares/Third_Party/FreeRTOS/Source/portable/Common/mpu_wrappers.c **** 	uint32_t MPU_ulTaskGetIdleRunTimeCounter( void ) /* FREERTOS_SYSTEM_CALL */
 369:Middlewares/Third_Party/FreeRTOS/Source/portable/Common/mpu_wrappers.c **** 	{
 370:Middlewares/Third_Party/FreeRTOS/Source/portable/Common/mpu_wrappers.c **** 	uint32_t xReturn;
 371:Middlewares/Third_Party/FreeRTOS/Source/portable/Common/mpu_wrappers.c **** 	BaseType_t xRunningPrivileged = xPortRaisePrivilege();
 372:Middlewares/Third_Party/FreeRTOS/Source/portable/Common/mpu_wrappers.c **** 
 373:Middlewares/Third_Party/FreeRTOS/Source/portable/Common/mpu_wrappers.c **** 		xReturn = ulTaskGetIdleRunTimeCounter();
 374:Middlewares/Third_Party/FreeRTOS/Source/portable/Common/mpu_wrappers.c **** 		vPortResetPrivilege( xRunningPrivileged );
 375:Middlewares/Third_Party/FreeRTOS/Source/portable/Common/mpu_wrappers.c **** 		return xReturn;
 376:Middlewares/Third_Party/FreeRTOS/Source/portable/Common/mpu_wrappers.c **** 	}
 377:Middlewares/Third_Party/FreeRTOS/Source/portable/Common/mpu_wrappers.c **** #endif
 378:Middlewares/Third_Party/FreeRTOS/Source/portable/Common/mpu_wrappers.c **** /*-----------------------------------------------------------*/
 379:Middlewares/Third_Party/FreeRTOS/Source/portable/Common/mpu_wrappers.c **** 
 380:Middlewares/Third_Party/FreeRTOS/Source/portable/Common/mpu_wrappers.c **** #if ( configUSE_APPLICATION_TASK_TAG == 1 )
 381:Middlewares/Third_Party/FreeRTOS/Source/portable/Common/mpu_wrappers.c **** 	void MPU_vTaskSetApplicationTaskTag( TaskHandle_t xTask, TaskHookFunction_t pxTagValue ) /* FREERT
 382:Middlewares/Third_Party/FreeRTOS/Source/portable/Common/mpu_wrappers.c **** 	{
 383:Middlewares/Third_Party/FreeRTOS/Source/portable/Common/mpu_wrappers.c **** 	BaseType_t xRunningPrivileged = xPortRaisePrivilege();
 384:Middlewares/Third_Party/FreeRTOS/Source/portable/Common/mpu_wrappers.c **** 
 385:Middlewares/Third_Party/FreeRTOS/Source/portable/Common/mpu_wrappers.c **** 		vTaskSetApplicationTaskTag( xTask, pxTagValue );
 386:Middlewares/Third_Party/FreeRTOS/Source/portable/Common/mpu_wrappers.c **** 		vPortResetPrivilege( xRunningPrivileged );
 387:Middlewares/Third_Party/FreeRTOS/Source/portable/Common/mpu_wrappers.c **** 	}
ARM GAS  /tmp/ccpAxJaT.s 			page 22


 388:Middlewares/Third_Party/FreeRTOS/Source/portable/Common/mpu_wrappers.c **** #endif
 389:Middlewares/Third_Party/FreeRTOS/Source/portable/Common/mpu_wrappers.c **** /*-----------------------------------------------------------*/
 390:Middlewares/Third_Party/FreeRTOS/Source/portable/Common/mpu_wrappers.c **** 
 391:Middlewares/Third_Party/FreeRTOS/Source/portable/Common/mpu_wrappers.c **** #if ( configUSE_APPLICATION_TASK_TAG == 1 )
 392:Middlewares/Third_Party/FreeRTOS/Source/portable/Common/mpu_wrappers.c **** 	TaskHookFunction_t MPU_xTaskGetApplicationTaskTag( TaskHandle_t xTask ) /* FREERTOS_SYSTEM_CALL */
 393:Middlewares/Third_Party/FreeRTOS/Source/portable/Common/mpu_wrappers.c **** 	{
 394:Middlewares/Third_Party/FreeRTOS/Source/portable/Common/mpu_wrappers.c **** 	TaskHookFunction_t xReturn;
 395:Middlewares/Third_Party/FreeRTOS/Source/portable/Common/mpu_wrappers.c **** 	BaseType_t xRunningPrivileged = xPortRaisePrivilege();
 396:Middlewares/Third_Party/FreeRTOS/Source/portable/Common/mpu_wrappers.c **** 
 397:Middlewares/Third_Party/FreeRTOS/Source/portable/Common/mpu_wrappers.c **** 		xReturn = xTaskGetApplicationTaskTag( xTask );
 398:Middlewares/Third_Party/FreeRTOS/Source/portable/Common/mpu_wrappers.c **** 		vPortResetPrivilege( xRunningPrivileged );
 399:Middlewares/Third_Party/FreeRTOS/Source/portable/Common/mpu_wrappers.c **** 		return xReturn;
 400:Middlewares/Third_Party/FreeRTOS/Source/portable/Common/mpu_wrappers.c **** 	}
 401:Middlewares/Third_Party/FreeRTOS/Source/portable/Common/mpu_wrappers.c **** #endif
 402:Middlewares/Third_Party/FreeRTOS/Source/portable/Common/mpu_wrappers.c **** /*-----------------------------------------------------------*/
 403:Middlewares/Third_Party/FreeRTOS/Source/portable/Common/mpu_wrappers.c **** 
 404:Middlewares/Third_Party/FreeRTOS/Source/portable/Common/mpu_wrappers.c **** #if ( configNUM_THREAD_LOCAL_STORAGE_POINTERS != 0 )
 405:Middlewares/Third_Party/FreeRTOS/Source/portable/Common/mpu_wrappers.c **** 	void MPU_vTaskSetThreadLocalStoragePointer( TaskHandle_t xTaskToSet, BaseType_t xIndex, void *pvVa
 406:Middlewares/Third_Party/FreeRTOS/Source/portable/Common/mpu_wrappers.c **** 	{
 407:Middlewares/Third_Party/FreeRTOS/Source/portable/Common/mpu_wrappers.c **** 	BaseType_t xRunningPrivileged = xPortRaisePrivilege();
 408:Middlewares/Third_Party/FreeRTOS/Source/portable/Common/mpu_wrappers.c **** 
 409:Middlewares/Third_Party/FreeRTOS/Source/portable/Common/mpu_wrappers.c **** 		vTaskSetThreadLocalStoragePointer( xTaskToSet, xIndex, pvValue );
 410:Middlewares/Third_Party/FreeRTOS/Source/portable/Common/mpu_wrappers.c **** 		vPortResetPrivilege( xRunningPrivileged );
 411:Middlewares/Third_Party/FreeRTOS/Source/portable/Common/mpu_wrappers.c **** 	}
 412:Middlewares/Third_Party/FreeRTOS/Source/portable/Common/mpu_wrappers.c **** #endif
 413:Middlewares/Third_Party/FreeRTOS/Source/portable/Common/mpu_wrappers.c **** /*-----------------------------------------------------------*/
 414:Middlewares/Third_Party/FreeRTOS/Source/portable/Common/mpu_wrappers.c **** 
 415:Middlewares/Third_Party/FreeRTOS/Source/portable/Common/mpu_wrappers.c **** #if ( configNUM_THREAD_LOCAL_STORAGE_POINTERS != 0 )
 416:Middlewares/Third_Party/FreeRTOS/Source/portable/Common/mpu_wrappers.c **** 	void *MPU_pvTaskGetThreadLocalStoragePointer( TaskHandle_t xTaskToQuery, BaseType_t xIndex ) /* FR
 417:Middlewares/Third_Party/FreeRTOS/Source/portable/Common/mpu_wrappers.c **** 	{
 418:Middlewares/Third_Party/FreeRTOS/Source/portable/Common/mpu_wrappers.c **** 	void *pvReturn;
 419:Middlewares/Third_Party/FreeRTOS/Source/portable/Common/mpu_wrappers.c **** 	BaseType_t xRunningPrivileged = xPortRaisePrivilege();
 420:Middlewares/Third_Party/FreeRTOS/Source/portable/Common/mpu_wrappers.c **** 
 421:Middlewares/Third_Party/FreeRTOS/Source/portable/Common/mpu_wrappers.c **** 		pvReturn = pvTaskGetThreadLocalStoragePointer( xTaskToQuery, xIndex );
 422:Middlewares/Third_Party/FreeRTOS/Source/portable/Common/mpu_wrappers.c **** 		vPortResetPrivilege( xRunningPrivileged );
 423:Middlewares/Third_Party/FreeRTOS/Source/portable/Common/mpu_wrappers.c **** 		return pvReturn;
 424:Middlewares/Third_Party/FreeRTOS/Source/portable/Common/mpu_wrappers.c **** 	}
 425:Middlewares/Third_Party/FreeRTOS/Source/portable/Common/mpu_wrappers.c **** #endif
 426:Middlewares/Third_Party/FreeRTOS/Source/portable/Common/mpu_wrappers.c **** /*-----------------------------------------------------------*/
 427:Middlewares/Third_Party/FreeRTOS/Source/portable/Common/mpu_wrappers.c **** 
 428:Middlewares/Third_Party/FreeRTOS/Source/portable/Common/mpu_wrappers.c **** #if ( configUSE_APPLICATION_TASK_TAG == 1 )
 429:Middlewares/Third_Party/FreeRTOS/Source/portable/Common/mpu_wrappers.c **** 	BaseType_t MPU_xTaskCallApplicationTaskHook( TaskHandle_t xTask, void *pvParameter ) /* FREERTOS_S
 430:Middlewares/Third_Party/FreeRTOS/Source/portable/Common/mpu_wrappers.c **** 	{
 431:Middlewares/Third_Party/FreeRTOS/Source/portable/Common/mpu_wrappers.c **** 	BaseType_t xReturn;
 432:Middlewares/Third_Party/FreeRTOS/Source/portable/Common/mpu_wrappers.c **** 	BaseType_t xRunningPrivileged = xPortRaisePrivilege();
 433:Middlewares/Third_Party/FreeRTOS/Source/portable/Common/mpu_wrappers.c **** 
 434:Middlewares/Third_Party/FreeRTOS/Source/portable/Common/mpu_wrappers.c **** 		xReturn = xTaskCallApplicationTaskHook( xTask, pvParameter );
 435:Middlewares/Third_Party/FreeRTOS/Source/portable/Common/mpu_wrappers.c **** 		vPortResetPrivilege( xRunningPrivileged );
 436:Middlewares/Third_Party/FreeRTOS/Source/portable/Common/mpu_wrappers.c **** 		return xReturn;
 437:Middlewares/Third_Party/FreeRTOS/Source/portable/Common/mpu_wrappers.c **** 	}
 438:Middlewares/Third_Party/FreeRTOS/Source/portable/Common/mpu_wrappers.c **** #endif
 439:Middlewares/Third_Party/FreeRTOS/Source/portable/Common/mpu_wrappers.c **** /*-----------------------------------------------------------*/
 440:Middlewares/Third_Party/FreeRTOS/Source/portable/Common/mpu_wrappers.c **** 
 441:Middlewares/Third_Party/FreeRTOS/Source/portable/Common/mpu_wrappers.c **** #if ( configUSE_TRACE_FACILITY == 1 )
 442:Middlewares/Third_Party/FreeRTOS/Source/portable/Common/mpu_wrappers.c **** 	UBaseType_t MPU_uxTaskGetSystemState( TaskStatus_t *pxTaskStatusArray, UBaseType_t uxArraySize, ui
 443:Middlewares/Third_Party/FreeRTOS/Source/portable/Common/mpu_wrappers.c **** 	{
 444:Middlewares/Third_Party/FreeRTOS/Source/portable/Common/mpu_wrappers.c **** 	UBaseType_t uxReturn;
ARM GAS  /tmp/ccpAxJaT.s 			page 23


 445:Middlewares/Third_Party/FreeRTOS/Source/portable/Common/mpu_wrappers.c **** 	BaseType_t xRunningPrivileged = xPortRaisePrivilege();
 446:Middlewares/Third_Party/FreeRTOS/Source/portable/Common/mpu_wrappers.c **** 
 447:Middlewares/Third_Party/FreeRTOS/Source/portable/Common/mpu_wrappers.c **** 		uxReturn = uxTaskGetSystemState( pxTaskStatusArray, uxArraySize, pulTotalRunTime );
 448:Middlewares/Third_Party/FreeRTOS/Source/portable/Common/mpu_wrappers.c **** 		vPortResetPrivilege( xRunningPrivileged );
 449:Middlewares/Third_Party/FreeRTOS/Source/portable/Common/mpu_wrappers.c **** 		return uxReturn;
 450:Middlewares/Third_Party/FreeRTOS/Source/portable/Common/mpu_wrappers.c **** 	}
 451:Middlewares/Third_Party/FreeRTOS/Source/portable/Common/mpu_wrappers.c **** #endif
 452:Middlewares/Third_Party/FreeRTOS/Source/portable/Common/mpu_wrappers.c **** /*-----------------------------------------------------------*/
 453:Middlewares/Third_Party/FreeRTOS/Source/portable/Common/mpu_wrappers.c **** 
 454:Middlewares/Third_Party/FreeRTOS/Source/portable/Common/mpu_wrappers.c **** BaseType_t MPU_xTaskCatchUpTicks( TickType_t xTicksToCatchUp ) /* FREERTOS_SYSTEM_CALL */
 455:Middlewares/Third_Party/FreeRTOS/Source/portable/Common/mpu_wrappers.c **** {
 456:Middlewares/Third_Party/FreeRTOS/Source/portable/Common/mpu_wrappers.c **** BaseType_t xReturn;
 457:Middlewares/Third_Party/FreeRTOS/Source/portable/Common/mpu_wrappers.c **** BaseType_t xRunningPrivileged = xPortRaisePrivilege();
 458:Middlewares/Third_Party/FreeRTOS/Source/portable/Common/mpu_wrappers.c **** 
 459:Middlewares/Third_Party/FreeRTOS/Source/portable/Common/mpu_wrappers.c **** 	xReturn = xTaskCatchUpTicks( xTicksToCatchUp );
 460:Middlewares/Third_Party/FreeRTOS/Source/portable/Common/mpu_wrappers.c **** 	vPortResetPrivilege( xRunningPrivileged );
 461:Middlewares/Third_Party/FreeRTOS/Source/portable/Common/mpu_wrappers.c **** 	return xReturn;
 462:Middlewares/Third_Party/FreeRTOS/Source/portable/Common/mpu_wrappers.c **** }
 463:Middlewares/Third_Party/FreeRTOS/Source/portable/Common/mpu_wrappers.c **** /*-----------------------------------------------------------*/
 464:Middlewares/Third_Party/FreeRTOS/Source/portable/Common/mpu_wrappers.c **** 
 465:Middlewares/Third_Party/FreeRTOS/Source/portable/Common/mpu_wrappers.c **** #if ( INCLUDE_uxTaskGetStackHighWaterMark == 1 )
 466:Middlewares/Third_Party/FreeRTOS/Source/portable/Common/mpu_wrappers.c **** 	UBaseType_t MPU_uxTaskGetStackHighWaterMark( TaskHandle_t xTask ) /* FREERTOS_SYSTEM_CALL */
 467:Middlewares/Third_Party/FreeRTOS/Source/portable/Common/mpu_wrappers.c **** 	{
 468:Middlewares/Third_Party/FreeRTOS/Source/portable/Common/mpu_wrappers.c **** 	UBaseType_t uxReturn;
 469:Middlewares/Third_Party/FreeRTOS/Source/portable/Common/mpu_wrappers.c **** 	BaseType_t xRunningPrivileged = xPortRaisePrivilege();
 470:Middlewares/Third_Party/FreeRTOS/Source/portable/Common/mpu_wrappers.c **** 
 471:Middlewares/Third_Party/FreeRTOS/Source/portable/Common/mpu_wrappers.c **** 		uxReturn = uxTaskGetStackHighWaterMark( xTask );
 472:Middlewares/Third_Party/FreeRTOS/Source/portable/Common/mpu_wrappers.c **** 		vPortResetPrivilege( xRunningPrivileged );
 473:Middlewares/Third_Party/FreeRTOS/Source/portable/Common/mpu_wrappers.c **** 		return uxReturn;
 474:Middlewares/Third_Party/FreeRTOS/Source/portable/Common/mpu_wrappers.c **** 	}
 475:Middlewares/Third_Party/FreeRTOS/Source/portable/Common/mpu_wrappers.c **** #endif
 476:Middlewares/Third_Party/FreeRTOS/Source/portable/Common/mpu_wrappers.c **** /*-----------------------------------------------------------*/
 477:Middlewares/Third_Party/FreeRTOS/Source/portable/Common/mpu_wrappers.c **** 
 478:Middlewares/Third_Party/FreeRTOS/Source/portable/Common/mpu_wrappers.c **** #if ( INCLUDE_uxTaskGetStackHighWaterMark2 == 1 )
 479:Middlewares/Third_Party/FreeRTOS/Source/portable/Common/mpu_wrappers.c **** 	configSTACK_DEPTH_TYPE MPU_uxTaskGetStackHighWaterMark2( TaskHandle_t xTask ) /* FREERTOS_SYSTEM_C
 480:Middlewares/Third_Party/FreeRTOS/Source/portable/Common/mpu_wrappers.c **** 	{
 481:Middlewares/Third_Party/FreeRTOS/Source/portable/Common/mpu_wrappers.c **** 	configSTACK_DEPTH_TYPE uxReturn;
 482:Middlewares/Third_Party/FreeRTOS/Source/portable/Common/mpu_wrappers.c **** 	BaseType_t xRunningPrivileged = xPortRaisePrivilege();
 483:Middlewares/Third_Party/FreeRTOS/Source/portable/Common/mpu_wrappers.c **** 
 484:Middlewares/Third_Party/FreeRTOS/Source/portable/Common/mpu_wrappers.c **** 		uxReturn = uxTaskGetStackHighWaterMark2( xTask );
 485:Middlewares/Third_Party/FreeRTOS/Source/portable/Common/mpu_wrappers.c **** 		vPortResetPrivilege( xRunningPrivileged );
 486:Middlewares/Third_Party/FreeRTOS/Source/portable/Common/mpu_wrappers.c **** 		return uxReturn;
 487:Middlewares/Third_Party/FreeRTOS/Source/portable/Common/mpu_wrappers.c **** 	}
 488:Middlewares/Third_Party/FreeRTOS/Source/portable/Common/mpu_wrappers.c **** #endif
 489:Middlewares/Third_Party/FreeRTOS/Source/portable/Common/mpu_wrappers.c **** /*-----------------------------------------------------------*/
 490:Middlewares/Third_Party/FreeRTOS/Source/portable/Common/mpu_wrappers.c **** 
 491:Middlewares/Third_Party/FreeRTOS/Source/portable/Common/mpu_wrappers.c **** #if ( INCLUDE_xTaskGetCurrentTaskHandle == 1 )
 492:Middlewares/Third_Party/FreeRTOS/Source/portable/Common/mpu_wrappers.c **** 	TaskHandle_t MPU_xTaskGetCurrentTaskHandle( void ) /* FREERTOS_SYSTEM_CALL */
 493:Middlewares/Third_Party/FreeRTOS/Source/portable/Common/mpu_wrappers.c **** 	{
 494:Middlewares/Third_Party/FreeRTOS/Source/portable/Common/mpu_wrappers.c **** 	TaskHandle_t xReturn;
 495:Middlewares/Third_Party/FreeRTOS/Source/portable/Common/mpu_wrappers.c **** 	BaseType_t xRunningPrivileged = xPortRaisePrivilege();
 496:Middlewares/Third_Party/FreeRTOS/Source/portable/Common/mpu_wrappers.c **** 
 497:Middlewares/Third_Party/FreeRTOS/Source/portable/Common/mpu_wrappers.c **** 		xReturn = xTaskGetCurrentTaskHandle();
 498:Middlewares/Third_Party/FreeRTOS/Source/portable/Common/mpu_wrappers.c **** 		vPortResetPrivilege( xRunningPrivileged );
 499:Middlewares/Third_Party/FreeRTOS/Source/portable/Common/mpu_wrappers.c **** 		return xReturn;
 500:Middlewares/Third_Party/FreeRTOS/Source/portable/Common/mpu_wrappers.c **** 	}
 501:Middlewares/Third_Party/FreeRTOS/Source/portable/Common/mpu_wrappers.c **** #endif
ARM GAS  /tmp/ccpAxJaT.s 			page 24


 502:Middlewares/Third_Party/FreeRTOS/Source/portable/Common/mpu_wrappers.c **** /*-----------------------------------------------------------*/
 503:Middlewares/Third_Party/FreeRTOS/Source/portable/Common/mpu_wrappers.c **** 
 504:Middlewares/Third_Party/FreeRTOS/Source/portable/Common/mpu_wrappers.c **** #if ( INCLUDE_xTaskGetSchedulerState == 1 )
 505:Middlewares/Third_Party/FreeRTOS/Source/portable/Common/mpu_wrappers.c **** 	BaseType_t MPU_xTaskGetSchedulerState( void ) /* FREERTOS_SYSTEM_CALL */
 506:Middlewares/Third_Party/FreeRTOS/Source/portable/Common/mpu_wrappers.c **** 	{
 507:Middlewares/Third_Party/FreeRTOS/Source/portable/Common/mpu_wrappers.c **** 	BaseType_t xReturn;
 508:Middlewares/Third_Party/FreeRTOS/Source/portable/Common/mpu_wrappers.c **** 	BaseType_t xRunningPrivileged = xPortRaisePrivilege();
 509:Middlewares/Third_Party/FreeRTOS/Source/portable/Common/mpu_wrappers.c **** 
 510:Middlewares/Third_Party/FreeRTOS/Source/portable/Common/mpu_wrappers.c **** 		xReturn = xTaskGetSchedulerState();
 511:Middlewares/Third_Party/FreeRTOS/Source/portable/Common/mpu_wrappers.c **** 		vPortResetPrivilege( xRunningPrivileged );
 512:Middlewares/Third_Party/FreeRTOS/Source/portable/Common/mpu_wrappers.c **** 		return xReturn;
 513:Middlewares/Third_Party/FreeRTOS/Source/portable/Common/mpu_wrappers.c **** 	}
 514:Middlewares/Third_Party/FreeRTOS/Source/portable/Common/mpu_wrappers.c **** #endif
 515:Middlewares/Third_Party/FreeRTOS/Source/portable/Common/mpu_wrappers.c **** /*-----------------------------------------------------------*/
 516:Middlewares/Third_Party/FreeRTOS/Source/portable/Common/mpu_wrappers.c **** 
 517:Middlewares/Third_Party/FreeRTOS/Source/portable/Common/mpu_wrappers.c **** void MPU_vTaskSetTimeOutState( TimeOut_t * const pxTimeOut ) /* FREERTOS_SYSTEM_CALL */
 518:Middlewares/Third_Party/FreeRTOS/Source/portable/Common/mpu_wrappers.c **** {
 519:Middlewares/Third_Party/FreeRTOS/Source/portable/Common/mpu_wrappers.c **** BaseType_t xRunningPrivileged = xPortRaisePrivilege();
 520:Middlewares/Third_Party/FreeRTOS/Source/portable/Common/mpu_wrappers.c **** 
 521:Middlewares/Third_Party/FreeRTOS/Source/portable/Common/mpu_wrappers.c **** 	vTaskSetTimeOutState( pxTimeOut );
 522:Middlewares/Third_Party/FreeRTOS/Source/portable/Common/mpu_wrappers.c **** 	vPortResetPrivilege( xRunningPrivileged );
 523:Middlewares/Third_Party/FreeRTOS/Source/portable/Common/mpu_wrappers.c **** }
 524:Middlewares/Third_Party/FreeRTOS/Source/portable/Common/mpu_wrappers.c **** /*-----------------------------------------------------------*/
 525:Middlewares/Third_Party/FreeRTOS/Source/portable/Common/mpu_wrappers.c **** 
 526:Middlewares/Third_Party/FreeRTOS/Source/portable/Common/mpu_wrappers.c **** BaseType_t MPU_xTaskCheckForTimeOut( TimeOut_t * const pxTimeOut, TickType_t * const pxTicksToWait 
 527:Middlewares/Third_Party/FreeRTOS/Source/portable/Common/mpu_wrappers.c **** {
 528:Middlewares/Third_Party/FreeRTOS/Source/portable/Common/mpu_wrappers.c **** BaseType_t xReturn;
 529:Middlewares/Third_Party/FreeRTOS/Source/portable/Common/mpu_wrappers.c **** BaseType_t xRunningPrivileged = xPortRaisePrivilege();
 530:Middlewares/Third_Party/FreeRTOS/Source/portable/Common/mpu_wrappers.c **** 
 531:Middlewares/Third_Party/FreeRTOS/Source/portable/Common/mpu_wrappers.c **** 	xReturn = xTaskCheckForTimeOut( pxTimeOut, pxTicksToWait );
 532:Middlewares/Third_Party/FreeRTOS/Source/portable/Common/mpu_wrappers.c **** 	vPortResetPrivilege( xRunningPrivileged );
 533:Middlewares/Third_Party/FreeRTOS/Source/portable/Common/mpu_wrappers.c **** 	return xReturn;
 534:Middlewares/Third_Party/FreeRTOS/Source/portable/Common/mpu_wrappers.c **** }
 535:Middlewares/Third_Party/FreeRTOS/Source/portable/Common/mpu_wrappers.c **** /*-----------------------------------------------------------*/
 536:Middlewares/Third_Party/FreeRTOS/Source/portable/Common/mpu_wrappers.c **** 
 537:Middlewares/Third_Party/FreeRTOS/Source/portable/Common/mpu_wrappers.c **** #if( configUSE_TASK_NOTIFICATIONS == 1 )
 538:Middlewares/Third_Party/FreeRTOS/Source/portable/Common/mpu_wrappers.c **** 	BaseType_t MPU_xTaskGenericNotify( TaskHandle_t xTaskToNotify, uint32_t ulValue, eNotifyAction eAc
 539:Middlewares/Third_Party/FreeRTOS/Source/portable/Common/mpu_wrappers.c **** 	{
 821              		.loc 1 539 2 is_stmt 1 view -0
 822              		.cfi_startproc
 823              		@ args = 0, pretend = 0, frame = 0
 824              		@ frame_needed = 0, uses_anonymous_args = 0
 825              		.loc 1 539 2 is_stmt 0 view .LVU186
 826 01b2 2DE9F041 		push	{r4, r5, r6, r7, r8, lr}
 827              		.cfi_def_cfa_offset 24
 828              		.cfi_offset 4, -24
 829              		.cfi_offset 5, -20
 830              		.cfi_offset 6, -16
 831              		.cfi_offset 7, -12
 832              		.cfi_offset 8, -8
 833              		.cfi_offset 14, -4
 834 01b6 0446     		mov	r4, r0
 835 01b8 0E46     		mov	r6, r1
 836 01ba 1746     		mov	r7, r2
 837 01bc 9846     		mov	r8, r3
 540:Middlewares/Third_Party/FreeRTOS/Source/portable/Common/mpu_wrappers.c **** 	BaseType_t xReturn;
 838              		.loc 1 540 2 is_stmt 1 view .LVU187
ARM GAS  /tmp/ccpAxJaT.s 			page 25


 541:Middlewares/Third_Party/FreeRTOS/Source/portable/Common/mpu_wrappers.c **** 	BaseType_t xRunningPrivileged = xPortRaisePrivilege();
 839              		.loc 1 541 2 view .LVU188
 840              		.loc 1 541 34 is_stmt 0 view .LVU189
 841 01be FFF7FEFF 		bl	xPortRaisePrivilege
 842              	.LVL100:
 843              		.loc 1 541 34 view .LVU190
 844 01c2 0546     		mov	r5, r0
 845              	.LVL101:
 542:Middlewares/Third_Party/FreeRTOS/Source/portable/Common/mpu_wrappers.c **** 
 543:Middlewares/Third_Party/FreeRTOS/Source/portable/Common/mpu_wrappers.c **** 		xReturn = xTaskGenericNotify( xTaskToNotify, ulValue, eAction, pulPreviousNotificationValue );
 846              		.loc 1 543 3 is_stmt 1 view .LVU191
 847              		.loc 1 543 13 is_stmt 0 view .LVU192
 848 01c4 4346     		mov	r3, r8
 849 01c6 3A46     		mov	r2, r7
 850 01c8 3146     		mov	r1, r6
 851 01ca 2046     		mov	r0, r4
 852              	.LVL102:
 853              		.loc 1 543 13 view .LVU193
 854 01cc FFF7FEFF 		bl	xTaskGenericNotify
 855              	.LVL103:
 856 01d0 0446     		mov	r4, r0
 857              	.LVL104:
 544:Middlewares/Third_Party/FreeRTOS/Source/portable/Common/mpu_wrappers.c **** 		vPortResetPrivilege( xRunningPrivileged );
 858              		.loc 1 544 3 is_stmt 1 view .LVU194
 859 01d2 2846     		mov	r0, r5
 860              	.LVL105:
 861              		.loc 1 544 3 is_stmt 0 view .LVU195
 862 01d4 FFF7FEFF 		bl	vPortResetPrivilege
 863              	.LVL106:
 545:Middlewares/Third_Party/FreeRTOS/Source/portable/Common/mpu_wrappers.c **** 		return xReturn;
 864              		.loc 1 545 3 is_stmt 1 view .LVU196
 546:Middlewares/Third_Party/FreeRTOS/Source/portable/Common/mpu_wrappers.c **** 	}
 865              		.loc 1 546 2 is_stmt 0 view .LVU197
 866 01d8 2046     		mov	r0, r4
 867 01da BDE8F081 		pop	{r4, r5, r6, r7, r8, pc}
 868              		.loc 1 546 2 view .LVU198
 869              		.cfi_endproc
 870              	.LFE26:
 872              		.align	1
 873              		.global	MPU_xTaskNotifyWait
 874              		.syntax unified
 875              		.thumb
 876              		.thumb_func
 878              	MPU_xTaskNotifyWait:
 879              	.LVL107:
 880              	.LFB27:
 547:Middlewares/Third_Party/FreeRTOS/Source/portable/Common/mpu_wrappers.c **** #endif
 548:Middlewares/Third_Party/FreeRTOS/Source/portable/Common/mpu_wrappers.c **** /*-----------------------------------------------------------*/
 549:Middlewares/Third_Party/FreeRTOS/Source/portable/Common/mpu_wrappers.c **** 
 550:Middlewares/Third_Party/FreeRTOS/Source/portable/Common/mpu_wrappers.c **** #if( configUSE_TASK_NOTIFICATIONS == 1 )
 551:Middlewares/Third_Party/FreeRTOS/Source/portable/Common/mpu_wrappers.c **** 	BaseType_t MPU_xTaskNotifyWait( uint32_t ulBitsToClearOnEntry, uint32_t ulBitsToClearOnExit, uint3
 552:Middlewares/Third_Party/FreeRTOS/Source/portable/Common/mpu_wrappers.c **** 	{
 881              		.loc 1 552 2 is_stmt 1 view -0
 882              		.cfi_startproc
 883              		@ args = 0, pretend = 0, frame = 0
 884              		@ frame_needed = 0, uses_anonymous_args = 0
 885              		.loc 1 552 2 is_stmt 0 view .LVU200
ARM GAS  /tmp/ccpAxJaT.s 			page 26


 886 01de 2DE9F041 		push	{r4, r5, r6, r7, r8, lr}
 887              		.cfi_def_cfa_offset 24
 888              		.cfi_offset 4, -24
 889              		.cfi_offset 5, -20
 890              		.cfi_offset 6, -16
 891              		.cfi_offset 7, -12
 892              		.cfi_offset 8, -8
 893              		.cfi_offset 14, -4
 894 01e2 0446     		mov	r4, r0
 895 01e4 0E46     		mov	r6, r1
 896 01e6 1746     		mov	r7, r2
 897 01e8 9846     		mov	r8, r3
 553:Middlewares/Third_Party/FreeRTOS/Source/portable/Common/mpu_wrappers.c **** 	BaseType_t xReturn;
 898              		.loc 1 553 2 is_stmt 1 view .LVU201
 554:Middlewares/Third_Party/FreeRTOS/Source/portable/Common/mpu_wrappers.c **** 	BaseType_t xRunningPrivileged = xPortRaisePrivilege();
 899              		.loc 1 554 2 view .LVU202
 900              		.loc 1 554 34 is_stmt 0 view .LVU203
 901 01ea FFF7FEFF 		bl	xPortRaisePrivilege
 902              	.LVL108:
 903              		.loc 1 554 34 view .LVU204
 904 01ee 0546     		mov	r5, r0
 905              	.LVL109:
 555:Middlewares/Third_Party/FreeRTOS/Source/portable/Common/mpu_wrappers.c **** 
 556:Middlewares/Third_Party/FreeRTOS/Source/portable/Common/mpu_wrappers.c **** 		xReturn = xTaskNotifyWait( ulBitsToClearOnEntry, ulBitsToClearOnExit, pulNotificationValue, xTick
 906              		.loc 1 556 3 is_stmt 1 view .LVU205
 907              		.loc 1 556 13 is_stmt 0 view .LVU206
 908 01f0 4346     		mov	r3, r8
 909 01f2 3A46     		mov	r2, r7
 910 01f4 3146     		mov	r1, r6
 911 01f6 2046     		mov	r0, r4
 912              	.LVL110:
 913              		.loc 1 556 13 view .LVU207
 914 01f8 FFF7FEFF 		bl	xTaskNotifyWait
 915              	.LVL111:
 916 01fc 0446     		mov	r4, r0
 917              	.LVL112:
 557:Middlewares/Third_Party/FreeRTOS/Source/portable/Common/mpu_wrappers.c **** 		vPortResetPrivilege( xRunningPrivileged );
 918              		.loc 1 557 3 is_stmt 1 view .LVU208
 919 01fe 2846     		mov	r0, r5
 920              	.LVL113:
 921              		.loc 1 557 3 is_stmt 0 view .LVU209
 922 0200 FFF7FEFF 		bl	vPortResetPrivilege
 923              	.LVL114:
 558:Middlewares/Third_Party/FreeRTOS/Source/portable/Common/mpu_wrappers.c **** 		return xReturn;
 924              		.loc 1 558 3 is_stmt 1 view .LVU210
 559:Middlewares/Third_Party/FreeRTOS/Source/portable/Common/mpu_wrappers.c **** 	}
 925              		.loc 1 559 2 is_stmt 0 view .LVU211
 926 0204 2046     		mov	r0, r4
 927 0206 BDE8F081 		pop	{r4, r5, r6, r7, r8, pc}
 928              		.loc 1 559 2 view .LVU212
 929              		.cfi_endproc
 930              	.LFE27:
 932              		.align	1
 933              		.global	MPU_ulTaskNotifyTake
 934              		.syntax unified
 935              		.thumb
 936              		.thumb_func
ARM GAS  /tmp/ccpAxJaT.s 			page 27


 938              	MPU_ulTaskNotifyTake:
 939              	.LVL115:
 940              	.LFB28:
 560:Middlewares/Third_Party/FreeRTOS/Source/portable/Common/mpu_wrappers.c **** #endif
 561:Middlewares/Third_Party/FreeRTOS/Source/portable/Common/mpu_wrappers.c **** /*-----------------------------------------------------------*/
 562:Middlewares/Third_Party/FreeRTOS/Source/portable/Common/mpu_wrappers.c **** 
 563:Middlewares/Third_Party/FreeRTOS/Source/portable/Common/mpu_wrappers.c **** #if( configUSE_TASK_NOTIFICATIONS == 1 )
 564:Middlewares/Third_Party/FreeRTOS/Source/portable/Common/mpu_wrappers.c **** 	uint32_t MPU_ulTaskNotifyTake( BaseType_t xClearCountOnExit, TickType_t xTicksToWait ) /* FREERTOS
 565:Middlewares/Third_Party/FreeRTOS/Source/portable/Common/mpu_wrappers.c **** 	{
 941              		.loc 1 565 2 is_stmt 1 view -0
 942              		.cfi_startproc
 943              		@ args = 0, pretend = 0, frame = 0
 944              		@ frame_needed = 0, uses_anonymous_args = 0
 945              		.loc 1 565 2 is_stmt 0 view .LVU214
 946 020a 70B5     		push	{r4, r5, r6, lr}
 947              		.cfi_def_cfa_offset 16
 948              		.cfi_offset 4, -16
 949              		.cfi_offset 5, -12
 950              		.cfi_offset 6, -8
 951              		.cfi_offset 14, -4
 952 020c 0446     		mov	r4, r0
 953 020e 0E46     		mov	r6, r1
 566:Middlewares/Third_Party/FreeRTOS/Source/portable/Common/mpu_wrappers.c **** 	uint32_t ulReturn;
 954              		.loc 1 566 2 is_stmt 1 view .LVU215
 567:Middlewares/Third_Party/FreeRTOS/Source/portable/Common/mpu_wrappers.c **** 	BaseType_t xRunningPrivileged = xPortRaisePrivilege();
 955              		.loc 1 567 2 view .LVU216
 956              		.loc 1 567 34 is_stmt 0 view .LVU217
 957 0210 FFF7FEFF 		bl	xPortRaisePrivilege
 958              	.LVL116:
 959              		.loc 1 567 34 view .LVU218
 960 0214 0546     		mov	r5, r0
 961              	.LVL117:
 568:Middlewares/Third_Party/FreeRTOS/Source/portable/Common/mpu_wrappers.c **** 
 569:Middlewares/Third_Party/FreeRTOS/Source/portable/Common/mpu_wrappers.c **** 		ulReturn = ulTaskNotifyTake( xClearCountOnExit, xTicksToWait );
 962              		.loc 1 569 3 is_stmt 1 view .LVU219
 963              		.loc 1 569 14 is_stmt 0 view .LVU220
 964 0216 3146     		mov	r1, r6
 965 0218 2046     		mov	r0, r4
 966              	.LVL118:
 967              		.loc 1 569 14 view .LVU221
 968 021a FFF7FEFF 		bl	ulTaskNotifyTake
 969              	.LVL119:
 970 021e 0446     		mov	r4, r0
 971              	.LVL120:
 570:Middlewares/Third_Party/FreeRTOS/Source/portable/Common/mpu_wrappers.c **** 		vPortResetPrivilege( xRunningPrivileged );
 972              		.loc 1 570 3 is_stmt 1 view .LVU222
 973 0220 2846     		mov	r0, r5
 974              	.LVL121:
 975              		.loc 1 570 3 is_stmt 0 view .LVU223
 976 0222 FFF7FEFF 		bl	vPortResetPrivilege
 977              	.LVL122:
 571:Middlewares/Third_Party/FreeRTOS/Source/portable/Common/mpu_wrappers.c **** 		return ulReturn;
 978              		.loc 1 571 3 is_stmt 1 view .LVU224
 572:Middlewares/Third_Party/FreeRTOS/Source/portable/Common/mpu_wrappers.c **** 	}
 979              		.loc 1 572 2 is_stmt 0 view .LVU225
 980 0226 2046     		mov	r0, r4
 981 0228 70BD     		pop	{r4, r5, r6, pc}
ARM GAS  /tmp/ccpAxJaT.s 			page 28


 982              		.loc 1 572 2 view .LVU226
 983              		.cfi_endproc
 984              	.LFE28:
 986              		.align	1
 987              		.global	MPU_xTaskNotifyStateClear
 988              		.syntax unified
 989              		.thumb
 990              		.thumb_func
 992              	MPU_xTaskNotifyStateClear:
 993              	.LVL123:
 994              	.LFB29:
 573:Middlewares/Third_Party/FreeRTOS/Source/portable/Common/mpu_wrappers.c **** #endif
 574:Middlewares/Third_Party/FreeRTOS/Source/portable/Common/mpu_wrappers.c **** /*-----------------------------------------------------------*/
 575:Middlewares/Third_Party/FreeRTOS/Source/portable/Common/mpu_wrappers.c **** 
 576:Middlewares/Third_Party/FreeRTOS/Source/portable/Common/mpu_wrappers.c **** #if( configUSE_TASK_NOTIFICATIONS == 1 )
 577:Middlewares/Third_Party/FreeRTOS/Source/portable/Common/mpu_wrappers.c **** 	BaseType_t MPU_xTaskNotifyStateClear( TaskHandle_t xTask ) /* FREERTOS_SYSTEM_CALL */
 578:Middlewares/Third_Party/FreeRTOS/Source/portable/Common/mpu_wrappers.c **** 	{
 995              		.loc 1 578 2 is_stmt 1 view -0
 996              		.cfi_startproc
 997              		@ args = 0, pretend = 0, frame = 0
 998              		@ frame_needed = 0, uses_anonymous_args = 0
 999              		.loc 1 578 2 is_stmt 0 view .LVU228
 1000 022a 38B5     		push	{r3, r4, r5, lr}
 1001              		.cfi_def_cfa_offset 16
 1002              		.cfi_offset 3, -16
 1003              		.cfi_offset 4, -12
 1004              		.cfi_offset 5, -8
 1005              		.cfi_offset 14, -4
 1006 022c 0446     		mov	r4, r0
 579:Middlewares/Third_Party/FreeRTOS/Source/portable/Common/mpu_wrappers.c **** 	BaseType_t xReturn;
 1007              		.loc 1 579 2 is_stmt 1 view .LVU229
 580:Middlewares/Third_Party/FreeRTOS/Source/portable/Common/mpu_wrappers.c **** 	BaseType_t xRunningPrivileged = xPortRaisePrivilege();
 1008              		.loc 1 580 2 view .LVU230
 1009              		.loc 1 580 34 is_stmt 0 view .LVU231
 1010 022e FFF7FEFF 		bl	xPortRaisePrivilege
 1011              	.LVL124:
 1012              		.loc 1 580 34 view .LVU232
 1013 0232 0546     		mov	r5, r0
 1014              	.LVL125:
 581:Middlewares/Third_Party/FreeRTOS/Source/portable/Common/mpu_wrappers.c **** 
 582:Middlewares/Third_Party/FreeRTOS/Source/portable/Common/mpu_wrappers.c **** 		xReturn = xTaskNotifyStateClear( xTask );
 1015              		.loc 1 582 3 is_stmt 1 view .LVU233
 1016              		.loc 1 582 13 is_stmt 0 view .LVU234
 1017 0234 2046     		mov	r0, r4
 1018              	.LVL126:
 1019              		.loc 1 582 13 view .LVU235
 1020 0236 FFF7FEFF 		bl	xTaskNotifyStateClear
 1021              	.LVL127:
 1022 023a 0446     		mov	r4, r0
 1023              	.LVL128:
 583:Middlewares/Third_Party/FreeRTOS/Source/portable/Common/mpu_wrappers.c **** 		vPortResetPrivilege( xRunningPrivileged );
 1024              		.loc 1 583 3 is_stmt 1 view .LVU236
 1025 023c 2846     		mov	r0, r5
 1026              	.LVL129:
 1027              		.loc 1 583 3 is_stmt 0 view .LVU237
 1028 023e FFF7FEFF 		bl	vPortResetPrivilege
 1029              	.LVL130:
ARM GAS  /tmp/ccpAxJaT.s 			page 29


 584:Middlewares/Third_Party/FreeRTOS/Source/portable/Common/mpu_wrappers.c **** 		return xReturn;
 1030              		.loc 1 584 3 is_stmt 1 view .LVU238
 585:Middlewares/Third_Party/FreeRTOS/Source/portable/Common/mpu_wrappers.c **** 	}
 1031              		.loc 1 585 2 is_stmt 0 view .LVU239
 1032 0242 2046     		mov	r0, r4
 1033 0244 38BD     		pop	{r3, r4, r5, pc}
 1034              		.loc 1 585 2 view .LVU240
 1035              		.cfi_endproc
 1036              	.LFE29:
 1038              		.align	1
 1039              		.global	MPU_ulTaskNotifyValueClear
 1040              		.syntax unified
 1041              		.thumb
 1042              		.thumb_func
 1044              	MPU_ulTaskNotifyValueClear:
 1045              	.LVL131:
 1046              	.LFB30:
 586:Middlewares/Third_Party/FreeRTOS/Source/portable/Common/mpu_wrappers.c **** #endif
 587:Middlewares/Third_Party/FreeRTOS/Source/portable/Common/mpu_wrappers.c **** /*-----------------------------------------------------------*/
 588:Middlewares/Third_Party/FreeRTOS/Source/portable/Common/mpu_wrappers.c **** 
 589:Middlewares/Third_Party/FreeRTOS/Source/portable/Common/mpu_wrappers.c **** #if( configUSE_TASK_NOTIFICATIONS == 1 )
 590:Middlewares/Third_Party/FreeRTOS/Source/portable/Common/mpu_wrappers.c **** 	uint32_t MPU_ulTaskNotifyValueClear( TaskHandle_t xTask, uint32_t ulBitsToClear ) /* FREERTOS_SYST
 591:Middlewares/Third_Party/FreeRTOS/Source/portable/Common/mpu_wrappers.c **** 	{
 1047              		.loc 1 591 2 is_stmt 1 view -0
 1048              		.cfi_startproc
 1049              		@ args = 0, pretend = 0, frame = 0
 1050              		@ frame_needed = 0, uses_anonymous_args = 0
 1051              		.loc 1 591 2 is_stmt 0 view .LVU242
 1052 0246 70B5     		push	{r4, r5, r6, lr}
 1053              		.cfi_def_cfa_offset 16
 1054              		.cfi_offset 4, -16
 1055              		.cfi_offset 5, -12
 1056              		.cfi_offset 6, -8
 1057              		.cfi_offset 14, -4
 1058 0248 0446     		mov	r4, r0
 1059 024a 0E46     		mov	r6, r1
 592:Middlewares/Third_Party/FreeRTOS/Source/portable/Common/mpu_wrappers.c **** 	uint32_t ulReturn;
 1060              		.loc 1 592 2 is_stmt 1 view .LVU243
 593:Middlewares/Third_Party/FreeRTOS/Source/portable/Common/mpu_wrappers.c **** 	BaseType_t xRunningPrivileged = xPortRaisePrivilege();
 1061              		.loc 1 593 2 view .LVU244
 1062              		.loc 1 593 34 is_stmt 0 view .LVU245
 1063 024c FFF7FEFF 		bl	xPortRaisePrivilege
 1064              	.LVL132:
 1065              		.loc 1 593 34 view .LVU246
 1066 0250 0546     		mov	r5, r0
 1067              	.LVL133:
 594:Middlewares/Third_Party/FreeRTOS/Source/portable/Common/mpu_wrappers.c **** 
 595:Middlewares/Third_Party/FreeRTOS/Source/portable/Common/mpu_wrappers.c **** 		ulReturn = ulTaskNotifyValueClear( xTask, ulBitsToClear );
 1068              		.loc 1 595 3 is_stmt 1 view .LVU247
 1069              		.loc 1 595 14 is_stmt 0 view .LVU248
 1070 0252 3146     		mov	r1, r6
 1071 0254 2046     		mov	r0, r4
 1072              	.LVL134:
 1073              		.loc 1 595 14 view .LVU249
 1074 0256 FFF7FEFF 		bl	ulTaskNotifyValueClear
 1075              	.LVL135:
 1076 025a 0446     		mov	r4, r0
ARM GAS  /tmp/ccpAxJaT.s 			page 30


 1077              	.LVL136:
 596:Middlewares/Third_Party/FreeRTOS/Source/portable/Common/mpu_wrappers.c **** 		vPortResetPrivilege( xRunningPrivileged );
 1078              		.loc 1 596 3 is_stmt 1 view .LVU250
 1079 025c 2846     		mov	r0, r5
 1080              	.LVL137:
 1081              		.loc 1 596 3 is_stmt 0 view .LVU251
 1082 025e FFF7FEFF 		bl	vPortResetPrivilege
 1083              	.LVL138:
 597:Middlewares/Third_Party/FreeRTOS/Source/portable/Common/mpu_wrappers.c **** 		return ulReturn;
 1084              		.loc 1 597 3 is_stmt 1 view .LVU252
 598:Middlewares/Third_Party/FreeRTOS/Source/portable/Common/mpu_wrappers.c **** 	}
 1085              		.loc 1 598 2 is_stmt 0 view .LVU253
 1086 0262 2046     		mov	r0, r4
 1087 0264 70BD     		pop	{r4, r5, r6, pc}
 1088              		.loc 1 598 2 view .LVU254
 1089              		.cfi_endproc
 1090              	.LFE30:
 1092              		.align	1
 1093              		.global	MPU_vTaskSetTimeOutState
 1094              		.syntax unified
 1095              		.thumb
 1096              		.thumb_func
 1098              	MPU_vTaskSetTimeOutState:
 1099              	.LVL139:
 1100              	.LFB24:
 518:Middlewares/Third_Party/FreeRTOS/Source/portable/Common/mpu_wrappers.c **** BaseType_t xRunningPrivileged = xPortRaisePrivilege();
 1101              		.loc 1 518 1 is_stmt 1 view -0
 1102              		.cfi_startproc
 1103              		@ args = 0, pretend = 0, frame = 0
 1104              		@ frame_needed = 0, uses_anonymous_args = 0
 518:Middlewares/Third_Party/FreeRTOS/Source/portable/Common/mpu_wrappers.c **** BaseType_t xRunningPrivileged = xPortRaisePrivilege();
 1105              		.loc 1 518 1 is_stmt 0 view .LVU256
 1106 0266 38B5     		push	{r3, r4, r5, lr}
 1107              		.cfi_def_cfa_offset 16
 1108              		.cfi_offset 3, -16
 1109              		.cfi_offset 4, -12
 1110              		.cfi_offset 5, -8
 1111              		.cfi_offset 14, -4
 1112 0268 0546     		mov	r5, r0
 519:Middlewares/Third_Party/FreeRTOS/Source/portable/Common/mpu_wrappers.c **** 
 1113              		.loc 1 519 1 is_stmt 1 view .LVU257
 519:Middlewares/Third_Party/FreeRTOS/Source/portable/Common/mpu_wrappers.c **** 
 1114              		.loc 1 519 33 is_stmt 0 view .LVU258
 1115 026a FFF7FEFF 		bl	xPortRaisePrivilege
 1116              	.LVL140:
 519:Middlewares/Third_Party/FreeRTOS/Source/portable/Common/mpu_wrappers.c **** 
 1117              		.loc 1 519 33 view .LVU259
 1118 026e 0446     		mov	r4, r0
 1119              	.LVL141:
 521:Middlewares/Third_Party/FreeRTOS/Source/portable/Common/mpu_wrappers.c **** 	vPortResetPrivilege( xRunningPrivileged );
 1120              		.loc 1 521 2 is_stmt 1 view .LVU260
 1121 0270 2846     		mov	r0, r5
 1122              	.LVL142:
 521:Middlewares/Third_Party/FreeRTOS/Source/portable/Common/mpu_wrappers.c **** 	vPortResetPrivilege( xRunningPrivileged );
 1123              		.loc 1 521 2 is_stmt 0 view .LVU261
 1124 0272 FFF7FEFF 		bl	vTaskSetTimeOutState
 1125              	.LVL143:
ARM GAS  /tmp/ccpAxJaT.s 			page 31


 522:Middlewares/Third_Party/FreeRTOS/Source/portable/Common/mpu_wrappers.c **** }
 1126              		.loc 1 522 2 is_stmt 1 view .LVU262
 1127 0276 2046     		mov	r0, r4
 1128 0278 FFF7FEFF 		bl	vPortResetPrivilege
 1129              	.LVL144:
 523:Middlewares/Third_Party/FreeRTOS/Source/portable/Common/mpu_wrappers.c **** /*-----------------------------------------------------------*/
 1130              		.loc 1 523 1 is_stmt 0 view .LVU263
 1131 027c 38BD     		pop	{r3, r4, r5, pc}
 523:Middlewares/Third_Party/FreeRTOS/Source/portable/Common/mpu_wrappers.c **** /*-----------------------------------------------------------*/
 1132              		.loc 1 523 1 view .LVU264
 1133              		.cfi_endproc
 1134              	.LFE24:
 1136              		.align	1
 1137              		.global	MPU_xTaskCheckForTimeOut
 1138              		.syntax unified
 1139              		.thumb
 1140              		.thumb_func
 1142              	MPU_xTaskCheckForTimeOut:
 1143              	.LVL145:
 1144              	.LFB25:
 527:Middlewares/Third_Party/FreeRTOS/Source/portable/Common/mpu_wrappers.c **** BaseType_t xReturn;
 1145              		.loc 1 527 1 is_stmt 1 view -0
 1146              		.cfi_startproc
 1147              		@ args = 0, pretend = 0, frame = 0
 1148              		@ frame_needed = 0, uses_anonymous_args = 0
 527:Middlewares/Third_Party/FreeRTOS/Source/portable/Common/mpu_wrappers.c **** BaseType_t xReturn;
 1149              		.loc 1 527 1 is_stmt 0 view .LVU266
 1150 027e 70B5     		push	{r4, r5, r6, lr}
 1151              		.cfi_def_cfa_offset 16
 1152              		.cfi_offset 4, -16
 1153              		.cfi_offset 5, -12
 1154              		.cfi_offset 6, -8
 1155              		.cfi_offset 14, -4
 1156 0280 0446     		mov	r4, r0
 1157 0282 0E46     		mov	r6, r1
 528:Middlewares/Third_Party/FreeRTOS/Source/portable/Common/mpu_wrappers.c **** BaseType_t xRunningPrivileged = xPortRaisePrivilege();
 1158              		.loc 1 528 1 is_stmt 1 view .LVU267
 529:Middlewares/Third_Party/FreeRTOS/Source/portable/Common/mpu_wrappers.c **** 
 1159              		.loc 1 529 1 view .LVU268
 529:Middlewares/Third_Party/FreeRTOS/Source/portable/Common/mpu_wrappers.c **** 
 1160              		.loc 1 529 33 is_stmt 0 view .LVU269
 1161 0284 FFF7FEFF 		bl	xPortRaisePrivilege
 1162              	.LVL146:
 529:Middlewares/Third_Party/FreeRTOS/Source/portable/Common/mpu_wrappers.c **** 
 1163              		.loc 1 529 33 view .LVU270
 1164 0288 0546     		mov	r5, r0
 1165              	.LVL147:
 531:Middlewares/Third_Party/FreeRTOS/Source/portable/Common/mpu_wrappers.c **** 	vPortResetPrivilege( xRunningPrivileged );
 1166              		.loc 1 531 2 is_stmt 1 view .LVU271
 531:Middlewares/Third_Party/FreeRTOS/Source/portable/Common/mpu_wrappers.c **** 	vPortResetPrivilege( xRunningPrivileged );
 1167              		.loc 1 531 12 is_stmt 0 view .LVU272
 1168 028a 3146     		mov	r1, r6
 1169 028c 2046     		mov	r0, r4
 1170              	.LVL148:
 531:Middlewares/Third_Party/FreeRTOS/Source/portable/Common/mpu_wrappers.c **** 	vPortResetPrivilege( xRunningPrivileged );
 1171              		.loc 1 531 12 view .LVU273
 1172 028e FFF7FEFF 		bl	xTaskCheckForTimeOut
ARM GAS  /tmp/ccpAxJaT.s 			page 32


 1173              	.LVL149:
 1174 0292 0446     		mov	r4, r0
 1175              	.LVL150:
 532:Middlewares/Third_Party/FreeRTOS/Source/portable/Common/mpu_wrappers.c **** 	return xReturn;
 1176              		.loc 1 532 2 is_stmt 1 view .LVU274
 1177 0294 2846     		mov	r0, r5
 1178              	.LVL151:
 532:Middlewares/Third_Party/FreeRTOS/Source/portable/Common/mpu_wrappers.c **** 	return xReturn;
 1179              		.loc 1 532 2 is_stmt 0 view .LVU275
 1180 0296 FFF7FEFF 		bl	vPortResetPrivilege
 1181              	.LVL152:
 533:Middlewares/Third_Party/FreeRTOS/Source/portable/Common/mpu_wrappers.c **** }
 1182              		.loc 1 533 2 is_stmt 1 view .LVU276
 534:Middlewares/Third_Party/FreeRTOS/Source/portable/Common/mpu_wrappers.c **** /*-----------------------------------------------------------*/
 1183              		.loc 1 534 1 is_stmt 0 view .LVU277
 1184 029a 2046     		mov	r0, r4
 1185 029c 70BD     		pop	{r4, r5, r6, pc}
 534:Middlewares/Third_Party/FreeRTOS/Source/portable/Common/mpu_wrappers.c **** /*-----------------------------------------------------------*/
 1186              		.loc 1 534 1 view .LVU278
 1187              		.cfi_endproc
 1188              	.LFE25:
 1190              		.align	1
 1191              		.global	MPU_xTaskGetSchedulerState
 1192              		.syntax unified
 1193              		.thumb
 1194              		.thumb_func
 1196              	MPU_xTaskGetSchedulerState:
 1197              	.LFB23:
 506:Middlewares/Third_Party/FreeRTOS/Source/portable/Common/mpu_wrappers.c **** 	BaseType_t xReturn;
 1198              		.loc 1 506 2 is_stmt 1 view -0
 1199              		.cfi_startproc
 1200              		@ args = 0, pretend = 0, frame = 0
 1201              		@ frame_needed = 0, uses_anonymous_args = 0
 1202 029e 38B5     		push	{r3, r4, r5, lr}
 1203              		.cfi_def_cfa_offset 16
 1204              		.cfi_offset 3, -16
 1205              		.cfi_offset 4, -12
 1206              		.cfi_offset 5, -8
 1207              		.cfi_offset 14, -4
 507:Middlewares/Third_Party/FreeRTOS/Source/portable/Common/mpu_wrappers.c **** 	BaseType_t xRunningPrivileged = xPortRaisePrivilege();
 1208              		.loc 1 507 2 view .LVU280
 508:Middlewares/Third_Party/FreeRTOS/Source/portable/Common/mpu_wrappers.c **** 
 1209              		.loc 1 508 2 view .LVU281
 508:Middlewares/Third_Party/FreeRTOS/Source/portable/Common/mpu_wrappers.c **** 
 1210              		.loc 1 508 34 is_stmt 0 view .LVU282
 1211 02a0 FFF7FEFF 		bl	xPortRaisePrivilege
 1212              	.LVL153:
 1213 02a4 0546     		mov	r5, r0
 1214              	.LVL154:
 510:Middlewares/Third_Party/FreeRTOS/Source/portable/Common/mpu_wrappers.c **** 		vPortResetPrivilege( xRunningPrivileged );
 1215              		.loc 1 510 3 is_stmt 1 view .LVU283
 510:Middlewares/Third_Party/FreeRTOS/Source/portable/Common/mpu_wrappers.c **** 		vPortResetPrivilege( xRunningPrivileged );
 1216              		.loc 1 510 13 is_stmt 0 view .LVU284
 1217 02a6 FFF7FEFF 		bl	xTaskGetSchedulerState
 1218              	.LVL155:
 510:Middlewares/Third_Party/FreeRTOS/Source/portable/Common/mpu_wrappers.c **** 		vPortResetPrivilege( xRunningPrivileged );
 1219              		.loc 1 510 13 view .LVU285
ARM GAS  /tmp/ccpAxJaT.s 			page 33


 1220 02aa 0446     		mov	r4, r0
 1221              	.LVL156:
 511:Middlewares/Third_Party/FreeRTOS/Source/portable/Common/mpu_wrappers.c **** 		return xReturn;
 1222              		.loc 1 511 3 is_stmt 1 view .LVU286
 1223 02ac 2846     		mov	r0, r5
 1224              	.LVL157:
 511:Middlewares/Third_Party/FreeRTOS/Source/portable/Common/mpu_wrappers.c **** 		return xReturn;
 1225              		.loc 1 511 3 is_stmt 0 view .LVU287
 1226 02ae FFF7FEFF 		bl	vPortResetPrivilege
 1227              	.LVL158:
 512:Middlewares/Third_Party/FreeRTOS/Source/portable/Common/mpu_wrappers.c **** 	}
 1228              		.loc 1 512 3 is_stmt 1 view .LVU288
 513:Middlewares/Third_Party/FreeRTOS/Source/portable/Common/mpu_wrappers.c **** #endif
 1229              		.loc 1 513 2 is_stmt 0 view .LVU289
 1230 02b2 2046     		mov	r0, r4
 1231 02b4 38BD     		pop	{r3, r4, r5, pc}
 513:Middlewares/Third_Party/FreeRTOS/Source/portable/Common/mpu_wrappers.c **** #endif
 1232              		.loc 1 513 2 view .LVU290
 1233              		.cfi_endproc
 1234              	.LFE23:
 1236              		.align	1
 1237              		.global	MPU_xTaskCatchUpTicks
 1238              		.syntax unified
 1239              		.thumb
 1240              		.thumb_func
 1242              	MPU_xTaskCatchUpTicks:
 1243              	.LVL159:
 1244              	.LFB22:
 455:Middlewares/Third_Party/FreeRTOS/Source/portable/Common/mpu_wrappers.c **** BaseType_t xReturn;
 1245              		.loc 1 455 1 is_stmt 1 view -0
 1246              		.cfi_startproc
 1247              		@ args = 0, pretend = 0, frame = 0
 1248              		@ frame_needed = 0, uses_anonymous_args = 0
 455:Middlewares/Third_Party/FreeRTOS/Source/portable/Common/mpu_wrappers.c **** BaseType_t xReturn;
 1249              		.loc 1 455 1 is_stmt 0 view .LVU292
 1250 02b6 38B5     		push	{r3, r4, r5, lr}
 1251              		.cfi_def_cfa_offset 16
 1252              		.cfi_offset 3, -16
 1253              		.cfi_offset 4, -12
 1254              		.cfi_offset 5, -8
 1255              		.cfi_offset 14, -4
 1256 02b8 0446     		mov	r4, r0
 456:Middlewares/Third_Party/FreeRTOS/Source/portable/Common/mpu_wrappers.c **** BaseType_t xRunningPrivileged = xPortRaisePrivilege();
 1257              		.loc 1 456 1 is_stmt 1 view .LVU293
 457:Middlewares/Third_Party/FreeRTOS/Source/portable/Common/mpu_wrappers.c **** 
 1258              		.loc 1 457 1 view .LVU294
 457:Middlewares/Third_Party/FreeRTOS/Source/portable/Common/mpu_wrappers.c **** 
 1259              		.loc 1 457 33 is_stmt 0 view .LVU295
 1260 02ba FFF7FEFF 		bl	xPortRaisePrivilege
 1261              	.LVL160:
 457:Middlewares/Third_Party/FreeRTOS/Source/portable/Common/mpu_wrappers.c **** 
 1262              		.loc 1 457 33 view .LVU296
 1263 02be 0546     		mov	r5, r0
 1264              	.LVL161:
 459:Middlewares/Third_Party/FreeRTOS/Source/portable/Common/mpu_wrappers.c **** 	vPortResetPrivilege( xRunningPrivileged );
 1265              		.loc 1 459 2 is_stmt 1 view .LVU297
 459:Middlewares/Third_Party/FreeRTOS/Source/portable/Common/mpu_wrappers.c **** 	vPortResetPrivilege( xRunningPrivileged );
ARM GAS  /tmp/ccpAxJaT.s 			page 34


 1266              		.loc 1 459 12 is_stmt 0 view .LVU298
 1267 02c0 2046     		mov	r0, r4
 1268              	.LVL162:
 459:Middlewares/Third_Party/FreeRTOS/Source/portable/Common/mpu_wrappers.c **** 	vPortResetPrivilege( xRunningPrivileged );
 1269              		.loc 1 459 12 view .LVU299
 1270 02c2 FFF7FEFF 		bl	xTaskCatchUpTicks
 1271              	.LVL163:
 1272 02c6 0446     		mov	r4, r0
 1273              	.LVL164:
 460:Middlewares/Third_Party/FreeRTOS/Source/portable/Common/mpu_wrappers.c **** 	return xReturn;
 1274              		.loc 1 460 2 is_stmt 1 view .LVU300
 1275 02c8 2846     		mov	r0, r5
 1276              	.LVL165:
 460:Middlewares/Third_Party/FreeRTOS/Source/portable/Common/mpu_wrappers.c **** 	return xReturn;
 1277              		.loc 1 460 2 is_stmt 0 view .LVU301
 1278 02ca FFF7FEFF 		bl	vPortResetPrivilege
 1279              	.LVL166:
 461:Middlewares/Third_Party/FreeRTOS/Source/portable/Common/mpu_wrappers.c **** }
 1280              		.loc 1 461 2 is_stmt 1 view .LVU302
 462:Middlewares/Third_Party/FreeRTOS/Source/portable/Common/mpu_wrappers.c **** /*-----------------------------------------------------------*/
 1281              		.loc 1 462 1 is_stmt 0 view .LVU303
 1282 02ce 2046     		mov	r0, r4
 1283 02d0 38BD     		pop	{r3, r4, r5, pc}
 462:Middlewares/Third_Party/FreeRTOS/Source/portable/Common/mpu_wrappers.c **** /*-----------------------------------------------------------*/
 1284              		.loc 1 462 1 view .LVU304
 1285              		.cfi_endproc
 1286              	.LFE22:
 1288              		.align	1
 1289              		.global	MPU_xQueueGenericSend
 1290              		.syntax unified
 1291              		.thumb
 1292              		.thumb_func
 1294              	MPU_xQueueGenericSend:
 1295              	.LVL167:
 1296              	.LFB33:
 599:Middlewares/Third_Party/FreeRTOS/Source/portable/Common/mpu_wrappers.c **** #endif
 600:Middlewares/Third_Party/FreeRTOS/Source/portable/Common/mpu_wrappers.c **** /*-----------------------------------------------------------*/
 601:Middlewares/Third_Party/FreeRTOS/Source/portable/Common/mpu_wrappers.c **** 
 602:Middlewares/Third_Party/FreeRTOS/Source/portable/Common/mpu_wrappers.c **** #if( configSUPPORT_DYNAMIC_ALLOCATION == 1 )
 603:Middlewares/Third_Party/FreeRTOS/Source/portable/Common/mpu_wrappers.c **** 	QueueHandle_t MPU_xQueueGenericCreate( UBaseType_t uxQueueLength, UBaseType_t uxItemSize, uint8_t 
 604:Middlewares/Third_Party/FreeRTOS/Source/portable/Common/mpu_wrappers.c **** 	{
 605:Middlewares/Third_Party/FreeRTOS/Source/portable/Common/mpu_wrappers.c **** 	QueueHandle_t xReturn;
 606:Middlewares/Third_Party/FreeRTOS/Source/portable/Common/mpu_wrappers.c **** 	BaseType_t xRunningPrivileged = xPortRaisePrivilege();
 607:Middlewares/Third_Party/FreeRTOS/Source/portable/Common/mpu_wrappers.c **** 
 608:Middlewares/Third_Party/FreeRTOS/Source/portable/Common/mpu_wrappers.c **** 		xReturn = xQueueGenericCreate( uxQueueLength, uxItemSize, ucQueueType );
 609:Middlewares/Third_Party/FreeRTOS/Source/portable/Common/mpu_wrappers.c **** 		vPortResetPrivilege( xRunningPrivileged );
 610:Middlewares/Third_Party/FreeRTOS/Source/portable/Common/mpu_wrappers.c **** 		return xReturn;
 611:Middlewares/Third_Party/FreeRTOS/Source/portable/Common/mpu_wrappers.c **** 	}
 612:Middlewares/Third_Party/FreeRTOS/Source/portable/Common/mpu_wrappers.c **** #endif
 613:Middlewares/Third_Party/FreeRTOS/Source/portable/Common/mpu_wrappers.c **** /*-----------------------------------------------------------*/
 614:Middlewares/Third_Party/FreeRTOS/Source/portable/Common/mpu_wrappers.c **** 
 615:Middlewares/Third_Party/FreeRTOS/Source/portable/Common/mpu_wrappers.c **** #if( configSUPPORT_STATIC_ALLOCATION == 1 )
 616:Middlewares/Third_Party/FreeRTOS/Source/portable/Common/mpu_wrappers.c **** 	QueueHandle_t MPU_xQueueGenericCreateStatic( const UBaseType_t uxQueueLength, const UBaseType_t ux
 617:Middlewares/Third_Party/FreeRTOS/Source/portable/Common/mpu_wrappers.c **** 	{
 618:Middlewares/Third_Party/FreeRTOS/Source/portable/Common/mpu_wrappers.c **** 	QueueHandle_t xReturn;
 619:Middlewares/Third_Party/FreeRTOS/Source/portable/Common/mpu_wrappers.c **** 	BaseType_t xRunningPrivileged = xPortRaisePrivilege();
 620:Middlewares/Third_Party/FreeRTOS/Source/portable/Common/mpu_wrappers.c **** 
ARM GAS  /tmp/ccpAxJaT.s 			page 35


 621:Middlewares/Third_Party/FreeRTOS/Source/portable/Common/mpu_wrappers.c **** 		xReturn = xQueueGenericCreateStatic( uxQueueLength, uxItemSize, pucQueueStorage, pxStaticQueue, u
 622:Middlewares/Third_Party/FreeRTOS/Source/portable/Common/mpu_wrappers.c **** 		vPortResetPrivilege( xRunningPrivileged );
 623:Middlewares/Third_Party/FreeRTOS/Source/portable/Common/mpu_wrappers.c **** 		return xReturn;
 624:Middlewares/Third_Party/FreeRTOS/Source/portable/Common/mpu_wrappers.c **** 	}
 625:Middlewares/Third_Party/FreeRTOS/Source/portable/Common/mpu_wrappers.c **** #endif
 626:Middlewares/Third_Party/FreeRTOS/Source/portable/Common/mpu_wrappers.c **** /*-----------------------------------------------------------*/
 627:Middlewares/Third_Party/FreeRTOS/Source/portable/Common/mpu_wrappers.c **** 
 628:Middlewares/Third_Party/FreeRTOS/Source/portable/Common/mpu_wrappers.c **** BaseType_t MPU_xQueueGenericReset( QueueHandle_t pxQueue, BaseType_t xNewQueue ) /* FREERTOS_SYSTEM
 629:Middlewares/Third_Party/FreeRTOS/Source/portable/Common/mpu_wrappers.c **** {
 630:Middlewares/Third_Party/FreeRTOS/Source/portable/Common/mpu_wrappers.c **** BaseType_t xReturn;
 631:Middlewares/Third_Party/FreeRTOS/Source/portable/Common/mpu_wrappers.c **** BaseType_t xRunningPrivileged = xPortRaisePrivilege();
 632:Middlewares/Third_Party/FreeRTOS/Source/portable/Common/mpu_wrappers.c **** 
 633:Middlewares/Third_Party/FreeRTOS/Source/portable/Common/mpu_wrappers.c **** 	xReturn = xQueueGenericReset( pxQueue, xNewQueue );
 634:Middlewares/Third_Party/FreeRTOS/Source/portable/Common/mpu_wrappers.c **** 	vPortResetPrivilege( xRunningPrivileged );
 635:Middlewares/Third_Party/FreeRTOS/Source/portable/Common/mpu_wrappers.c **** 	return xReturn;
 636:Middlewares/Third_Party/FreeRTOS/Source/portable/Common/mpu_wrappers.c **** }
 637:Middlewares/Third_Party/FreeRTOS/Source/portable/Common/mpu_wrappers.c **** /*-----------------------------------------------------------*/
 638:Middlewares/Third_Party/FreeRTOS/Source/portable/Common/mpu_wrappers.c **** 
 639:Middlewares/Third_Party/FreeRTOS/Source/portable/Common/mpu_wrappers.c **** BaseType_t MPU_xQueueGenericSend( QueueHandle_t xQueue, const void * const pvItemToQueue, TickType_
 640:Middlewares/Third_Party/FreeRTOS/Source/portable/Common/mpu_wrappers.c **** {
 1297              		.loc 1 640 1 is_stmt 1 view -0
 1298              		.cfi_startproc
 1299              		@ args = 0, pretend = 0, frame = 0
 1300              		@ frame_needed = 0, uses_anonymous_args = 0
 1301              		.loc 1 640 1 is_stmt 0 view .LVU306
 1302 02d2 2DE9F041 		push	{r4, r5, r6, r7, r8, lr}
 1303              		.cfi_def_cfa_offset 24
 1304              		.cfi_offset 4, -24
 1305              		.cfi_offset 5, -20
 1306              		.cfi_offset 6, -16
 1307              		.cfi_offset 7, -12
 1308              		.cfi_offset 8, -8
 1309              		.cfi_offset 14, -4
 1310 02d6 0446     		mov	r4, r0
 1311 02d8 0E46     		mov	r6, r1
 1312 02da 1746     		mov	r7, r2
 1313 02dc 9846     		mov	r8, r3
 641:Middlewares/Third_Party/FreeRTOS/Source/portable/Common/mpu_wrappers.c **** BaseType_t xReturn;
 1314              		.loc 1 641 1 is_stmt 1 view .LVU307
 642:Middlewares/Third_Party/FreeRTOS/Source/portable/Common/mpu_wrappers.c **** BaseType_t xRunningPrivileged = xPortRaisePrivilege();
 1315              		.loc 1 642 1 view .LVU308
 1316              		.loc 1 642 33 is_stmt 0 view .LVU309
 1317 02de FFF7FEFF 		bl	xPortRaisePrivilege
 1318              	.LVL168:
 1319              		.loc 1 642 33 view .LVU310
 1320 02e2 0546     		mov	r5, r0
 1321              	.LVL169:
 643:Middlewares/Third_Party/FreeRTOS/Source/portable/Common/mpu_wrappers.c **** 
 644:Middlewares/Third_Party/FreeRTOS/Source/portable/Common/mpu_wrappers.c **** 	xReturn = xQueueGenericSend( xQueue, pvItemToQueue, xTicksToWait, xCopyPosition );
 1322              		.loc 1 644 2 is_stmt 1 view .LVU311
 1323              		.loc 1 644 12 is_stmt 0 view .LVU312
 1324 02e4 4346     		mov	r3, r8
 1325 02e6 3A46     		mov	r2, r7
 1326 02e8 3146     		mov	r1, r6
 1327 02ea 2046     		mov	r0, r4
 1328              	.LVL170:
 1329              		.loc 1 644 12 view .LVU313
ARM GAS  /tmp/ccpAxJaT.s 			page 36


 1330 02ec FFF7FEFF 		bl	xQueueGenericSend
 1331              	.LVL171:
 1332 02f0 0446     		mov	r4, r0
 1333              	.LVL172:
 645:Middlewares/Third_Party/FreeRTOS/Source/portable/Common/mpu_wrappers.c **** 	vPortResetPrivilege( xRunningPrivileged );
 1334              		.loc 1 645 2 is_stmt 1 view .LVU314
 1335 02f2 2846     		mov	r0, r5
 1336              	.LVL173:
 1337              		.loc 1 645 2 is_stmt 0 view .LVU315
 1338 02f4 FFF7FEFF 		bl	vPortResetPrivilege
 1339              	.LVL174:
 646:Middlewares/Third_Party/FreeRTOS/Source/portable/Common/mpu_wrappers.c **** 	return xReturn;
 1340              		.loc 1 646 2 is_stmt 1 view .LVU316
 647:Middlewares/Third_Party/FreeRTOS/Source/portable/Common/mpu_wrappers.c **** }
 1341              		.loc 1 647 1 is_stmt 0 view .LVU317
 1342 02f8 2046     		mov	r0, r4
 1343 02fa BDE8F081 		pop	{r4, r5, r6, r7, r8, pc}
 1344              		.loc 1 647 1 view .LVU318
 1345              		.cfi_endproc
 1346              	.LFE33:
 1348              		.align	1
 1349              		.global	MPU_xQueueReceive
 1350              		.syntax unified
 1351              		.thumb
 1352              		.thumb_func
 1354              	MPU_xQueueReceive:
 1355              	.LVL175:
 1356              	.LFB36:
 648:Middlewares/Third_Party/FreeRTOS/Source/portable/Common/mpu_wrappers.c **** /*-----------------------------------------------------------*/
 649:Middlewares/Third_Party/FreeRTOS/Source/portable/Common/mpu_wrappers.c **** 
 650:Middlewares/Third_Party/FreeRTOS/Source/portable/Common/mpu_wrappers.c **** UBaseType_t MPU_uxQueueMessagesWaiting( const QueueHandle_t pxQueue ) /* FREERTOS_SYSTEM_CALL */
 651:Middlewares/Third_Party/FreeRTOS/Source/portable/Common/mpu_wrappers.c **** {
 652:Middlewares/Third_Party/FreeRTOS/Source/portable/Common/mpu_wrappers.c **** BaseType_t xRunningPrivileged = xPortRaisePrivilege();
 653:Middlewares/Third_Party/FreeRTOS/Source/portable/Common/mpu_wrappers.c **** UBaseType_t uxReturn;
 654:Middlewares/Third_Party/FreeRTOS/Source/portable/Common/mpu_wrappers.c **** 
 655:Middlewares/Third_Party/FreeRTOS/Source/portable/Common/mpu_wrappers.c **** 	uxReturn = uxQueueMessagesWaiting( pxQueue );
 656:Middlewares/Third_Party/FreeRTOS/Source/portable/Common/mpu_wrappers.c **** 	vPortResetPrivilege( xRunningPrivileged );
 657:Middlewares/Third_Party/FreeRTOS/Source/portable/Common/mpu_wrappers.c **** 	return uxReturn;
 658:Middlewares/Third_Party/FreeRTOS/Source/portable/Common/mpu_wrappers.c **** }
 659:Middlewares/Third_Party/FreeRTOS/Source/portable/Common/mpu_wrappers.c **** /*-----------------------------------------------------------*/
 660:Middlewares/Third_Party/FreeRTOS/Source/portable/Common/mpu_wrappers.c **** 
 661:Middlewares/Third_Party/FreeRTOS/Source/portable/Common/mpu_wrappers.c **** UBaseType_t MPU_uxQueueSpacesAvailable( const QueueHandle_t xQueue ) /* FREERTOS_SYSTEM_CALL */
 662:Middlewares/Third_Party/FreeRTOS/Source/portable/Common/mpu_wrappers.c **** {
 663:Middlewares/Third_Party/FreeRTOS/Source/portable/Common/mpu_wrappers.c **** BaseType_t xRunningPrivileged = xPortRaisePrivilege();
 664:Middlewares/Third_Party/FreeRTOS/Source/portable/Common/mpu_wrappers.c **** UBaseType_t uxReturn;
 665:Middlewares/Third_Party/FreeRTOS/Source/portable/Common/mpu_wrappers.c **** 
 666:Middlewares/Third_Party/FreeRTOS/Source/portable/Common/mpu_wrappers.c **** 	uxReturn = uxQueueSpacesAvailable( xQueue );
 667:Middlewares/Third_Party/FreeRTOS/Source/portable/Common/mpu_wrappers.c **** 	vPortResetPrivilege( xRunningPrivileged );
 668:Middlewares/Third_Party/FreeRTOS/Source/portable/Common/mpu_wrappers.c **** 	return uxReturn;
 669:Middlewares/Third_Party/FreeRTOS/Source/portable/Common/mpu_wrappers.c **** }
 670:Middlewares/Third_Party/FreeRTOS/Source/portable/Common/mpu_wrappers.c **** /*-----------------------------------------------------------*/
 671:Middlewares/Third_Party/FreeRTOS/Source/portable/Common/mpu_wrappers.c **** 
 672:Middlewares/Third_Party/FreeRTOS/Source/portable/Common/mpu_wrappers.c **** BaseType_t MPU_xQueueReceive( QueueHandle_t pxQueue, void * const pvBuffer, TickType_t xTicksToWait
 673:Middlewares/Third_Party/FreeRTOS/Source/portable/Common/mpu_wrappers.c **** {
 1357              		.loc 1 673 1 is_stmt 1 view -0
 1358              		.cfi_startproc
 1359              		@ args = 0, pretend = 0, frame = 0
ARM GAS  /tmp/ccpAxJaT.s 			page 37


 1360              		@ frame_needed = 0, uses_anonymous_args = 0
 1361              		.loc 1 673 1 is_stmt 0 view .LVU320
 1362 02fe F8B5     		push	{r3, r4, r5, r6, r7, lr}
 1363              		.cfi_def_cfa_offset 24
 1364              		.cfi_offset 3, -24
 1365              		.cfi_offset 4, -20
 1366              		.cfi_offset 5, -16
 1367              		.cfi_offset 6, -12
 1368              		.cfi_offset 7, -8
 1369              		.cfi_offset 14, -4
 1370 0300 0446     		mov	r4, r0
 1371 0302 0E46     		mov	r6, r1
 1372 0304 1746     		mov	r7, r2
 674:Middlewares/Third_Party/FreeRTOS/Source/portable/Common/mpu_wrappers.c **** BaseType_t xRunningPrivileged = xPortRaisePrivilege();
 1373              		.loc 1 674 1 is_stmt 1 view .LVU321
 1374              		.loc 1 674 33 is_stmt 0 view .LVU322
 1375 0306 FFF7FEFF 		bl	xPortRaisePrivilege
 1376              	.LVL176:
 1377              		.loc 1 674 33 view .LVU323
 1378 030a 0546     		mov	r5, r0
 1379              	.LVL177:
 675:Middlewares/Third_Party/FreeRTOS/Source/portable/Common/mpu_wrappers.c **** BaseType_t xReturn;
 1380              		.loc 1 675 1 is_stmt 1 view .LVU324
 676:Middlewares/Third_Party/FreeRTOS/Source/portable/Common/mpu_wrappers.c **** 
 677:Middlewares/Third_Party/FreeRTOS/Source/portable/Common/mpu_wrappers.c **** 	xReturn = xQueueReceive( pxQueue, pvBuffer, xTicksToWait );
 1381              		.loc 1 677 2 view .LVU325
 1382              		.loc 1 677 12 is_stmt 0 view .LVU326
 1383 030c 3A46     		mov	r2, r7
 1384 030e 3146     		mov	r1, r6
 1385 0310 2046     		mov	r0, r4
 1386              	.LVL178:
 1387              		.loc 1 677 12 view .LVU327
 1388 0312 FFF7FEFF 		bl	xQueueReceive
 1389              	.LVL179:
 1390 0316 0446     		mov	r4, r0
 1391              	.LVL180:
 678:Middlewares/Third_Party/FreeRTOS/Source/portable/Common/mpu_wrappers.c **** 	vPortResetPrivilege( xRunningPrivileged );
 1392              		.loc 1 678 2 is_stmt 1 view .LVU328
 1393 0318 2846     		mov	r0, r5
 1394              	.LVL181:
 1395              		.loc 1 678 2 is_stmt 0 view .LVU329
 1396 031a FFF7FEFF 		bl	vPortResetPrivilege
 1397              	.LVL182:
 679:Middlewares/Third_Party/FreeRTOS/Source/portable/Common/mpu_wrappers.c **** 	return xReturn;
 1398              		.loc 1 679 2 is_stmt 1 view .LVU330
 680:Middlewares/Third_Party/FreeRTOS/Source/portable/Common/mpu_wrappers.c **** }
 1399              		.loc 1 680 1 is_stmt 0 view .LVU331
 1400 031e 2046     		mov	r0, r4
 1401 0320 F8BD     		pop	{r3, r4, r5, r6, r7, pc}
 1402              		.loc 1 680 1 view .LVU332
 1403              		.cfi_endproc
 1404              	.LFE36:
 1406              		.align	1
 1407              		.global	MPU_xQueuePeek
 1408              		.syntax unified
 1409              		.thumb
 1410              		.thumb_func
ARM GAS  /tmp/ccpAxJaT.s 			page 38


 1412              	MPU_xQueuePeek:
 1413              	.LVL183:
 1414              	.LFB37:
 681:Middlewares/Third_Party/FreeRTOS/Source/portable/Common/mpu_wrappers.c **** /*-----------------------------------------------------------*/
 682:Middlewares/Third_Party/FreeRTOS/Source/portable/Common/mpu_wrappers.c **** 
 683:Middlewares/Third_Party/FreeRTOS/Source/portable/Common/mpu_wrappers.c **** BaseType_t MPU_xQueuePeek( QueueHandle_t xQueue, void * const pvBuffer, TickType_t xTicksToWait ) /
 684:Middlewares/Third_Party/FreeRTOS/Source/portable/Common/mpu_wrappers.c **** {
 1415              		.loc 1 684 1 is_stmt 1 view -0
 1416              		.cfi_startproc
 1417              		@ args = 0, pretend = 0, frame = 0
 1418              		@ frame_needed = 0, uses_anonymous_args = 0
 1419              		.loc 1 684 1 is_stmt 0 view .LVU334
 1420 0322 F8B5     		push	{r3, r4, r5, r6, r7, lr}
 1421              		.cfi_def_cfa_offset 24
 1422              		.cfi_offset 3, -24
 1423              		.cfi_offset 4, -20
 1424              		.cfi_offset 5, -16
 1425              		.cfi_offset 6, -12
 1426              		.cfi_offset 7, -8
 1427              		.cfi_offset 14, -4
 1428 0324 0446     		mov	r4, r0
 1429 0326 0E46     		mov	r6, r1
 1430 0328 1746     		mov	r7, r2
 685:Middlewares/Third_Party/FreeRTOS/Source/portable/Common/mpu_wrappers.c **** BaseType_t xRunningPrivileged = xPortRaisePrivilege();
 1431              		.loc 1 685 1 is_stmt 1 view .LVU335
 1432              		.loc 1 685 33 is_stmt 0 view .LVU336
 1433 032a FFF7FEFF 		bl	xPortRaisePrivilege
 1434              	.LVL184:
 1435              		.loc 1 685 33 view .LVU337
 1436 032e 0546     		mov	r5, r0
 1437              	.LVL185:
 686:Middlewares/Third_Party/FreeRTOS/Source/portable/Common/mpu_wrappers.c **** BaseType_t xReturn;
 1438              		.loc 1 686 1 is_stmt 1 view .LVU338
 687:Middlewares/Third_Party/FreeRTOS/Source/portable/Common/mpu_wrappers.c **** 
 688:Middlewares/Third_Party/FreeRTOS/Source/portable/Common/mpu_wrappers.c **** 	xReturn = xQueuePeek( xQueue, pvBuffer, xTicksToWait );
 1439              		.loc 1 688 2 view .LVU339
 1440              		.loc 1 688 12 is_stmt 0 view .LVU340
 1441 0330 3A46     		mov	r2, r7
 1442 0332 3146     		mov	r1, r6
 1443 0334 2046     		mov	r0, r4
 1444              	.LVL186:
 1445              		.loc 1 688 12 view .LVU341
 1446 0336 FFF7FEFF 		bl	xQueuePeek
 1447              	.LVL187:
 1448 033a 0446     		mov	r4, r0
 1449              	.LVL188:
 689:Middlewares/Third_Party/FreeRTOS/Source/portable/Common/mpu_wrappers.c **** 	vPortResetPrivilege( xRunningPrivileged );
 1450              		.loc 1 689 2 is_stmt 1 view .LVU342
 1451 033c 2846     		mov	r0, r5
 1452              	.LVL189:
 1453              		.loc 1 689 2 is_stmt 0 view .LVU343
 1454 033e FFF7FEFF 		bl	vPortResetPrivilege
 1455              	.LVL190:
 690:Middlewares/Third_Party/FreeRTOS/Source/portable/Common/mpu_wrappers.c **** 	return xReturn;
 1456              		.loc 1 690 2 is_stmt 1 view .LVU344
 691:Middlewares/Third_Party/FreeRTOS/Source/portable/Common/mpu_wrappers.c **** }
 1457              		.loc 1 691 1 is_stmt 0 view .LVU345
ARM GAS  /tmp/ccpAxJaT.s 			page 39


 1458 0342 2046     		mov	r0, r4
 1459 0344 F8BD     		pop	{r3, r4, r5, r6, r7, pc}
 1460              		.loc 1 691 1 view .LVU346
 1461              		.cfi_endproc
 1462              	.LFE37:
 1464              		.align	1
 1465              		.global	MPU_xQueueSemaphoreTake
 1466              		.syntax unified
 1467              		.thumb
 1468              		.thumb_func
 1470              	MPU_xQueueSemaphoreTake:
 1471              	.LVL191:
 1472              	.LFB38:
 692:Middlewares/Third_Party/FreeRTOS/Source/portable/Common/mpu_wrappers.c **** /*-----------------------------------------------------------*/
 693:Middlewares/Third_Party/FreeRTOS/Source/portable/Common/mpu_wrappers.c **** 
 694:Middlewares/Third_Party/FreeRTOS/Source/portable/Common/mpu_wrappers.c **** BaseType_t MPU_xQueueSemaphoreTake( QueueHandle_t xQueue, TickType_t xTicksToWait ) /* FREERTOS_SYS
 695:Middlewares/Third_Party/FreeRTOS/Source/portable/Common/mpu_wrappers.c **** {
 1473              		.loc 1 695 1 is_stmt 1 view -0
 1474              		.cfi_startproc
 1475              		@ args = 0, pretend = 0, frame = 0
 1476              		@ frame_needed = 0, uses_anonymous_args = 0
 1477              		.loc 1 695 1 is_stmt 0 view .LVU348
 1478 0346 70B5     		push	{r4, r5, r6, lr}
 1479              		.cfi_def_cfa_offset 16
 1480              		.cfi_offset 4, -16
 1481              		.cfi_offset 5, -12
 1482              		.cfi_offset 6, -8
 1483              		.cfi_offset 14, -4
 1484 0348 0446     		mov	r4, r0
 1485 034a 0E46     		mov	r6, r1
 696:Middlewares/Third_Party/FreeRTOS/Source/portable/Common/mpu_wrappers.c **** BaseType_t xRunningPrivileged = xPortRaisePrivilege();
 1486              		.loc 1 696 1 is_stmt 1 view .LVU349
 1487              		.loc 1 696 33 is_stmt 0 view .LVU350
 1488 034c FFF7FEFF 		bl	xPortRaisePrivilege
 1489              	.LVL192:
 1490              		.loc 1 696 33 view .LVU351
 1491 0350 0546     		mov	r5, r0
 1492              	.LVL193:
 697:Middlewares/Third_Party/FreeRTOS/Source/portable/Common/mpu_wrappers.c **** BaseType_t xReturn;
 1493              		.loc 1 697 1 is_stmt 1 view .LVU352
 698:Middlewares/Third_Party/FreeRTOS/Source/portable/Common/mpu_wrappers.c **** 
 699:Middlewares/Third_Party/FreeRTOS/Source/portable/Common/mpu_wrappers.c **** 	xReturn = xQueueSemaphoreTake( xQueue, xTicksToWait );
 1494              		.loc 1 699 2 view .LVU353
 1495              		.loc 1 699 12 is_stmt 0 view .LVU354
 1496 0352 3146     		mov	r1, r6
 1497 0354 2046     		mov	r0, r4
 1498              	.LVL194:
 1499              		.loc 1 699 12 view .LVU355
 1500 0356 FFF7FEFF 		bl	xQueueSemaphoreTake
 1501              	.LVL195:
 1502 035a 0446     		mov	r4, r0
 1503              	.LVL196:
 700:Middlewares/Third_Party/FreeRTOS/Source/portable/Common/mpu_wrappers.c **** 	vPortResetPrivilege( xRunningPrivileged );
 1504              		.loc 1 700 2 is_stmt 1 view .LVU356
 1505 035c 2846     		mov	r0, r5
 1506              	.LVL197:
 1507              		.loc 1 700 2 is_stmt 0 view .LVU357
ARM GAS  /tmp/ccpAxJaT.s 			page 40


 1508 035e FFF7FEFF 		bl	vPortResetPrivilege
 1509              	.LVL198:
 701:Middlewares/Third_Party/FreeRTOS/Source/portable/Common/mpu_wrappers.c **** 	return xReturn;
 1510              		.loc 1 701 2 is_stmt 1 view .LVU358
 702:Middlewares/Third_Party/FreeRTOS/Source/portable/Common/mpu_wrappers.c **** }
 1511              		.loc 1 702 1 is_stmt 0 view .LVU359
 1512 0362 2046     		mov	r0, r4
 1513 0364 70BD     		pop	{r4, r5, r6, pc}
 1514              		.loc 1 702 1 view .LVU360
 1515              		.cfi_endproc
 1516              	.LFE38:
 1518              		.align	1
 1519              		.global	MPU_uxQueueMessagesWaiting
 1520              		.syntax unified
 1521              		.thumb
 1522              		.thumb_func
 1524              	MPU_uxQueueMessagesWaiting:
 1525              	.LVL199:
 1526              	.LFB34:
 651:Middlewares/Third_Party/FreeRTOS/Source/portable/Common/mpu_wrappers.c **** BaseType_t xRunningPrivileged = xPortRaisePrivilege();
 1527              		.loc 1 651 1 is_stmt 1 view -0
 1528              		.cfi_startproc
 1529              		@ args = 0, pretend = 0, frame = 0
 1530              		@ frame_needed = 0, uses_anonymous_args = 0
 651:Middlewares/Third_Party/FreeRTOS/Source/portable/Common/mpu_wrappers.c **** BaseType_t xRunningPrivileged = xPortRaisePrivilege();
 1531              		.loc 1 651 1 is_stmt 0 view .LVU362
 1532 0366 38B5     		push	{r3, r4, r5, lr}
 1533              		.cfi_def_cfa_offset 16
 1534              		.cfi_offset 3, -16
 1535              		.cfi_offset 4, -12
 1536              		.cfi_offset 5, -8
 1537              		.cfi_offset 14, -4
 1538 0368 0446     		mov	r4, r0
 652:Middlewares/Third_Party/FreeRTOS/Source/portable/Common/mpu_wrappers.c **** UBaseType_t uxReturn;
 1539              		.loc 1 652 1 is_stmt 1 view .LVU363
 652:Middlewares/Third_Party/FreeRTOS/Source/portable/Common/mpu_wrappers.c **** UBaseType_t uxReturn;
 1540              		.loc 1 652 33 is_stmt 0 view .LVU364
 1541 036a FFF7FEFF 		bl	xPortRaisePrivilege
 1542              	.LVL200:
 652:Middlewares/Third_Party/FreeRTOS/Source/portable/Common/mpu_wrappers.c **** UBaseType_t uxReturn;
 1543              		.loc 1 652 33 view .LVU365
 1544 036e 0546     		mov	r5, r0
 1545              	.LVL201:
 653:Middlewares/Third_Party/FreeRTOS/Source/portable/Common/mpu_wrappers.c **** 
 1546              		.loc 1 653 1 is_stmt 1 view .LVU366
 655:Middlewares/Third_Party/FreeRTOS/Source/portable/Common/mpu_wrappers.c **** 	vPortResetPrivilege( xRunningPrivileged );
 1547              		.loc 1 655 2 view .LVU367
 655:Middlewares/Third_Party/FreeRTOS/Source/portable/Common/mpu_wrappers.c **** 	vPortResetPrivilege( xRunningPrivileged );
 1548              		.loc 1 655 13 is_stmt 0 view .LVU368
 1549 0370 2046     		mov	r0, r4
 1550              	.LVL202:
 655:Middlewares/Third_Party/FreeRTOS/Source/portable/Common/mpu_wrappers.c **** 	vPortResetPrivilege( xRunningPrivileged );
 1551              		.loc 1 655 13 view .LVU369
 1552 0372 FFF7FEFF 		bl	uxQueueMessagesWaiting
 1553              	.LVL203:
 1554 0376 0446     		mov	r4, r0
 1555              	.LVL204:
ARM GAS  /tmp/ccpAxJaT.s 			page 41


 656:Middlewares/Third_Party/FreeRTOS/Source/portable/Common/mpu_wrappers.c **** 	return uxReturn;
 1556              		.loc 1 656 2 is_stmt 1 view .LVU370
 1557 0378 2846     		mov	r0, r5
 1558              	.LVL205:
 656:Middlewares/Third_Party/FreeRTOS/Source/portable/Common/mpu_wrappers.c **** 	return uxReturn;
 1559              		.loc 1 656 2 is_stmt 0 view .LVU371
 1560 037a FFF7FEFF 		bl	vPortResetPrivilege
 1561              	.LVL206:
 657:Middlewares/Third_Party/FreeRTOS/Source/portable/Common/mpu_wrappers.c **** }
 1562              		.loc 1 657 2 is_stmt 1 view .LVU372
 658:Middlewares/Third_Party/FreeRTOS/Source/portable/Common/mpu_wrappers.c **** /*-----------------------------------------------------------*/
 1563              		.loc 1 658 1 is_stmt 0 view .LVU373
 1564 037e 2046     		mov	r0, r4
 1565 0380 38BD     		pop	{r3, r4, r5, pc}
 658:Middlewares/Third_Party/FreeRTOS/Source/portable/Common/mpu_wrappers.c **** /*-----------------------------------------------------------*/
 1566              		.loc 1 658 1 view .LVU374
 1567              		.cfi_endproc
 1568              	.LFE34:
 1570              		.align	1
 1571              		.global	MPU_uxQueueSpacesAvailable
 1572              		.syntax unified
 1573              		.thumb
 1574              		.thumb_func
 1576              	MPU_uxQueueSpacesAvailable:
 1577              	.LVL207:
 1578              	.LFB35:
 662:Middlewares/Third_Party/FreeRTOS/Source/portable/Common/mpu_wrappers.c **** BaseType_t xRunningPrivileged = xPortRaisePrivilege();
 1579              		.loc 1 662 1 is_stmt 1 view -0
 1580              		.cfi_startproc
 1581              		@ args = 0, pretend = 0, frame = 0
 1582              		@ frame_needed = 0, uses_anonymous_args = 0
 662:Middlewares/Third_Party/FreeRTOS/Source/portable/Common/mpu_wrappers.c **** BaseType_t xRunningPrivileged = xPortRaisePrivilege();
 1583              		.loc 1 662 1 is_stmt 0 view .LVU376
 1584 0382 38B5     		push	{r3, r4, r5, lr}
 1585              		.cfi_def_cfa_offset 16
 1586              		.cfi_offset 3, -16
 1587              		.cfi_offset 4, -12
 1588              		.cfi_offset 5, -8
 1589              		.cfi_offset 14, -4
 1590 0384 0446     		mov	r4, r0
 663:Middlewares/Third_Party/FreeRTOS/Source/portable/Common/mpu_wrappers.c **** UBaseType_t uxReturn;
 1591              		.loc 1 663 1 is_stmt 1 view .LVU377
 663:Middlewares/Third_Party/FreeRTOS/Source/portable/Common/mpu_wrappers.c **** UBaseType_t uxReturn;
 1592              		.loc 1 663 33 is_stmt 0 view .LVU378
 1593 0386 FFF7FEFF 		bl	xPortRaisePrivilege
 1594              	.LVL208:
 663:Middlewares/Third_Party/FreeRTOS/Source/portable/Common/mpu_wrappers.c **** UBaseType_t uxReturn;
 1595              		.loc 1 663 33 view .LVU379
 1596 038a 0546     		mov	r5, r0
 1597              	.LVL209:
 664:Middlewares/Third_Party/FreeRTOS/Source/portable/Common/mpu_wrappers.c **** 
 1598              		.loc 1 664 1 is_stmt 1 view .LVU380
 666:Middlewares/Third_Party/FreeRTOS/Source/portable/Common/mpu_wrappers.c **** 	vPortResetPrivilege( xRunningPrivileged );
 1599              		.loc 1 666 2 view .LVU381
 666:Middlewares/Third_Party/FreeRTOS/Source/portable/Common/mpu_wrappers.c **** 	vPortResetPrivilege( xRunningPrivileged );
 1600              		.loc 1 666 13 is_stmt 0 view .LVU382
 1601 038c 2046     		mov	r0, r4
ARM GAS  /tmp/ccpAxJaT.s 			page 42


 1602              	.LVL210:
 666:Middlewares/Third_Party/FreeRTOS/Source/portable/Common/mpu_wrappers.c **** 	vPortResetPrivilege( xRunningPrivileged );
 1603              		.loc 1 666 13 view .LVU383
 1604 038e FFF7FEFF 		bl	uxQueueSpacesAvailable
 1605              	.LVL211:
 1606 0392 0446     		mov	r4, r0
 1607              	.LVL212:
 667:Middlewares/Third_Party/FreeRTOS/Source/portable/Common/mpu_wrappers.c **** 	return uxReturn;
 1608              		.loc 1 667 2 is_stmt 1 view .LVU384
 1609 0394 2846     		mov	r0, r5
 1610              	.LVL213:
 667:Middlewares/Third_Party/FreeRTOS/Source/portable/Common/mpu_wrappers.c **** 	return uxReturn;
 1611              		.loc 1 667 2 is_stmt 0 view .LVU385
 1612 0396 FFF7FEFF 		bl	vPortResetPrivilege
 1613              	.LVL214:
 668:Middlewares/Third_Party/FreeRTOS/Source/portable/Common/mpu_wrappers.c **** }
 1614              		.loc 1 668 2 is_stmt 1 view .LVU386
 669:Middlewares/Third_Party/FreeRTOS/Source/portable/Common/mpu_wrappers.c **** /*-----------------------------------------------------------*/
 1615              		.loc 1 669 1 is_stmt 0 view .LVU387
 1616 039a 2046     		mov	r0, r4
 1617 039c 38BD     		pop	{r3, r4, r5, pc}
 669:Middlewares/Third_Party/FreeRTOS/Source/portable/Common/mpu_wrappers.c **** /*-----------------------------------------------------------*/
 1618              		.loc 1 669 1 view .LVU388
 1619              		.cfi_endproc
 1620              	.LFE35:
 1622              		.align	1
 1623              		.global	MPU_vQueueDelete
 1624              		.syntax unified
 1625              		.thumb
 1626              		.thumb_func
 1628              	MPU_vQueueDelete:
 1629              	.LVL215:
 1630              	.LFB43:
 703:Middlewares/Third_Party/FreeRTOS/Source/portable/Common/mpu_wrappers.c **** /*-----------------------------------------------------------*/
 704:Middlewares/Third_Party/FreeRTOS/Source/portable/Common/mpu_wrappers.c **** 
 705:Middlewares/Third_Party/FreeRTOS/Source/portable/Common/mpu_wrappers.c **** #if ( ( configUSE_MUTEXES == 1 ) && ( INCLUDE_xSemaphoreGetMutexHolder == 1 ) )
 706:Middlewares/Third_Party/FreeRTOS/Source/portable/Common/mpu_wrappers.c **** 	TaskHandle_t MPU_xQueueGetMutexHolder( QueueHandle_t xSemaphore ) /* FREERTOS_SYSTEM_CALL */
 707:Middlewares/Third_Party/FreeRTOS/Source/portable/Common/mpu_wrappers.c **** 	{
 708:Middlewares/Third_Party/FreeRTOS/Source/portable/Common/mpu_wrappers.c **** 	BaseType_t xRunningPrivileged = xPortRaisePrivilege();
 709:Middlewares/Third_Party/FreeRTOS/Source/portable/Common/mpu_wrappers.c **** 	void * xReturn;
 710:Middlewares/Third_Party/FreeRTOS/Source/portable/Common/mpu_wrappers.c **** 
 711:Middlewares/Third_Party/FreeRTOS/Source/portable/Common/mpu_wrappers.c **** 		xReturn = xQueueGetMutexHolder( xSemaphore );
 712:Middlewares/Third_Party/FreeRTOS/Source/portable/Common/mpu_wrappers.c **** 		vPortResetPrivilege( xRunningPrivileged );
 713:Middlewares/Third_Party/FreeRTOS/Source/portable/Common/mpu_wrappers.c **** 		return xReturn;
 714:Middlewares/Third_Party/FreeRTOS/Source/portable/Common/mpu_wrappers.c **** 	}
 715:Middlewares/Third_Party/FreeRTOS/Source/portable/Common/mpu_wrappers.c **** #endif
 716:Middlewares/Third_Party/FreeRTOS/Source/portable/Common/mpu_wrappers.c **** /*-----------------------------------------------------------*/
 717:Middlewares/Third_Party/FreeRTOS/Source/portable/Common/mpu_wrappers.c **** 
 718:Middlewares/Third_Party/FreeRTOS/Source/portable/Common/mpu_wrappers.c **** #if( ( configUSE_MUTEXES == 1 ) && ( configSUPPORT_DYNAMIC_ALLOCATION == 1 ) )
 719:Middlewares/Third_Party/FreeRTOS/Source/portable/Common/mpu_wrappers.c **** 	QueueHandle_t MPU_xQueueCreateMutex( const uint8_t ucQueueType ) /* FREERTOS_SYSTEM_CALL */
 720:Middlewares/Third_Party/FreeRTOS/Source/portable/Common/mpu_wrappers.c **** 	{
 721:Middlewares/Third_Party/FreeRTOS/Source/portable/Common/mpu_wrappers.c **** 	QueueHandle_t xReturn;
 722:Middlewares/Third_Party/FreeRTOS/Source/portable/Common/mpu_wrappers.c **** 	BaseType_t xRunningPrivileged = xPortRaisePrivilege();
 723:Middlewares/Third_Party/FreeRTOS/Source/portable/Common/mpu_wrappers.c **** 
 724:Middlewares/Third_Party/FreeRTOS/Source/portable/Common/mpu_wrappers.c **** 		xReturn = xQueueCreateMutex( ucQueueType );
 725:Middlewares/Third_Party/FreeRTOS/Source/portable/Common/mpu_wrappers.c **** 		vPortResetPrivilege( xRunningPrivileged );
 726:Middlewares/Third_Party/FreeRTOS/Source/portable/Common/mpu_wrappers.c **** 		return xReturn;
ARM GAS  /tmp/ccpAxJaT.s 			page 43


 727:Middlewares/Third_Party/FreeRTOS/Source/portable/Common/mpu_wrappers.c **** 	}
 728:Middlewares/Third_Party/FreeRTOS/Source/portable/Common/mpu_wrappers.c **** #endif
 729:Middlewares/Third_Party/FreeRTOS/Source/portable/Common/mpu_wrappers.c **** /*-----------------------------------------------------------*/
 730:Middlewares/Third_Party/FreeRTOS/Source/portable/Common/mpu_wrappers.c **** 
 731:Middlewares/Third_Party/FreeRTOS/Source/portable/Common/mpu_wrappers.c **** #if( ( configUSE_MUTEXES == 1 ) && ( configSUPPORT_STATIC_ALLOCATION == 1 ) )
 732:Middlewares/Third_Party/FreeRTOS/Source/portable/Common/mpu_wrappers.c **** 	QueueHandle_t MPU_xQueueCreateMutexStatic( const uint8_t ucQueueType, StaticQueue_t *pxStaticQueue
 733:Middlewares/Third_Party/FreeRTOS/Source/portable/Common/mpu_wrappers.c **** 	{
 734:Middlewares/Third_Party/FreeRTOS/Source/portable/Common/mpu_wrappers.c **** 	QueueHandle_t xReturn;
 735:Middlewares/Third_Party/FreeRTOS/Source/portable/Common/mpu_wrappers.c **** 	BaseType_t xRunningPrivileged = xPortRaisePrivilege();
 736:Middlewares/Third_Party/FreeRTOS/Source/portable/Common/mpu_wrappers.c **** 
 737:Middlewares/Third_Party/FreeRTOS/Source/portable/Common/mpu_wrappers.c **** 		xReturn = xQueueCreateMutexStatic( ucQueueType, pxStaticQueue );
 738:Middlewares/Third_Party/FreeRTOS/Source/portable/Common/mpu_wrappers.c **** 		vPortResetPrivilege( xRunningPrivileged );
 739:Middlewares/Third_Party/FreeRTOS/Source/portable/Common/mpu_wrappers.c **** 		return xReturn;
 740:Middlewares/Third_Party/FreeRTOS/Source/portable/Common/mpu_wrappers.c **** 	}
 741:Middlewares/Third_Party/FreeRTOS/Source/portable/Common/mpu_wrappers.c **** #endif
 742:Middlewares/Third_Party/FreeRTOS/Source/portable/Common/mpu_wrappers.c **** /*-----------------------------------------------------------*/
 743:Middlewares/Third_Party/FreeRTOS/Source/portable/Common/mpu_wrappers.c **** 
 744:Middlewares/Third_Party/FreeRTOS/Source/portable/Common/mpu_wrappers.c **** #if( ( configUSE_COUNTING_SEMAPHORES == 1 ) && ( configSUPPORT_DYNAMIC_ALLOCATION == 1 ) )
 745:Middlewares/Third_Party/FreeRTOS/Source/portable/Common/mpu_wrappers.c **** 	QueueHandle_t MPU_xQueueCreateCountingSemaphore( UBaseType_t uxCountValue, UBaseType_t uxInitialCo
 746:Middlewares/Third_Party/FreeRTOS/Source/portable/Common/mpu_wrappers.c **** 	{
 747:Middlewares/Third_Party/FreeRTOS/Source/portable/Common/mpu_wrappers.c **** 	QueueHandle_t xReturn;
 748:Middlewares/Third_Party/FreeRTOS/Source/portable/Common/mpu_wrappers.c **** 	BaseType_t xRunningPrivileged = xPortRaisePrivilege();
 749:Middlewares/Third_Party/FreeRTOS/Source/portable/Common/mpu_wrappers.c **** 
 750:Middlewares/Third_Party/FreeRTOS/Source/portable/Common/mpu_wrappers.c **** 		xReturn = xQueueCreateCountingSemaphore( uxCountValue, uxInitialCount );
 751:Middlewares/Third_Party/FreeRTOS/Source/portable/Common/mpu_wrappers.c **** 		vPortResetPrivilege( xRunningPrivileged );
 752:Middlewares/Third_Party/FreeRTOS/Source/portable/Common/mpu_wrappers.c **** 		return xReturn;
 753:Middlewares/Third_Party/FreeRTOS/Source/portable/Common/mpu_wrappers.c **** 	}
 754:Middlewares/Third_Party/FreeRTOS/Source/portable/Common/mpu_wrappers.c **** #endif
 755:Middlewares/Third_Party/FreeRTOS/Source/portable/Common/mpu_wrappers.c **** /*-----------------------------------------------------------*/
 756:Middlewares/Third_Party/FreeRTOS/Source/portable/Common/mpu_wrappers.c **** 
 757:Middlewares/Third_Party/FreeRTOS/Source/portable/Common/mpu_wrappers.c **** #if( ( configUSE_COUNTING_SEMAPHORES == 1 ) && ( configSUPPORT_STATIC_ALLOCATION == 1 ) )
 758:Middlewares/Third_Party/FreeRTOS/Source/portable/Common/mpu_wrappers.c **** 
 759:Middlewares/Third_Party/FreeRTOS/Source/portable/Common/mpu_wrappers.c **** 	QueueHandle_t MPU_xQueueCreateCountingSemaphoreStatic( const UBaseType_t uxMaxCount, const UBaseTy
 760:Middlewares/Third_Party/FreeRTOS/Source/portable/Common/mpu_wrappers.c **** 	{
 761:Middlewares/Third_Party/FreeRTOS/Source/portable/Common/mpu_wrappers.c **** 	QueueHandle_t xReturn;
 762:Middlewares/Third_Party/FreeRTOS/Source/portable/Common/mpu_wrappers.c **** 	BaseType_t xRunningPrivileged = xPortRaisePrivilege();
 763:Middlewares/Third_Party/FreeRTOS/Source/portable/Common/mpu_wrappers.c **** 
 764:Middlewares/Third_Party/FreeRTOS/Source/portable/Common/mpu_wrappers.c **** 		xReturn = xQueueCreateCountingSemaphoreStatic( uxMaxCount, uxInitialCount, pxStaticQueue );
 765:Middlewares/Third_Party/FreeRTOS/Source/portable/Common/mpu_wrappers.c **** 		vPortResetPrivilege( xRunningPrivileged );
 766:Middlewares/Third_Party/FreeRTOS/Source/portable/Common/mpu_wrappers.c **** 		return xReturn;
 767:Middlewares/Third_Party/FreeRTOS/Source/portable/Common/mpu_wrappers.c **** 	}
 768:Middlewares/Third_Party/FreeRTOS/Source/portable/Common/mpu_wrappers.c **** #endif
 769:Middlewares/Third_Party/FreeRTOS/Source/portable/Common/mpu_wrappers.c **** /*-----------------------------------------------------------*/
 770:Middlewares/Third_Party/FreeRTOS/Source/portable/Common/mpu_wrappers.c **** 
 771:Middlewares/Third_Party/FreeRTOS/Source/portable/Common/mpu_wrappers.c **** #if ( configUSE_RECURSIVE_MUTEXES == 1 )
 772:Middlewares/Third_Party/FreeRTOS/Source/portable/Common/mpu_wrappers.c **** 	BaseType_t MPU_xQueueTakeMutexRecursive( QueueHandle_t xMutex, TickType_t xBlockTime ) /* FREERTOS
 773:Middlewares/Third_Party/FreeRTOS/Source/portable/Common/mpu_wrappers.c **** 	{
 774:Middlewares/Third_Party/FreeRTOS/Source/portable/Common/mpu_wrappers.c **** 	BaseType_t xReturn;
 775:Middlewares/Third_Party/FreeRTOS/Source/portable/Common/mpu_wrappers.c **** 	BaseType_t xRunningPrivileged = xPortRaisePrivilege();
 776:Middlewares/Third_Party/FreeRTOS/Source/portable/Common/mpu_wrappers.c **** 
 777:Middlewares/Third_Party/FreeRTOS/Source/portable/Common/mpu_wrappers.c **** 		xReturn = xQueueTakeMutexRecursive( xMutex, xBlockTime );
 778:Middlewares/Third_Party/FreeRTOS/Source/portable/Common/mpu_wrappers.c **** 		vPortResetPrivilege( xRunningPrivileged );
 779:Middlewares/Third_Party/FreeRTOS/Source/portable/Common/mpu_wrappers.c **** 		return xReturn;
 780:Middlewares/Third_Party/FreeRTOS/Source/portable/Common/mpu_wrappers.c **** 	}
 781:Middlewares/Third_Party/FreeRTOS/Source/portable/Common/mpu_wrappers.c **** #endif
 782:Middlewares/Third_Party/FreeRTOS/Source/portable/Common/mpu_wrappers.c **** /*-----------------------------------------------------------*/
 783:Middlewares/Third_Party/FreeRTOS/Source/portable/Common/mpu_wrappers.c **** 
ARM GAS  /tmp/ccpAxJaT.s 			page 44


 784:Middlewares/Third_Party/FreeRTOS/Source/portable/Common/mpu_wrappers.c **** #if ( configUSE_RECURSIVE_MUTEXES == 1 )
 785:Middlewares/Third_Party/FreeRTOS/Source/portable/Common/mpu_wrappers.c **** 	BaseType_t MPU_xQueueGiveMutexRecursive( QueueHandle_t xMutex ) /* FREERTOS_SYSTEM_CALL */
 786:Middlewares/Third_Party/FreeRTOS/Source/portable/Common/mpu_wrappers.c **** 	{
 787:Middlewares/Third_Party/FreeRTOS/Source/portable/Common/mpu_wrappers.c **** 	BaseType_t xReturn;
 788:Middlewares/Third_Party/FreeRTOS/Source/portable/Common/mpu_wrappers.c **** 	BaseType_t xRunningPrivileged = xPortRaisePrivilege();
 789:Middlewares/Third_Party/FreeRTOS/Source/portable/Common/mpu_wrappers.c **** 
 790:Middlewares/Third_Party/FreeRTOS/Source/portable/Common/mpu_wrappers.c **** 		xReturn = xQueueGiveMutexRecursive( xMutex );
 791:Middlewares/Third_Party/FreeRTOS/Source/portable/Common/mpu_wrappers.c **** 		vPortResetPrivilege( xRunningPrivileged );
 792:Middlewares/Third_Party/FreeRTOS/Source/portable/Common/mpu_wrappers.c **** 		return xReturn;
 793:Middlewares/Third_Party/FreeRTOS/Source/portable/Common/mpu_wrappers.c **** 	}
 794:Middlewares/Third_Party/FreeRTOS/Source/portable/Common/mpu_wrappers.c **** #endif
 795:Middlewares/Third_Party/FreeRTOS/Source/portable/Common/mpu_wrappers.c **** /*-----------------------------------------------------------*/
 796:Middlewares/Third_Party/FreeRTOS/Source/portable/Common/mpu_wrappers.c **** 
 797:Middlewares/Third_Party/FreeRTOS/Source/portable/Common/mpu_wrappers.c **** #if( ( configUSE_QUEUE_SETS == 1 ) && ( configSUPPORT_DYNAMIC_ALLOCATION == 1 ) )
 798:Middlewares/Third_Party/FreeRTOS/Source/portable/Common/mpu_wrappers.c **** 	QueueSetHandle_t MPU_xQueueCreateSet( UBaseType_t uxEventQueueLength ) /* FREERTOS_SYSTEM_CALL */
 799:Middlewares/Third_Party/FreeRTOS/Source/portable/Common/mpu_wrappers.c **** 	{
 800:Middlewares/Third_Party/FreeRTOS/Source/portable/Common/mpu_wrappers.c **** 	QueueSetHandle_t xReturn;
 801:Middlewares/Third_Party/FreeRTOS/Source/portable/Common/mpu_wrappers.c **** 	BaseType_t xRunningPrivileged = xPortRaisePrivilege();
 802:Middlewares/Third_Party/FreeRTOS/Source/portable/Common/mpu_wrappers.c **** 
 803:Middlewares/Third_Party/FreeRTOS/Source/portable/Common/mpu_wrappers.c **** 		xReturn = xQueueCreateSet( uxEventQueueLength );
 804:Middlewares/Third_Party/FreeRTOS/Source/portable/Common/mpu_wrappers.c **** 		vPortResetPrivilege( xRunningPrivileged );
 805:Middlewares/Third_Party/FreeRTOS/Source/portable/Common/mpu_wrappers.c **** 		return xReturn;
 806:Middlewares/Third_Party/FreeRTOS/Source/portable/Common/mpu_wrappers.c **** 	}
 807:Middlewares/Third_Party/FreeRTOS/Source/portable/Common/mpu_wrappers.c **** #endif
 808:Middlewares/Third_Party/FreeRTOS/Source/portable/Common/mpu_wrappers.c **** /*-----------------------------------------------------------*/
 809:Middlewares/Third_Party/FreeRTOS/Source/portable/Common/mpu_wrappers.c **** 
 810:Middlewares/Third_Party/FreeRTOS/Source/portable/Common/mpu_wrappers.c **** #if ( configUSE_QUEUE_SETS == 1 )
 811:Middlewares/Third_Party/FreeRTOS/Source/portable/Common/mpu_wrappers.c **** 	QueueSetMemberHandle_t MPU_xQueueSelectFromSet( QueueSetHandle_t xQueueSet, TickType_t xBlockTimeT
 812:Middlewares/Third_Party/FreeRTOS/Source/portable/Common/mpu_wrappers.c **** 	{
 813:Middlewares/Third_Party/FreeRTOS/Source/portable/Common/mpu_wrappers.c **** 	QueueSetMemberHandle_t xReturn;
 814:Middlewares/Third_Party/FreeRTOS/Source/portable/Common/mpu_wrappers.c **** 	BaseType_t xRunningPrivileged = xPortRaisePrivilege();
 815:Middlewares/Third_Party/FreeRTOS/Source/portable/Common/mpu_wrappers.c **** 
 816:Middlewares/Third_Party/FreeRTOS/Source/portable/Common/mpu_wrappers.c **** 		xReturn = xQueueSelectFromSet( xQueueSet, xBlockTimeTicks );
 817:Middlewares/Third_Party/FreeRTOS/Source/portable/Common/mpu_wrappers.c **** 		vPortResetPrivilege( xRunningPrivileged );
 818:Middlewares/Third_Party/FreeRTOS/Source/portable/Common/mpu_wrappers.c **** 		return xReturn;
 819:Middlewares/Third_Party/FreeRTOS/Source/portable/Common/mpu_wrappers.c **** 	}
 820:Middlewares/Third_Party/FreeRTOS/Source/portable/Common/mpu_wrappers.c **** #endif
 821:Middlewares/Third_Party/FreeRTOS/Source/portable/Common/mpu_wrappers.c **** /*-----------------------------------------------------------*/
 822:Middlewares/Third_Party/FreeRTOS/Source/portable/Common/mpu_wrappers.c **** 
 823:Middlewares/Third_Party/FreeRTOS/Source/portable/Common/mpu_wrappers.c **** #if ( configUSE_QUEUE_SETS == 1 )
 824:Middlewares/Third_Party/FreeRTOS/Source/portable/Common/mpu_wrappers.c **** 	BaseType_t MPU_xQueueAddToSet( QueueSetMemberHandle_t xQueueOrSemaphore, QueueSetHandle_t xQueueSe
 825:Middlewares/Third_Party/FreeRTOS/Source/portable/Common/mpu_wrappers.c **** 	{
 826:Middlewares/Third_Party/FreeRTOS/Source/portable/Common/mpu_wrappers.c **** 	BaseType_t xReturn;
 827:Middlewares/Third_Party/FreeRTOS/Source/portable/Common/mpu_wrappers.c **** 	BaseType_t xRunningPrivileged = xPortRaisePrivilege();
 828:Middlewares/Third_Party/FreeRTOS/Source/portable/Common/mpu_wrappers.c **** 
 829:Middlewares/Third_Party/FreeRTOS/Source/portable/Common/mpu_wrappers.c **** 		xReturn = xQueueAddToSet( xQueueOrSemaphore, xQueueSet );
 830:Middlewares/Third_Party/FreeRTOS/Source/portable/Common/mpu_wrappers.c **** 		vPortResetPrivilege( xRunningPrivileged );
 831:Middlewares/Third_Party/FreeRTOS/Source/portable/Common/mpu_wrappers.c **** 		return xReturn;
 832:Middlewares/Third_Party/FreeRTOS/Source/portable/Common/mpu_wrappers.c **** 	}
 833:Middlewares/Third_Party/FreeRTOS/Source/portable/Common/mpu_wrappers.c **** #endif
 834:Middlewares/Third_Party/FreeRTOS/Source/portable/Common/mpu_wrappers.c **** /*-----------------------------------------------------------*/
 835:Middlewares/Third_Party/FreeRTOS/Source/portable/Common/mpu_wrappers.c **** 
 836:Middlewares/Third_Party/FreeRTOS/Source/portable/Common/mpu_wrappers.c **** #if ( configUSE_QUEUE_SETS == 1 )
 837:Middlewares/Third_Party/FreeRTOS/Source/portable/Common/mpu_wrappers.c **** 	BaseType_t MPU_xQueueRemoveFromSet( QueueSetMemberHandle_t xQueueOrSemaphore, QueueSetHandle_t xQu
 838:Middlewares/Third_Party/FreeRTOS/Source/portable/Common/mpu_wrappers.c **** 	{
 839:Middlewares/Third_Party/FreeRTOS/Source/portable/Common/mpu_wrappers.c **** 	BaseType_t xReturn;
 840:Middlewares/Third_Party/FreeRTOS/Source/portable/Common/mpu_wrappers.c **** 	BaseType_t xRunningPrivileged = xPortRaisePrivilege();
ARM GAS  /tmp/ccpAxJaT.s 			page 45


 841:Middlewares/Third_Party/FreeRTOS/Source/portable/Common/mpu_wrappers.c **** 
 842:Middlewares/Third_Party/FreeRTOS/Source/portable/Common/mpu_wrappers.c **** 		xReturn = xQueueRemoveFromSet( xQueueOrSemaphore, xQueueSet );
 843:Middlewares/Third_Party/FreeRTOS/Source/portable/Common/mpu_wrappers.c **** 		vPortResetPrivilege( xRunningPrivileged );
 844:Middlewares/Third_Party/FreeRTOS/Source/portable/Common/mpu_wrappers.c **** 		return xReturn;
 845:Middlewares/Third_Party/FreeRTOS/Source/portable/Common/mpu_wrappers.c **** 	}
 846:Middlewares/Third_Party/FreeRTOS/Source/portable/Common/mpu_wrappers.c **** #endif
 847:Middlewares/Third_Party/FreeRTOS/Source/portable/Common/mpu_wrappers.c **** /*-----------------------------------------------------------*/
 848:Middlewares/Third_Party/FreeRTOS/Source/portable/Common/mpu_wrappers.c **** 
 849:Middlewares/Third_Party/FreeRTOS/Source/portable/Common/mpu_wrappers.c **** #if configQUEUE_REGISTRY_SIZE > 0
 850:Middlewares/Third_Party/FreeRTOS/Source/portable/Common/mpu_wrappers.c **** 	void MPU_vQueueAddToRegistry( QueueHandle_t xQueue, const char *pcName ) /* FREERTOS_SYSTEM_CALL *
 851:Middlewares/Third_Party/FreeRTOS/Source/portable/Common/mpu_wrappers.c **** 	{
 852:Middlewares/Third_Party/FreeRTOS/Source/portable/Common/mpu_wrappers.c **** 	BaseType_t xRunningPrivileged = xPortRaisePrivilege();
 853:Middlewares/Third_Party/FreeRTOS/Source/portable/Common/mpu_wrappers.c **** 
 854:Middlewares/Third_Party/FreeRTOS/Source/portable/Common/mpu_wrappers.c **** 		vQueueAddToRegistry( xQueue, pcName );
 855:Middlewares/Third_Party/FreeRTOS/Source/portable/Common/mpu_wrappers.c **** 
 856:Middlewares/Third_Party/FreeRTOS/Source/portable/Common/mpu_wrappers.c **** 		vPortResetPrivilege( xRunningPrivileged );
 857:Middlewares/Third_Party/FreeRTOS/Source/portable/Common/mpu_wrappers.c **** 	}
 858:Middlewares/Third_Party/FreeRTOS/Source/portable/Common/mpu_wrappers.c **** #endif
 859:Middlewares/Third_Party/FreeRTOS/Source/portable/Common/mpu_wrappers.c **** /*-----------------------------------------------------------*/
 860:Middlewares/Third_Party/FreeRTOS/Source/portable/Common/mpu_wrappers.c **** 
 861:Middlewares/Third_Party/FreeRTOS/Source/portable/Common/mpu_wrappers.c **** #if configQUEUE_REGISTRY_SIZE > 0
 862:Middlewares/Third_Party/FreeRTOS/Source/portable/Common/mpu_wrappers.c **** 	void MPU_vQueueUnregisterQueue( QueueHandle_t xQueue ) /* FREERTOS_SYSTEM_CALL */
 863:Middlewares/Third_Party/FreeRTOS/Source/portable/Common/mpu_wrappers.c **** 	{
 864:Middlewares/Third_Party/FreeRTOS/Source/portable/Common/mpu_wrappers.c **** 	BaseType_t xRunningPrivileged = xPortRaisePrivilege();
 865:Middlewares/Third_Party/FreeRTOS/Source/portable/Common/mpu_wrappers.c **** 
 866:Middlewares/Third_Party/FreeRTOS/Source/portable/Common/mpu_wrappers.c **** 		vQueueUnregisterQueue( xQueue );
 867:Middlewares/Third_Party/FreeRTOS/Source/portable/Common/mpu_wrappers.c **** 
 868:Middlewares/Third_Party/FreeRTOS/Source/portable/Common/mpu_wrappers.c **** 		vPortResetPrivilege( xRunningPrivileged );
 869:Middlewares/Third_Party/FreeRTOS/Source/portable/Common/mpu_wrappers.c **** 	}
 870:Middlewares/Third_Party/FreeRTOS/Source/portable/Common/mpu_wrappers.c **** #endif
 871:Middlewares/Third_Party/FreeRTOS/Source/portable/Common/mpu_wrappers.c **** /*-----------------------------------------------------------*/
 872:Middlewares/Third_Party/FreeRTOS/Source/portable/Common/mpu_wrappers.c **** 
 873:Middlewares/Third_Party/FreeRTOS/Source/portable/Common/mpu_wrappers.c **** #if configQUEUE_REGISTRY_SIZE > 0
 874:Middlewares/Third_Party/FreeRTOS/Source/portable/Common/mpu_wrappers.c **** 	const char *MPU_pcQueueGetName( QueueHandle_t xQueue ) /* FREERTOS_SYSTEM_CALL */
 875:Middlewares/Third_Party/FreeRTOS/Source/portable/Common/mpu_wrappers.c **** 	{
 876:Middlewares/Third_Party/FreeRTOS/Source/portable/Common/mpu_wrappers.c **** 	BaseType_t xRunningPrivileged = xPortRaisePrivilege();
 877:Middlewares/Third_Party/FreeRTOS/Source/portable/Common/mpu_wrappers.c **** 	const char *pcReturn;
 878:Middlewares/Third_Party/FreeRTOS/Source/portable/Common/mpu_wrappers.c **** 
 879:Middlewares/Third_Party/FreeRTOS/Source/portable/Common/mpu_wrappers.c **** 		pcReturn = pcQueueGetName( xQueue );
 880:Middlewares/Third_Party/FreeRTOS/Source/portable/Common/mpu_wrappers.c **** 
 881:Middlewares/Third_Party/FreeRTOS/Source/portable/Common/mpu_wrappers.c **** 		vPortResetPrivilege( xRunningPrivileged );
 882:Middlewares/Third_Party/FreeRTOS/Source/portable/Common/mpu_wrappers.c **** 		return pcReturn;
 883:Middlewares/Third_Party/FreeRTOS/Source/portable/Common/mpu_wrappers.c **** 	}
 884:Middlewares/Third_Party/FreeRTOS/Source/portable/Common/mpu_wrappers.c **** #endif
 885:Middlewares/Third_Party/FreeRTOS/Source/portable/Common/mpu_wrappers.c **** /*-----------------------------------------------------------*/
 886:Middlewares/Third_Party/FreeRTOS/Source/portable/Common/mpu_wrappers.c **** 
 887:Middlewares/Third_Party/FreeRTOS/Source/portable/Common/mpu_wrappers.c **** void MPU_vQueueDelete( QueueHandle_t xQueue ) /* FREERTOS_SYSTEM_CALL */
 888:Middlewares/Third_Party/FreeRTOS/Source/portable/Common/mpu_wrappers.c **** {
 1631              		.loc 1 888 1 is_stmt 1 view -0
 1632              		.cfi_startproc
 1633              		@ args = 0, pretend = 0, frame = 0
 1634              		@ frame_needed = 0, uses_anonymous_args = 0
 1635              		.loc 1 888 1 is_stmt 0 view .LVU390
 1636 039e 38B5     		push	{r3, r4, r5, lr}
 1637              		.cfi_def_cfa_offset 16
 1638              		.cfi_offset 3, -16
 1639              		.cfi_offset 4, -12
ARM GAS  /tmp/ccpAxJaT.s 			page 46


 1640              		.cfi_offset 5, -8
 1641              		.cfi_offset 14, -4
 1642 03a0 0546     		mov	r5, r0
 889:Middlewares/Third_Party/FreeRTOS/Source/portable/Common/mpu_wrappers.c **** BaseType_t xRunningPrivileged = xPortRaisePrivilege();
 1643              		.loc 1 889 1 is_stmt 1 view .LVU391
 1644              		.loc 1 889 33 is_stmt 0 view .LVU392
 1645 03a2 FFF7FEFF 		bl	xPortRaisePrivilege
 1646              	.LVL216:
 1647              		.loc 1 889 33 view .LVU393
 1648 03a6 0446     		mov	r4, r0
 1649              	.LVL217:
 890:Middlewares/Third_Party/FreeRTOS/Source/portable/Common/mpu_wrappers.c **** 
 891:Middlewares/Third_Party/FreeRTOS/Source/portable/Common/mpu_wrappers.c **** 	vQueueDelete( xQueue );
 1650              		.loc 1 891 2 is_stmt 1 view .LVU394
 1651 03a8 2846     		mov	r0, r5
 1652              	.LVL218:
 1653              		.loc 1 891 2 is_stmt 0 view .LVU395
 1654 03aa FFF7FEFF 		bl	vQueueDelete
 1655              	.LVL219:
 892:Middlewares/Third_Party/FreeRTOS/Source/portable/Common/mpu_wrappers.c **** 
 893:Middlewares/Third_Party/FreeRTOS/Source/portable/Common/mpu_wrappers.c **** 	vPortResetPrivilege( xRunningPrivileged );
 1656              		.loc 1 893 2 is_stmt 1 view .LVU396
 1657 03ae 2046     		mov	r0, r4
 1658 03b0 FFF7FEFF 		bl	vPortResetPrivilege
 1659              	.LVL220:
 894:Middlewares/Third_Party/FreeRTOS/Source/portable/Common/mpu_wrappers.c **** }
 1660              		.loc 1 894 1 is_stmt 0 view .LVU397
 1661 03b4 38BD     		pop	{r3, r4, r5, pc}
 1662              		.loc 1 894 1 view .LVU398
 1663              		.cfi_endproc
 1664              	.LFE43:
 1666              		.align	1
 1667              		.global	MPU_xQueueCreateMutexStatic
 1668              		.syntax unified
 1669              		.thumb
 1670              		.thumb_func
 1672              	MPU_xQueueCreateMutexStatic:
 1673              	.LVL221:
 1674              	.LFB39:
 733:Middlewares/Third_Party/FreeRTOS/Source/portable/Common/mpu_wrappers.c **** 	QueueHandle_t xReturn;
 1675              		.loc 1 733 2 is_stmt 1 view -0
 1676              		.cfi_startproc
 1677              		@ args = 0, pretend = 0, frame = 0
 1678              		@ frame_needed = 0, uses_anonymous_args = 0
 733:Middlewares/Third_Party/FreeRTOS/Source/portable/Common/mpu_wrappers.c **** 	QueueHandle_t xReturn;
 1679              		.loc 1 733 2 is_stmt 0 view .LVU400
 1680 03b6 70B5     		push	{r4, r5, r6, lr}
 1681              		.cfi_def_cfa_offset 16
 1682              		.cfi_offset 4, -16
 1683              		.cfi_offset 5, -12
 1684              		.cfi_offset 6, -8
 1685              		.cfi_offset 14, -4
 1686 03b8 0446     		mov	r4, r0
 1687 03ba 0E46     		mov	r6, r1
 734:Middlewares/Third_Party/FreeRTOS/Source/portable/Common/mpu_wrappers.c **** 	BaseType_t xRunningPrivileged = xPortRaisePrivilege();
 1688              		.loc 1 734 2 is_stmt 1 view .LVU401
 735:Middlewares/Third_Party/FreeRTOS/Source/portable/Common/mpu_wrappers.c **** 
ARM GAS  /tmp/ccpAxJaT.s 			page 47


 1689              		.loc 1 735 2 view .LVU402
 735:Middlewares/Third_Party/FreeRTOS/Source/portable/Common/mpu_wrappers.c **** 
 1690              		.loc 1 735 34 is_stmt 0 view .LVU403
 1691 03bc FFF7FEFF 		bl	xPortRaisePrivilege
 1692              	.LVL222:
 735:Middlewares/Third_Party/FreeRTOS/Source/portable/Common/mpu_wrappers.c **** 
 1693              		.loc 1 735 34 view .LVU404
 1694 03c0 0546     		mov	r5, r0
 1695              	.LVL223:
 737:Middlewares/Third_Party/FreeRTOS/Source/portable/Common/mpu_wrappers.c **** 		vPortResetPrivilege( xRunningPrivileged );
 1696              		.loc 1 737 3 is_stmt 1 view .LVU405
 737:Middlewares/Third_Party/FreeRTOS/Source/portable/Common/mpu_wrappers.c **** 		vPortResetPrivilege( xRunningPrivileged );
 1697              		.loc 1 737 13 is_stmt 0 view .LVU406
 1698 03c2 3146     		mov	r1, r6
 1699 03c4 2046     		mov	r0, r4
 1700              	.LVL224:
 737:Middlewares/Third_Party/FreeRTOS/Source/portable/Common/mpu_wrappers.c **** 		vPortResetPrivilege( xRunningPrivileged );
 1701              		.loc 1 737 13 view .LVU407
 1702 03c6 FFF7FEFF 		bl	xQueueCreateMutexStatic
 1703              	.LVL225:
 1704 03ca 0446     		mov	r4, r0
 1705              	.LVL226:
 738:Middlewares/Third_Party/FreeRTOS/Source/portable/Common/mpu_wrappers.c **** 		return xReturn;
 1706              		.loc 1 738 3 is_stmt 1 view .LVU408
 1707 03cc 2846     		mov	r0, r5
 1708              	.LVL227:
 738:Middlewares/Third_Party/FreeRTOS/Source/portable/Common/mpu_wrappers.c **** 		return xReturn;
 1709              		.loc 1 738 3 is_stmt 0 view .LVU409
 1710 03ce FFF7FEFF 		bl	vPortResetPrivilege
 1711              	.LVL228:
 739:Middlewares/Third_Party/FreeRTOS/Source/portable/Common/mpu_wrappers.c **** 	}
 1712              		.loc 1 739 3 is_stmt 1 view .LVU410
 740:Middlewares/Third_Party/FreeRTOS/Source/portable/Common/mpu_wrappers.c **** #endif
 1713              		.loc 1 740 2 is_stmt 0 view .LVU411
 1714 03d2 2046     		mov	r0, r4
 1715 03d4 70BD     		pop	{r4, r5, r6, pc}
 740:Middlewares/Third_Party/FreeRTOS/Source/portable/Common/mpu_wrappers.c **** #endif
 1716              		.loc 1 740 2 view .LVU412
 1717              		.cfi_endproc
 1718              	.LFE39:
 1720              		.align	1
 1721              		.global	MPU_vQueueAddToRegistry
 1722              		.syntax unified
 1723              		.thumb
 1724              		.thumb_func
 1726              	MPU_vQueueAddToRegistry:
 1727              	.LVL229:
 1728              	.LFB40:
 851:Middlewares/Third_Party/FreeRTOS/Source/portable/Common/mpu_wrappers.c **** 	BaseType_t xRunningPrivileged = xPortRaisePrivilege();
 1729              		.loc 1 851 2 is_stmt 1 view -0
 1730              		.cfi_startproc
 1731              		@ args = 0, pretend = 0, frame = 0
 1732              		@ frame_needed = 0, uses_anonymous_args = 0
 851:Middlewares/Third_Party/FreeRTOS/Source/portable/Common/mpu_wrappers.c **** 	BaseType_t xRunningPrivileged = xPortRaisePrivilege();
 1733              		.loc 1 851 2 is_stmt 0 view .LVU414
 1734 03d6 70B5     		push	{r4, r5, r6, lr}
 1735              		.cfi_def_cfa_offset 16
ARM GAS  /tmp/ccpAxJaT.s 			page 48


 1736              		.cfi_offset 4, -16
 1737              		.cfi_offset 5, -12
 1738              		.cfi_offset 6, -8
 1739              		.cfi_offset 14, -4
 1740 03d8 0546     		mov	r5, r0
 1741 03da 0E46     		mov	r6, r1
 852:Middlewares/Third_Party/FreeRTOS/Source/portable/Common/mpu_wrappers.c **** 
 1742              		.loc 1 852 2 is_stmt 1 view .LVU415
 852:Middlewares/Third_Party/FreeRTOS/Source/portable/Common/mpu_wrappers.c **** 
 1743              		.loc 1 852 34 is_stmt 0 view .LVU416
 1744 03dc FFF7FEFF 		bl	xPortRaisePrivilege
 1745              	.LVL230:
 852:Middlewares/Third_Party/FreeRTOS/Source/portable/Common/mpu_wrappers.c **** 
 1746              		.loc 1 852 34 view .LVU417
 1747 03e0 0446     		mov	r4, r0
 1748              	.LVL231:
 854:Middlewares/Third_Party/FreeRTOS/Source/portable/Common/mpu_wrappers.c **** 
 1749              		.loc 1 854 3 is_stmt 1 view .LVU418
 1750 03e2 3146     		mov	r1, r6
 1751 03e4 2846     		mov	r0, r5
 1752              	.LVL232:
 854:Middlewares/Third_Party/FreeRTOS/Source/portable/Common/mpu_wrappers.c **** 
 1753              		.loc 1 854 3 is_stmt 0 view .LVU419
 1754 03e6 FFF7FEFF 		bl	vQueueAddToRegistry
 1755              	.LVL233:
 856:Middlewares/Third_Party/FreeRTOS/Source/portable/Common/mpu_wrappers.c **** 	}
 1756              		.loc 1 856 3 is_stmt 1 view .LVU420
 1757 03ea 2046     		mov	r0, r4
 1758 03ec FFF7FEFF 		bl	vPortResetPrivilege
 1759              	.LVL234:
 857:Middlewares/Third_Party/FreeRTOS/Source/portable/Common/mpu_wrappers.c **** #endif
 1760              		.loc 1 857 2 is_stmt 0 view .LVU421
 1761 03f0 70BD     		pop	{r4, r5, r6, pc}
 857:Middlewares/Third_Party/FreeRTOS/Source/portable/Common/mpu_wrappers.c **** #endif
 1762              		.loc 1 857 2 view .LVU422
 1763              		.cfi_endproc
 1764              	.LFE40:
 1766              		.align	1
 1767              		.global	MPU_vQueueUnregisterQueue
 1768              		.syntax unified
 1769              		.thumb
 1770              		.thumb_func
 1772              	MPU_vQueueUnregisterQueue:
 1773              	.LVL235:
 1774              	.LFB41:
 863:Middlewares/Third_Party/FreeRTOS/Source/portable/Common/mpu_wrappers.c **** 	BaseType_t xRunningPrivileged = xPortRaisePrivilege();
 1775              		.loc 1 863 2 is_stmt 1 view -0
 1776              		.cfi_startproc
 1777              		@ args = 0, pretend = 0, frame = 0
 1778              		@ frame_needed = 0, uses_anonymous_args = 0
 863:Middlewares/Third_Party/FreeRTOS/Source/portable/Common/mpu_wrappers.c **** 	BaseType_t xRunningPrivileged = xPortRaisePrivilege();
 1779              		.loc 1 863 2 is_stmt 0 view .LVU424
 1780 03f2 38B5     		push	{r3, r4, r5, lr}
 1781              		.cfi_def_cfa_offset 16
 1782              		.cfi_offset 3, -16
 1783              		.cfi_offset 4, -12
 1784              		.cfi_offset 5, -8
ARM GAS  /tmp/ccpAxJaT.s 			page 49


 1785              		.cfi_offset 14, -4
 1786 03f4 0546     		mov	r5, r0
 864:Middlewares/Third_Party/FreeRTOS/Source/portable/Common/mpu_wrappers.c **** 
 1787              		.loc 1 864 2 is_stmt 1 view .LVU425
 864:Middlewares/Third_Party/FreeRTOS/Source/portable/Common/mpu_wrappers.c **** 
 1788              		.loc 1 864 34 is_stmt 0 view .LVU426
 1789 03f6 FFF7FEFF 		bl	xPortRaisePrivilege
 1790              	.LVL236:
 864:Middlewares/Third_Party/FreeRTOS/Source/portable/Common/mpu_wrappers.c **** 
 1791              		.loc 1 864 34 view .LVU427
 1792 03fa 0446     		mov	r4, r0
 1793              	.LVL237:
 866:Middlewares/Third_Party/FreeRTOS/Source/portable/Common/mpu_wrappers.c **** 
 1794              		.loc 1 866 3 is_stmt 1 view .LVU428
 1795 03fc 2846     		mov	r0, r5
 1796              	.LVL238:
 866:Middlewares/Third_Party/FreeRTOS/Source/portable/Common/mpu_wrappers.c **** 
 1797              		.loc 1 866 3 is_stmt 0 view .LVU429
 1798 03fe FFF7FEFF 		bl	vQueueUnregisterQueue
 1799              	.LVL239:
 868:Middlewares/Third_Party/FreeRTOS/Source/portable/Common/mpu_wrappers.c **** 	}
 1800              		.loc 1 868 3 is_stmt 1 view .LVU430
 1801 0402 2046     		mov	r0, r4
 1802 0404 FFF7FEFF 		bl	vPortResetPrivilege
 1803              	.LVL240:
 869:Middlewares/Third_Party/FreeRTOS/Source/portable/Common/mpu_wrappers.c **** #endif
 1804              		.loc 1 869 2 is_stmt 0 view .LVU431
 1805 0408 38BD     		pop	{r3, r4, r5, pc}
 869:Middlewares/Third_Party/FreeRTOS/Source/portable/Common/mpu_wrappers.c **** #endif
 1806              		.loc 1 869 2 view .LVU432
 1807              		.cfi_endproc
 1808              	.LFE41:
 1810              		.align	1
 1811              		.global	MPU_pcQueueGetName
 1812              		.syntax unified
 1813              		.thumb
 1814              		.thumb_func
 1816              	MPU_pcQueueGetName:
 1817              	.LVL241:
 1818              	.LFB42:
 875:Middlewares/Third_Party/FreeRTOS/Source/portable/Common/mpu_wrappers.c **** 	BaseType_t xRunningPrivileged = xPortRaisePrivilege();
 1819              		.loc 1 875 2 is_stmt 1 view -0
 1820              		.cfi_startproc
 1821              		@ args = 0, pretend = 0, frame = 0
 1822              		@ frame_needed = 0, uses_anonymous_args = 0
 875:Middlewares/Third_Party/FreeRTOS/Source/portable/Common/mpu_wrappers.c **** 	BaseType_t xRunningPrivileged = xPortRaisePrivilege();
 1823              		.loc 1 875 2 is_stmt 0 view .LVU434
 1824 040a 38B5     		push	{r3, r4, r5, lr}
 1825              		.cfi_def_cfa_offset 16
 1826              		.cfi_offset 3, -16
 1827              		.cfi_offset 4, -12
 1828              		.cfi_offset 5, -8
 1829              		.cfi_offset 14, -4
 1830 040c 0446     		mov	r4, r0
 876:Middlewares/Third_Party/FreeRTOS/Source/portable/Common/mpu_wrappers.c **** 	const char *pcReturn;
 1831              		.loc 1 876 2 is_stmt 1 view .LVU435
 876:Middlewares/Third_Party/FreeRTOS/Source/portable/Common/mpu_wrappers.c **** 	const char *pcReturn;
ARM GAS  /tmp/ccpAxJaT.s 			page 50


 1832              		.loc 1 876 34 is_stmt 0 view .LVU436
 1833 040e FFF7FEFF 		bl	xPortRaisePrivilege
 1834              	.LVL242:
 876:Middlewares/Third_Party/FreeRTOS/Source/portable/Common/mpu_wrappers.c **** 	const char *pcReturn;
 1835              		.loc 1 876 34 view .LVU437
 1836 0412 0546     		mov	r5, r0
 1837              	.LVL243:
 877:Middlewares/Third_Party/FreeRTOS/Source/portable/Common/mpu_wrappers.c **** 
 1838              		.loc 1 877 2 is_stmt 1 view .LVU438
 879:Middlewares/Third_Party/FreeRTOS/Source/portable/Common/mpu_wrappers.c **** 
 1839              		.loc 1 879 3 view .LVU439
 879:Middlewares/Third_Party/FreeRTOS/Source/portable/Common/mpu_wrappers.c **** 
 1840              		.loc 1 879 14 is_stmt 0 view .LVU440
 1841 0414 2046     		mov	r0, r4
 1842              	.LVL244:
 879:Middlewares/Third_Party/FreeRTOS/Source/portable/Common/mpu_wrappers.c **** 
 1843              		.loc 1 879 14 view .LVU441
 1844 0416 FFF7FEFF 		bl	pcQueueGetName
 1845              	.LVL245:
 1846 041a 0446     		mov	r4, r0
 1847              	.LVL246:
 881:Middlewares/Third_Party/FreeRTOS/Source/portable/Common/mpu_wrappers.c **** 		return pcReturn;
 1848              		.loc 1 881 3 is_stmt 1 view .LVU442
 1849 041c 2846     		mov	r0, r5
 1850              	.LVL247:
 881:Middlewares/Third_Party/FreeRTOS/Source/portable/Common/mpu_wrappers.c **** 		return pcReturn;
 1851              		.loc 1 881 3 is_stmt 0 view .LVU443
 1852 041e FFF7FEFF 		bl	vPortResetPrivilege
 1853              	.LVL248:
 882:Middlewares/Third_Party/FreeRTOS/Source/portable/Common/mpu_wrappers.c **** 	}
 1854              		.loc 1 882 3 is_stmt 1 view .LVU444
 883:Middlewares/Third_Party/FreeRTOS/Source/portable/Common/mpu_wrappers.c **** #endif
 1855              		.loc 1 883 2 is_stmt 0 view .LVU445
 1856 0422 2046     		mov	r0, r4
 1857 0424 38BD     		pop	{r3, r4, r5, pc}
 883:Middlewares/Third_Party/FreeRTOS/Source/portable/Common/mpu_wrappers.c **** #endif
 1858              		.loc 1 883 2 view .LVU446
 1859              		.cfi_endproc
 1860              	.LFE42:
 1862              		.align	1
 1863              		.global	MPU_xQueueGenericCreateStatic
 1864              		.syntax unified
 1865              		.thumb
 1866              		.thumb_func
 1868              	MPU_xQueueGenericCreateStatic:
 1869              	.LVL249:
 1870              	.LFB31:
 617:Middlewares/Third_Party/FreeRTOS/Source/portable/Common/mpu_wrappers.c **** 	QueueHandle_t xReturn;
 1871              		.loc 1 617 2 is_stmt 1 view -0
 1872              		.cfi_startproc
 1873              		@ args = 4, pretend = 0, frame = 0
 1874              		@ frame_needed = 0, uses_anonymous_args = 0
 617:Middlewares/Third_Party/FreeRTOS/Source/portable/Common/mpu_wrappers.c **** 	QueueHandle_t xReturn;
 1875              		.loc 1 617 2 is_stmt 0 view .LVU448
 1876 0426 2DE9F041 		push	{r4, r5, r6, r7, r8, lr}
 1877              		.cfi_def_cfa_offset 24
 1878              		.cfi_offset 4, -24
ARM GAS  /tmp/ccpAxJaT.s 			page 51


 1879              		.cfi_offset 5, -20
 1880              		.cfi_offset 6, -16
 1881              		.cfi_offset 7, -12
 1882              		.cfi_offset 8, -8
 1883              		.cfi_offset 14, -4
 1884 042a 82B0     		sub	sp, sp, #8
 1885              		.cfi_def_cfa_offset 32
 1886 042c 0446     		mov	r4, r0
 1887 042e 0E46     		mov	r6, r1
 1888 0430 1746     		mov	r7, r2
 1889 0432 9846     		mov	r8, r3
 618:Middlewares/Third_Party/FreeRTOS/Source/portable/Common/mpu_wrappers.c **** 	BaseType_t xRunningPrivileged = xPortRaisePrivilege();
 1890              		.loc 1 618 2 is_stmt 1 view .LVU449
 619:Middlewares/Third_Party/FreeRTOS/Source/portable/Common/mpu_wrappers.c **** 
 1891              		.loc 1 619 2 view .LVU450
 619:Middlewares/Third_Party/FreeRTOS/Source/portable/Common/mpu_wrappers.c **** 
 1892              		.loc 1 619 34 is_stmt 0 view .LVU451
 1893 0434 FFF7FEFF 		bl	xPortRaisePrivilege
 1894              	.LVL250:
 619:Middlewares/Third_Party/FreeRTOS/Source/portable/Common/mpu_wrappers.c **** 
 1895              		.loc 1 619 34 view .LVU452
 1896 0438 0546     		mov	r5, r0
 1897              	.LVL251:
 621:Middlewares/Third_Party/FreeRTOS/Source/portable/Common/mpu_wrappers.c **** 		vPortResetPrivilege( xRunningPrivileged );
 1898              		.loc 1 621 3 is_stmt 1 view .LVU453
 621:Middlewares/Third_Party/FreeRTOS/Source/portable/Common/mpu_wrappers.c **** 		vPortResetPrivilege( xRunningPrivileged );
 1899              		.loc 1 621 13 is_stmt 0 view .LVU454
 1900 043a 9DF82030 		ldrb	r3, [sp, #32]	@ zero_extendqisi2
 1901 043e 0093     		str	r3, [sp]
 1902 0440 4346     		mov	r3, r8
 1903 0442 3A46     		mov	r2, r7
 1904 0444 3146     		mov	r1, r6
 1905 0446 2046     		mov	r0, r4
 1906              	.LVL252:
 621:Middlewares/Third_Party/FreeRTOS/Source/portable/Common/mpu_wrappers.c **** 		vPortResetPrivilege( xRunningPrivileged );
 1907              		.loc 1 621 13 view .LVU455
 1908 0448 FFF7FEFF 		bl	xQueueGenericCreateStatic
 1909              	.LVL253:
 1910 044c 0446     		mov	r4, r0
 1911              	.LVL254:
 622:Middlewares/Third_Party/FreeRTOS/Source/portable/Common/mpu_wrappers.c **** 		return xReturn;
 1912              		.loc 1 622 3 is_stmt 1 view .LVU456
 1913 044e 2846     		mov	r0, r5
 1914              	.LVL255:
 622:Middlewares/Third_Party/FreeRTOS/Source/portable/Common/mpu_wrappers.c **** 		return xReturn;
 1915              		.loc 1 622 3 is_stmt 0 view .LVU457
 1916 0450 FFF7FEFF 		bl	vPortResetPrivilege
 1917              	.LVL256:
 623:Middlewares/Third_Party/FreeRTOS/Source/portable/Common/mpu_wrappers.c **** 	}
 1918              		.loc 1 623 3 is_stmt 1 view .LVU458
 624:Middlewares/Third_Party/FreeRTOS/Source/portable/Common/mpu_wrappers.c **** #endif
 1919              		.loc 1 624 2 is_stmt 0 view .LVU459
 1920 0454 2046     		mov	r0, r4
 1921 0456 02B0     		add	sp, sp, #8
 1922              		.cfi_def_cfa_offset 24
 1923              		@ sp needed
 1924 0458 BDE8F081 		pop	{r4, r5, r6, r7, r8, pc}
ARM GAS  /tmp/ccpAxJaT.s 			page 52


 624:Middlewares/Third_Party/FreeRTOS/Source/portable/Common/mpu_wrappers.c **** #endif
 1925              		.loc 1 624 2 view .LVU460
 1926              		.cfi_endproc
 1927              	.LFE31:
 1929              		.align	1
 1930              		.global	MPU_xQueueGenericReset
 1931              		.syntax unified
 1932              		.thumb
 1933              		.thumb_func
 1935              	MPU_xQueueGenericReset:
 1936              	.LVL257:
 1937              	.LFB32:
 629:Middlewares/Third_Party/FreeRTOS/Source/portable/Common/mpu_wrappers.c **** BaseType_t xReturn;
 1938              		.loc 1 629 1 is_stmt 1 view -0
 1939              		.cfi_startproc
 1940              		@ args = 0, pretend = 0, frame = 0
 1941              		@ frame_needed = 0, uses_anonymous_args = 0
 629:Middlewares/Third_Party/FreeRTOS/Source/portable/Common/mpu_wrappers.c **** BaseType_t xReturn;
 1942              		.loc 1 629 1 is_stmt 0 view .LVU462
 1943 045c 70B5     		push	{r4, r5, r6, lr}
 1944              		.cfi_def_cfa_offset 16
 1945              		.cfi_offset 4, -16
 1946              		.cfi_offset 5, -12
 1947              		.cfi_offset 6, -8
 1948              		.cfi_offset 14, -4
 1949 045e 0446     		mov	r4, r0
 1950 0460 0E46     		mov	r6, r1
 630:Middlewares/Third_Party/FreeRTOS/Source/portable/Common/mpu_wrappers.c **** BaseType_t xRunningPrivileged = xPortRaisePrivilege();
 1951              		.loc 1 630 1 is_stmt 1 view .LVU463
 631:Middlewares/Third_Party/FreeRTOS/Source/portable/Common/mpu_wrappers.c **** 
 1952              		.loc 1 631 1 view .LVU464
 631:Middlewares/Third_Party/FreeRTOS/Source/portable/Common/mpu_wrappers.c **** 
 1953              		.loc 1 631 33 is_stmt 0 view .LVU465
 1954 0462 FFF7FEFF 		bl	xPortRaisePrivilege
 1955              	.LVL258:
 631:Middlewares/Third_Party/FreeRTOS/Source/portable/Common/mpu_wrappers.c **** 
 1956              		.loc 1 631 33 view .LVU466
 1957 0466 0546     		mov	r5, r0
 1958              	.LVL259:
 633:Middlewares/Third_Party/FreeRTOS/Source/portable/Common/mpu_wrappers.c **** 	vPortResetPrivilege( xRunningPrivileged );
 1959              		.loc 1 633 2 is_stmt 1 view .LVU467
 633:Middlewares/Third_Party/FreeRTOS/Source/portable/Common/mpu_wrappers.c **** 	vPortResetPrivilege( xRunningPrivileged );
 1960              		.loc 1 633 12 is_stmt 0 view .LVU468
 1961 0468 3146     		mov	r1, r6
 1962 046a 2046     		mov	r0, r4
 1963              	.LVL260:
 633:Middlewares/Third_Party/FreeRTOS/Source/portable/Common/mpu_wrappers.c **** 	vPortResetPrivilege( xRunningPrivileged );
 1964              		.loc 1 633 12 view .LVU469
 1965 046c FFF7FEFF 		bl	xQueueGenericReset
 1966              	.LVL261:
 1967 0470 0446     		mov	r4, r0
 1968              	.LVL262:
 634:Middlewares/Third_Party/FreeRTOS/Source/portable/Common/mpu_wrappers.c **** 	return xReturn;
 1969              		.loc 1 634 2 is_stmt 1 view .LVU470
 1970 0472 2846     		mov	r0, r5
 1971              	.LVL263:
 634:Middlewares/Third_Party/FreeRTOS/Source/portable/Common/mpu_wrappers.c **** 	return xReturn;
ARM GAS  /tmp/ccpAxJaT.s 			page 53


 1972              		.loc 1 634 2 is_stmt 0 view .LVU471
 1973 0474 FFF7FEFF 		bl	vPortResetPrivilege
 1974              	.LVL264:
 635:Middlewares/Third_Party/FreeRTOS/Source/portable/Common/mpu_wrappers.c **** }
 1975              		.loc 1 635 2 is_stmt 1 view .LVU472
 636:Middlewares/Third_Party/FreeRTOS/Source/portable/Common/mpu_wrappers.c **** /*-----------------------------------------------------------*/
 1976              		.loc 1 636 1 is_stmt 0 view .LVU473
 1977 0478 2046     		mov	r0, r4
 1978 047a 70BD     		pop	{r4, r5, r6, pc}
 636:Middlewares/Third_Party/FreeRTOS/Source/portable/Common/mpu_wrappers.c **** /*-----------------------------------------------------------*/
 1979              		.loc 1 636 1 view .LVU474
 1980              		.cfi_endproc
 1981              	.LFE32:
 1983              		.align	1
 1984              		.global	MPU_xEventGroupCreateStatic
 1985              		.syntax unified
 1986              		.thumb
 1987              		.thumb_func
 1989              	MPU_xEventGroupCreateStatic:
 1990              	.LVL265:
 1991              	.LFB44:
 895:Middlewares/Third_Party/FreeRTOS/Source/portable/Common/mpu_wrappers.c **** /*-----------------------------------------------------------*/
 896:Middlewares/Third_Party/FreeRTOS/Source/portable/Common/mpu_wrappers.c **** 
 897:Middlewares/Third_Party/FreeRTOS/Source/portable/Common/mpu_wrappers.c **** #if( configSUPPORT_DYNAMIC_ALLOCATION == 1 )
 898:Middlewares/Third_Party/FreeRTOS/Source/portable/Common/mpu_wrappers.c **** 	void *MPU_pvPortMalloc( size_t xSize ) /* FREERTOS_SYSTEM_CALL */
 899:Middlewares/Third_Party/FreeRTOS/Source/portable/Common/mpu_wrappers.c **** 	{
 900:Middlewares/Third_Party/FreeRTOS/Source/portable/Common/mpu_wrappers.c **** 	void *pvReturn;
 901:Middlewares/Third_Party/FreeRTOS/Source/portable/Common/mpu_wrappers.c **** 	BaseType_t xRunningPrivileged = xPortRaisePrivilege();
 902:Middlewares/Third_Party/FreeRTOS/Source/portable/Common/mpu_wrappers.c **** 
 903:Middlewares/Third_Party/FreeRTOS/Source/portable/Common/mpu_wrappers.c **** 		pvReturn = pvPortMalloc( xSize );
 904:Middlewares/Third_Party/FreeRTOS/Source/portable/Common/mpu_wrappers.c **** 
 905:Middlewares/Third_Party/FreeRTOS/Source/portable/Common/mpu_wrappers.c **** 		vPortResetPrivilege( xRunningPrivileged );
 906:Middlewares/Third_Party/FreeRTOS/Source/portable/Common/mpu_wrappers.c **** 
 907:Middlewares/Third_Party/FreeRTOS/Source/portable/Common/mpu_wrappers.c **** 		return pvReturn;
 908:Middlewares/Third_Party/FreeRTOS/Source/portable/Common/mpu_wrappers.c **** 	}
 909:Middlewares/Third_Party/FreeRTOS/Source/portable/Common/mpu_wrappers.c **** #endif /* configSUPPORT_DYNAMIC_ALLOCATION */
 910:Middlewares/Third_Party/FreeRTOS/Source/portable/Common/mpu_wrappers.c **** /*-----------------------------------------------------------*/
 911:Middlewares/Third_Party/FreeRTOS/Source/portable/Common/mpu_wrappers.c **** 
 912:Middlewares/Third_Party/FreeRTOS/Source/portable/Common/mpu_wrappers.c **** #if( configSUPPORT_DYNAMIC_ALLOCATION == 1 )
 913:Middlewares/Third_Party/FreeRTOS/Source/portable/Common/mpu_wrappers.c **** 	void MPU_vPortFree( void *pv ) /* FREERTOS_SYSTEM_CALL */
 914:Middlewares/Third_Party/FreeRTOS/Source/portable/Common/mpu_wrappers.c **** 	{
 915:Middlewares/Third_Party/FreeRTOS/Source/portable/Common/mpu_wrappers.c **** 	BaseType_t xRunningPrivileged = xPortRaisePrivilege();
 916:Middlewares/Third_Party/FreeRTOS/Source/portable/Common/mpu_wrappers.c **** 
 917:Middlewares/Third_Party/FreeRTOS/Source/portable/Common/mpu_wrappers.c **** 		vPortFree( pv );
 918:Middlewares/Third_Party/FreeRTOS/Source/portable/Common/mpu_wrappers.c **** 
 919:Middlewares/Third_Party/FreeRTOS/Source/portable/Common/mpu_wrappers.c **** 		vPortResetPrivilege( xRunningPrivileged );
 920:Middlewares/Third_Party/FreeRTOS/Source/portable/Common/mpu_wrappers.c **** 	}
 921:Middlewares/Third_Party/FreeRTOS/Source/portable/Common/mpu_wrappers.c **** #endif /* configSUPPORT_DYNAMIC_ALLOCATION */
 922:Middlewares/Third_Party/FreeRTOS/Source/portable/Common/mpu_wrappers.c **** /*-----------------------------------------------------------*/
 923:Middlewares/Third_Party/FreeRTOS/Source/portable/Common/mpu_wrappers.c **** 
 924:Middlewares/Third_Party/FreeRTOS/Source/portable/Common/mpu_wrappers.c **** #if( configSUPPORT_DYNAMIC_ALLOCATION == 1 )
 925:Middlewares/Third_Party/FreeRTOS/Source/portable/Common/mpu_wrappers.c **** 	void MPU_vPortInitialiseBlocks( void ) /* FREERTOS_SYSTEM_CALL */
 926:Middlewares/Third_Party/FreeRTOS/Source/portable/Common/mpu_wrappers.c **** 	{
 927:Middlewares/Third_Party/FreeRTOS/Source/portable/Common/mpu_wrappers.c **** 	BaseType_t xRunningPrivileged = xPortRaisePrivilege();
 928:Middlewares/Third_Party/FreeRTOS/Source/portable/Common/mpu_wrappers.c **** 
 929:Middlewares/Third_Party/FreeRTOS/Source/portable/Common/mpu_wrappers.c **** 		vPortInitialiseBlocks();
 930:Middlewares/Third_Party/FreeRTOS/Source/portable/Common/mpu_wrappers.c **** 
ARM GAS  /tmp/ccpAxJaT.s 			page 54


 931:Middlewares/Third_Party/FreeRTOS/Source/portable/Common/mpu_wrappers.c **** 		vPortResetPrivilege( xRunningPrivileged );
 932:Middlewares/Third_Party/FreeRTOS/Source/portable/Common/mpu_wrappers.c **** 	}
 933:Middlewares/Third_Party/FreeRTOS/Source/portable/Common/mpu_wrappers.c **** #endif /* configSUPPORT_DYNAMIC_ALLOCATION */
 934:Middlewares/Third_Party/FreeRTOS/Source/portable/Common/mpu_wrappers.c **** /*-----------------------------------------------------------*/
 935:Middlewares/Third_Party/FreeRTOS/Source/portable/Common/mpu_wrappers.c **** 
 936:Middlewares/Third_Party/FreeRTOS/Source/portable/Common/mpu_wrappers.c **** #if( configSUPPORT_DYNAMIC_ALLOCATION == 1 )
 937:Middlewares/Third_Party/FreeRTOS/Source/portable/Common/mpu_wrappers.c **** 	size_t MPU_xPortGetFreeHeapSize( void ) /* FREERTOS_SYSTEM_CALL */
 938:Middlewares/Third_Party/FreeRTOS/Source/portable/Common/mpu_wrappers.c **** 	{
 939:Middlewares/Third_Party/FreeRTOS/Source/portable/Common/mpu_wrappers.c **** 	size_t xReturn;
 940:Middlewares/Third_Party/FreeRTOS/Source/portable/Common/mpu_wrappers.c **** 	BaseType_t xRunningPrivileged = xPortRaisePrivilege();
 941:Middlewares/Third_Party/FreeRTOS/Source/portable/Common/mpu_wrappers.c **** 
 942:Middlewares/Third_Party/FreeRTOS/Source/portable/Common/mpu_wrappers.c **** 		xReturn = xPortGetFreeHeapSize();
 943:Middlewares/Third_Party/FreeRTOS/Source/portable/Common/mpu_wrappers.c **** 
 944:Middlewares/Third_Party/FreeRTOS/Source/portable/Common/mpu_wrappers.c **** 		vPortResetPrivilege( xRunningPrivileged );
 945:Middlewares/Third_Party/FreeRTOS/Source/portable/Common/mpu_wrappers.c **** 
 946:Middlewares/Third_Party/FreeRTOS/Source/portable/Common/mpu_wrappers.c **** 		return xReturn;
 947:Middlewares/Third_Party/FreeRTOS/Source/portable/Common/mpu_wrappers.c **** 	}
 948:Middlewares/Third_Party/FreeRTOS/Source/portable/Common/mpu_wrappers.c **** #endif /* configSUPPORT_DYNAMIC_ALLOCATION */
 949:Middlewares/Third_Party/FreeRTOS/Source/portable/Common/mpu_wrappers.c **** /*-----------------------------------------------------------*/
 950:Middlewares/Third_Party/FreeRTOS/Source/portable/Common/mpu_wrappers.c **** 
 951:Middlewares/Third_Party/FreeRTOS/Source/portable/Common/mpu_wrappers.c **** #if( ( configSUPPORT_DYNAMIC_ALLOCATION == 1 ) && ( configUSE_TIMERS == 1 ) )
 952:Middlewares/Third_Party/FreeRTOS/Source/portable/Common/mpu_wrappers.c **** 	TimerHandle_t MPU_xTimerCreate( const char * const pcTimerName, const TickType_t xTimerPeriodInTic
 953:Middlewares/Third_Party/FreeRTOS/Source/portable/Common/mpu_wrappers.c **** 	{
 954:Middlewares/Third_Party/FreeRTOS/Source/portable/Common/mpu_wrappers.c **** 	TimerHandle_t xReturn;
 955:Middlewares/Third_Party/FreeRTOS/Source/portable/Common/mpu_wrappers.c **** 	BaseType_t xRunningPrivileged = xPortRaisePrivilege();
 956:Middlewares/Third_Party/FreeRTOS/Source/portable/Common/mpu_wrappers.c **** 
 957:Middlewares/Third_Party/FreeRTOS/Source/portable/Common/mpu_wrappers.c **** 		xReturn = xTimerCreate( pcTimerName, xTimerPeriodInTicks, uxAutoReload, pvTimerID, pxCallbackFunc
 958:Middlewares/Third_Party/FreeRTOS/Source/portable/Common/mpu_wrappers.c **** 		vPortResetPrivilege( xRunningPrivileged );
 959:Middlewares/Third_Party/FreeRTOS/Source/portable/Common/mpu_wrappers.c **** 
 960:Middlewares/Third_Party/FreeRTOS/Source/portable/Common/mpu_wrappers.c **** 		return xReturn;
 961:Middlewares/Third_Party/FreeRTOS/Source/portable/Common/mpu_wrappers.c **** 	}
 962:Middlewares/Third_Party/FreeRTOS/Source/portable/Common/mpu_wrappers.c **** #endif
 963:Middlewares/Third_Party/FreeRTOS/Source/portable/Common/mpu_wrappers.c **** /*-----------------------------------------------------------*/
 964:Middlewares/Third_Party/FreeRTOS/Source/portable/Common/mpu_wrappers.c **** 
 965:Middlewares/Third_Party/FreeRTOS/Source/portable/Common/mpu_wrappers.c **** #if( ( configSUPPORT_STATIC_ALLOCATION == 1 ) && ( configUSE_TIMERS == 1 ) )
 966:Middlewares/Third_Party/FreeRTOS/Source/portable/Common/mpu_wrappers.c **** 	TimerHandle_t MPU_xTimerCreateStatic( const char * const pcTimerName, const TickType_t xTimerPerio
 967:Middlewares/Third_Party/FreeRTOS/Source/portable/Common/mpu_wrappers.c **** 	{
 968:Middlewares/Third_Party/FreeRTOS/Source/portable/Common/mpu_wrappers.c **** 	TimerHandle_t xReturn;
 969:Middlewares/Third_Party/FreeRTOS/Source/portable/Common/mpu_wrappers.c **** 	BaseType_t xRunningPrivileged = xPortRaisePrivilege();
 970:Middlewares/Third_Party/FreeRTOS/Source/portable/Common/mpu_wrappers.c **** 
 971:Middlewares/Third_Party/FreeRTOS/Source/portable/Common/mpu_wrappers.c **** 		xReturn = xTimerCreateStatic( pcTimerName, xTimerPeriodInTicks, uxAutoReload, pvTimerID, pxCallba
 972:Middlewares/Third_Party/FreeRTOS/Source/portable/Common/mpu_wrappers.c **** 		vPortResetPrivilege( xRunningPrivileged );
 973:Middlewares/Third_Party/FreeRTOS/Source/portable/Common/mpu_wrappers.c **** 
 974:Middlewares/Third_Party/FreeRTOS/Source/portable/Common/mpu_wrappers.c **** 		return xReturn;
 975:Middlewares/Third_Party/FreeRTOS/Source/portable/Common/mpu_wrappers.c **** 	}
 976:Middlewares/Third_Party/FreeRTOS/Source/portable/Common/mpu_wrappers.c **** #endif
 977:Middlewares/Third_Party/FreeRTOS/Source/portable/Common/mpu_wrappers.c **** /*-----------------------------------------------------------*/
 978:Middlewares/Third_Party/FreeRTOS/Source/portable/Common/mpu_wrappers.c **** 
 979:Middlewares/Third_Party/FreeRTOS/Source/portable/Common/mpu_wrappers.c **** #if( configUSE_TIMERS == 1 )
 980:Middlewares/Third_Party/FreeRTOS/Source/portable/Common/mpu_wrappers.c **** 	void *MPU_pvTimerGetTimerID( const TimerHandle_t xTimer ) /* FREERTOS_SYSTEM_CALL */
 981:Middlewares/Third_Party/FreeRTOS/Source/portable/Common/mpu_wrappers.c **** 	{
 982:Middlewares/Third_Party/FreeRTOS/Source/portable/Common/mpu_wrappers.c **** 	void * pvReturn;
 983:Middlewares/Third_Party/FreeRTOS/Source/portable/Common/mpu_wrappers.c **** 	BaseType_t xRunningPrivileged = xPortRaisePrivilege();
 984:Middlewares/Third_Party/FreeRTOS/Source/portable/Common/mpu_wrappers.c **** 
 985:Middlewares/Third_Party/FreeRTOS/Source/portable/Common/mpu_wrappers.c **** 		pvReturn = pvTimerGetTimerID( xTimer );
 986:Middlewares/Third_Party/FreeRTOS/Source/portable/Common/mpu_wrappers.c **** 		vPortResetPrivilege( xRunningPrivileged );
 987:Middlewares/Third_Party/FreeRTOS/Source/portable/Common/mpu_wrappers.c **** 
ARM GAS  /tmp/ccpAxJaT.s 			page 55


 988:Middlewares/Third_Party/FreeRTOS/Source/portable/Common/mpu_wrappers.c **** 		return pvReturn;
 989:Middlewares/Third_Party/FreeRTOS/Source/portable/Common/mpu_wrappers.c **** 	}
 990:Middlewares/Third_Party/FreeRTOS/Source/portable/Common/mpu_wrappers.c **** #endif
 991:Middlewares/Third_Party/FreeRTOS/Source/portable/Common/mpu_wrappers.c **** /*-----------------------------------------------------------*/
 992:Middlewares/Third_Party/FreeRTOS/Source/portable/Common/mpu_wrappers.c **** 
 993:Middlewares/Third_Party/FreeRTOS/Source/portable/Common/mpu_wrappers.c **** #if( configUSE_TIMERS == 1 )
 994:Middlewares/Third_Party/FreeRTOS/Source/portable/Common/mpu_wrappers.c **** 	void MPU_vTimerSetTimerID( TimerHandle_t xTimer, void *pvNewID ) /* FREERTOS_SYSTEM_CALL */
 995:Middlewares/Third_Party/FreeRTOS/Source/portable/Common/mpu_wrappers.c **** 	{
 996:Middlewares/Third_Party/FreeRTOS/Source/portable/Common/mpu_wrappers.c **** 	BaseType_t xRunningPrivileged = xPortRaisePrivilege();
 997:Middlewares/Third_Party/FreeRTOS/Source/portable/Common/mpu_wrappers.c **** 
 998:Middlewares/Third_Party/FreeRTOS/Source/portable/Common/mpu_wrappers.c **** 		vTimerSetTimerID( xTimer, pvNewID );
 999:Middlewares/Third_Party/FreeRTOS/Source/portable/Common/mpu_wrappers.c **** 		vPortResetPrivilege( xRunningPrivileged );
1000:Middlewares/Third_Party/FreeRTOS/Source/portable/Common/mpu_wrappers.c **** 	}
1001:Middlewares/Third_Party/FreeRTOS/Source/portable/Common/mpu_wrappers.c **** #endif
1002:Middlewares/Third_Party/FreeRTOS/Source/portable/Common/mpu_wrappers.c **** /*-----------------------------------------------------------*/
1003:Middlewares/Third_Party/FreeRTOS/Source/portable/Common/mpu_wrappers.c **** 
1004:Middlewares/Third_Party/FreeRTOS/Source/portable/Common/mpu_wrappers.c **** #if( configUSE_TIMERS == 1 )
1005:Middlewares/Third_Party/FreeRTOS/Source/portable/Common/mpu_wrappers.c **** 	BaseType_t MPU_xTimerIsTimerActive( TimerHandle_t xTimer ) /* FREERTOS_SYSTEM_CALL */
1006:Middlewares/Third_Party/FreeRTOS/Source/portable/Common/mpu_wrappers.c **** 	{
1007:Middlewares/Third_Party/FreeRTOS/Source/portable/Common/mpu_wrappers.c **** 	BaseType_t xReturn;
1008:Middlewares/Third_Party/FreeRTOS/Source/portable/Common/mpu_wrappers.c **** 	BaseType_t xRunningPrivileged = xPortRaisePrivilege();
1009:Middlewares/Third_Party/FreeRTOS/Source/portable/Common/mpu_wrappers.c **** 
1010:Middlewares/Third_Party/FreeRTOS/Source/portable/Common/mpu_wrappers.c **** 		xReturn = xTimerIsTimerActive( xTimer );
1011:Middlewares/Third_Party/FreeRTOS/Source/portable/Common/mpu_wrappers.c **** 		vPortResetPrivilege( xRunningPrivileged );
1012:Middlewares/Third_Party/FreeRTOS/Source/portable/Common/mpu_wrappers.c **** 
1013:Middlewares/Third_Party/FreeRTOS/Source/portable/Common/mpu_wrappers.c **** 		return xReturn;
1014:Middlewares/Third_Party/FreeRTOS/Source/portable/Common/mpu_wrappers.c **** 	}
1015:Middlewares/Third_Party/FreeRTOS/Source/portable/Common/mpu_wrappers.c **** #endif
1016:Middlewares/Third_Party/FreeRTOS/Source/portable/Common/mpu_wrappers.c **** /*-----------------------------------------------------------*/
1017:Middlewares/Third_Party/FreeRTOS/Source/portable/Common/mpu_wrappers.c **** 
1018:Middlewares/Third_Party/FreeRTOS/Source/portable/Common/mpu_wrappers.c **** #if( configUSE_TIMERS == 1 )
1019:Middlewares/Third_Party/FreeRTOS/Source/portable/Common/mpu_wrappers.c **** 	TaskHandle_t MPU_xTimerGetTimerDaemonTaskHandle( void ) /* FREERTOS_SYSTEM_CALL */
1020:Middlewares/Third_Party/FreeRTOS/Source/portable/Common/mpu_wrappers.c **** 	{
1021:Middlewares/Third_Party/FreeRTOS/Source/portable/Common/mpu_wrappers.c **** 	TaskHandle_t xReturn;
1022:Middlewares/Third_Party/FreeRTOS/Source/portable/Common/mpu_wrappers.c **** 	BaseType_t xRunningPrivileged = xPortRaisePrivilege();
1023:Middlewares/Third_Party/FreeRTOS/Source/portable/Common/mpu_wrappers.c **** 
1024:Middlewares/Third_Party/FreeRTOS/Source/portable/Common/mpu_wrappers.c **** 		xReturn = xTimerGetTimerDaemonTaskHandle();
1025:Middlewares/Third_Party/FreeRTOS/Source/portable/Common/mpu_wrappers.c **** 		vPortResetPrivilege( xRunningPrivileged );
1026:Middlewares/Third_Party/FreeRTOS/Source/portable/Common/mpu_wrappers.c **** 
1027:Middlewares/Third_Party/FreeRTOS/Source/portable/Common/mpu_wrappers.c **** 		return xReturn;
1028:Middlewares/Third_Party/FreeRTOS/Source/portable/Common/mpu_wrappers.c **** 	}
1029:Middlewares/Third_Party/FreeRTOS/Source/portable/Common/mpu_wrappers.c **** #endif
1030:Middlewares/Third_Party/FreeRTOS/Source/portable/Common/mpu_wrappers.c **** /*-----------------------------------------------------------*/
1031:Middlewares/Third_Party/FreeRTOS/Source/portable/Common/mpu_wrappers.c **** 
1032:Middlewares/Third_Party/FreeRTOS/Source/portable/Common/mpu_wrappers.c **** #if( ( INCLUDE_xTimerPendFunctionCall == 1 ) && ( configUSE_TIMERS == 1 ) )
1033:Middlewares/Third_Party/FreeRTOS/Source/portable/Common/mpu_wrappers.c **** 	BaseType_t MPU_xTimerPendFunctionCall( PendedFunction_t xFunctionToPend, void *pvParameter1, uint3
1034:Middlewares/Third_Party/FreeRTOS/Source/portable/Common/mpu_wrappers.c **** 	{
1035:Middlewares/Third_Party/FreeRTOS/Source/portable/Common/mpu_wrappers.c **** 	BaseType_t xReturn;
1036:Middlewares/Third_Party/FreeRTOS/Source/portable/Common/mpu_wrappers.c **** 	BaseType_t xRunningPrivileged = xPortRaisePrivilege();
1037:Middlewares/Third_Party/FreeRTOS/Source/portable/Common/mpu_wrappers.c **** 
1038:Middlewares/Third_Party/FreeRTOS/Source/portable/Common/mpu_wrappers.c **** 		xReturn = xTimerPendFunctionCall( xFunctionToPend, pvParameter1, ulParameter2, xTicksToWait );
1039:Middlewares/Third_Party/FreeRTOS/Source/portable/Common/mpu_wrappers.c **** 		vPortResetPrivilege( xRunningPrivileged );
1040:Middlewares/Third_Party/FreeRTOS/Source/portable/Common/mpu_wrappers.c **** 
1041:Middlewares/Third_Party/FreeRTOS/Source/portable/Common/mpu_wrappers.c **** 		return xReturn;
1042:Middlewares/Third_Party/FreeRTOS/Source/portable/Common/mpu_wrappers.c **** 	}
1043:Middlewares/Third_Party/FreeRTOS/Source/portable/Common/mpu_wrappers.c **** #endif
1044:Middlewares/Third_Party/FreeRTOS/Source/portable/Common/mpu_wrappers.c **** /*-----------------------------------------------------------*/
ARM GAS  /tmp/ccpAxJaT.s 			page 56


1045:Middlewares/Third_Party/FreeRTOS/Source/portable/Common/mpu_wrappers.c **** 
1046:Middlewares/Third_Party/FreeRTOS/Source/portable/Common/mpu_wrappers.c **** #if( configUSE_TIMERS == 1 )
1047:Middlewares/Third_Party/FreeRTOS/Source/portable/Common/mpu_wrappers.c **** 	void MPU_vTimerSetReloadMode( TimerHandle_t xTimer, const UBaseType_t uxAutoReload ) /* FREERTOS_S
1048:Middlewares/Third_Party/FreeRTOS/Source/portable/Common/mpu_wrappers.c **** 	{
1049:Middlewares/Third_Party/FreeRTOS/Source/portable/Common/mpu_wrappers.c **** 	BaseType_t xRunningPrivileged = xPortRaisePrivilege();
1050:Middlewares/Third_Party/FreeRTOS/Source/portable/Common/mpu_wrappers.c **** 
1051:Middlewares/Third_Party/FreeRTOS/Source/portable/Common/mpu_wrappers.c **** 		vTimerSetReloadMode( xTimer, uxAutoReload );
1052:Middlewares/Third_Party/FreeRTOS/Source/portable/Common/mpu_wrappers.c **** 		vPortResetPrivilege( xRunningPrivileged );
1053:Middlewares/Third_Party/FreeRTOS/Source/portable/Common/mpu_wrappers.c **** 	}
1054:Middlewares/Third_Party/FreeRTOS/Source/portable/Common/mpu_wrappers.c **** #endif
1055:Middlewares/Third_Party/FreeRTOS/Source/portable/Common/mpu_wrappers.c **** /*-----------------------------------------------------------*/
1056:Middlewares/Third_Party/FreeRTOS/Source/portable/Common/mpu_wrappers.c **** 
1057:Middlewares/Third_Party/FreeRTOS/Source/portable/Common/mpu_wrappers.c **** #if( configUSE_TIMERS == 1 )
1058:Middlewares/Third_Party/FreeRTOS/Source/portable/Common/mpu_wrappers.c **** 	UBaseType_t MPU_uxTimerGetReloadMode( TimerHandle_t xTimer )
1059:Middlewares/Third_Party/FreeRTOS/Source/portable/Common/mpu_wrappers.c **** 	{
1060:Middlewares/Third_Party/FreeRTOS/Source/portable/Common/mpu_wrappers.c **** 	BaseType_t xRunningPrivileged = xPortRaisePrivilege();
1061:Middlewares/Third_Party/FreeRTOS/Source/portable/Common/mpu_wrappers.c **** 	UBaseType_t uxReturn;
1062:Middlewares/Third_Party/FreeRTOS/Source/portable/Common/mpu_wrappers.c **** 
1063:Middlewares/Third_Party/FreeRTOS/Source/portable/Common/mpu_wrappers.c **** 		uxReturn = uxTimerGetReloadMode( xTimer );
1064:Middlewares/Third_Party/FreeRTOS/Source/portable/Common/mpu_wrappers.c **** 		vPortResetPrivilege( xRunningPrivileged );
1065:Middlewares/Third_Party/FreeRTOS/Source/portable/Common/mpu_wrappers.c **** 		return uxReturn;
1066:Middlewares/Third_Party/FreeRTOS/Source/portable/Common/mpu_wrappers.c **** 	}
1067:Middlewares/Third_Party/FreeRTOS/Source/portable/Common/mpu_wrappers.c **** #endif
1068:Middlewares/Third_Party/FreeRTOS/Source/portable/Common/mpu_wrappers.c **** /*-----------------------------------------------------------*/
1069:Middlewares/Third_Party/FreeRTOS/Source/portable/Common/mpu_wrappers.c **** 
1070:Middlewares/Third_Party/FreeRTOS/Source/portable/Common/mpu_wrappers.c **** #if( configUSE_TIMERS == 1 )
1071:Middlewares/Third_Party/FreeRTOS/Source/portable/Common/mpu_wrappers.c **** 	const char * MPU_pcTimerGetName( TimerHandle_t xTimer ) /* FREERTOS_SYSTEM_CALL */
1072:Middlewares/Third_Party/FreeRTOS/Source/portable/Common/mpu_wrappers.c **** 	{
1073:Middlewares/Third_Party/FreeRTOS/Source/portable/Common/mpu_wrappers.c **** 	const char * pcReturn;
1074:Middlewares/Third_Party/FreeRTOS/Source/portable/Common/mpu_wrappers.c **** 	BaseType_t xRunningPrivileged = xPortRaisePrivilege();
1075:Middlewares/Third_Party/FreeRTOS/Source/portable/Common/mpu_wrappers.c **** 
1076:Middlewares/Third_Party/FreeRTOS/Source/portable/Common/mpu_wrappers.c **** 		pcReturn = pcTimerGetName( xTimer );
1077:Middlewares/Third_Party/FreeRTOS/Source/portable/Common/mpu_wrappers.c **** 		vPortResetPrivilege( xRunningPrivileged );
1078:Middlewares/Third_Party/FreeRTOS/Source/portable/Common/mpu_wrappers.c **** 
1079:Middlewares/Third_Party/FreeRTOS/Source/portable/Common/mpu_wrappers.c **** 		return pcReturn;
1080:Middlewares/Third_Party/FreeRTOS/Source/portable/Common/mpu_wrappers.c **** 	}
1081:Middlewares/Third_Party/FreeRTOS/Source/portable/Common/mpu_wrappers.c **** #endif
1082:Middlewares/Third_Party/FreeRTOS/Source/portable/Common/mpu_wrappers.c **** /*-----------------------------------------------------------*/
1083:Middlewares/Third_Party/FreeRTOS/Source/portable/Common/mpu_wrappers.c **** 
1084:Middlewares/Third_Party/FreeRTOS/Source/portable/Common/mpu_wrappers.c **** #if( configUSE_TIMERS == 1 )
1085:Middlewares/Third_Party/FreeRTOS/Source/portable/Common/mpu_wrappers.c **** 	TickType_t MPU_xTimerGetPeriod( TimerHandle_t xTimer ) /* FREERTOS_SYSTEM_CALL */
1086:Middlewares/Third_Party/FreeRTOS/Source/portable/Common/mpu_wrappers.c **** 	{
1087:Middlewares/Third_Party/FreeRTOS/Source/portable/Common/mpu_wrappers.c **** 	TickType_t xReturn;
1088:Middlewares/Third_Party/FreeRTOS/Source/portable/Common/mpu_wrappers.c **** 	BaseType_t xRunningPrivileged = xPortRaisePrivilege();
1089:Middlewares/Third_Party/FreeRTOS/Source/portable/Common/mpu_wrappers.c **** 
1090:Middlewares/Third_Party/FreeRTOS/Source/portable/Common/mpu_wrappers.c **** 		xReturn = xTimerGetPeriod( xTimer );
1091:Middlewares/Third_Party/FreeRTOS/Source/portable/Common/mpu_wrappers.c **** 		vPortResetPrivilege( xRunningPrivileged );
1092:Middlewares/Third_Party/FreeRTOS/Source/portable/Common/mpu_wrappers.c **** 
1093:Middlewares/Third_Party/FreeRTOS/Source/portable/Common/mpu_wrappers.c **** 		return xReturn;
1094:Middlewares/Third_Party/FreeRTOS/Source/portable/Common/mpu_wrappers.c **** 	}
1095:Middlewares/Third_Party/FreeRTOS/Source/portable/Common/mpu_wrappers.c **** #endif
1096:Middlewares/Third_Party/FreeRTOS/Source/portable/Common/mpu_wrappers.c **** /*-----------------------------------------------------------*/
1097:Middlewares/Third_Party/FreeRTOS/Source/portable/Common/mpu_wrappers.c **** 
1098:Middlewares/Third_Party/FreeRTOS/Source/portable/Common/mpu_wrappers.c **** #if( configUSE_TIMERS == 1 )
1099:Middlewares/Third_Party/FreeRTOS/Source/portable/Common/mpu_wrappers.c **** 	TickType_t MPU_xTimerGetExpiryTime( TimerHandle_t xTimer ) /* FREERTOS_SYSTEM_CALL */
1100:Middlewares/Third_Party/FreeRTOS/Source/portable/Common/mpu_wrappers.c **** 	{
1101:Middlewares/Third_Party/FreeRTOS/Source/portable/Common/mpu_wrappers.c **** 	TickType_t xReturn;
ARM GAS  /tmp/ccpAxJaT.s 			page 57


1102:Middlewares/Third_Party/FreeRTOS/Source/portable/Common/mpu_wrappers.c **** 	BaseType_t xRunningPrivileged = xPortRaisePrivilege();
1103:Middlewares/Third_Party/FreeRTOS/Source/portable/Common/mpu_wrappers.c **** 
1104:Middlewares/Third_Party/FreeRTOS/Source/portable/Common/mpu_wrappers.c **** 		xReturn = xTimerGetExpiryTime( xTimer );
1105:Middlewares/Third_Party/FreeRTOS/Source/portable/Common/mpu_wrappers.c **** 		vPortResetPrivilege( xRunningPrivileged );
1106:Middlewares/Third_Party/FreeRTOS/Source/portable/Common/mpu_wrappers.c **** 
1107:Middlewares/Third_Party/FreeRTOS/Source/portable/Common/mpu_wrappers.c **** 		return xReturn;
1108:Middlewares/Third_Party/FreeRTOS/Source/portable/Common/mpu_wrappers.c **** 	}
1109:Middlewares/Third_Party/FreeRTOS/Source/portable/Common/mpu_wrappers.c **** #endif
1110:Middlewares/Third_Party/FreeRTOS/Source/portable/Common/mpu_wrappers.c **** /*-----------------------------------------------------------*/
1111:Middlewares/Third_Party/FreeRTOS/Source/portable/Common/mpu_wrappers.c **** 
1112:Middlewares/Third_Party/FreeRTOS/Source/portable/Common/mpu_wrappers.c **** #if( configUSE_TIMERS == 1 )
1113:Middlewares/Third_Party/FreeRTOS/Source/portable/Common/mpu_wrappers.c **** 	BaseType_t MPU_xTimerGenericCommand( TimerHandle_t xTimer, const BaseType_t xCommandID, const Tick
1114:Middlewares/Third_Party/FreeRTOS/Source/portable/Common/mpu_wrappers.c **** 	{
1115:Middlewares/Third_Party/FreeRTOS/Source/portable/Common/mpu_wrappers.c **** 	BaseType_t xReturn;
1116:Middlewares/Third_Party/FreeRTOS/Source/portable/Common/mpu_wrappers.c **** 	BaseType_t xRunningPrivileged = xPortRaisePrivilege();
1117:Middlewares/Third_Party/FreeRTOS/Source/portable/Common/mpu_wrappers.c **** 
1118:Middlewares/Third_Party/FreeRTOS/Source/portable/Common/mpu_wrappers.c **** 		xReturn = xTimerGenericCommand( xTimer, xCommandID, xOptionalValue, pxHigherPriorityTaskWoken, xT
1119:Middlewares/Third_Party/FreeRTOS/Source/portable/Common/mpu_wrappers.c **** 		vPortResetPrivilege( xRunningPrivileged );
1120:Middlewares/Third_Party/FreeRTOS/Source/portable/Common/mpu_wrappers.c **** 
1121:Middlewares/Third_Party/FreeRTOS/Source/portable/Common/mpu_wrappers.c **** 		return xReturn;
1122:Middlewares/Third_Party/FreeRTOS/Source/portable/Common/mpu_wrappers.c **** 	}
1123:Middlewares/Third_Party/FreeRTOS/Source/portable/Common/mpu_wrappers.c **** #endif
1124:Middlewares/Third_Party/FreeRTOS/Source/portable/Common/mpu_wrappers.c **** /*-----------------------------------------------------------*/
1125:Middlewares/Third_Party/FreeRTOS/Source/portable/Common/mpu_wrappers.c **** 
1126:Middlewares/Third_Party/FreeRTOS/Source/portable/Common/mpu_wrappers.c **** #if( configSUPPORT_DYNAMIC_ALLOCATION == 1 )
1127:Middlewares/Third_Party/FreeRTOS/Source/portable/Common/mpu_wrappers.c **** 	EventGroupHandle_t MPU_xEventGroupCreate( void ) /* FREERTOS_SYSTEM_CALL */
1128:Middlewares/Third_Party/FreeRTOS/Source/portable/Common/mpu_wrappers.c **** 	{
1129:Middlewares/Third_Party/FreeRTOS/Source/portable/Common/mpu_wrappers.c **** 	EventGroupHandle_t xReturn;
1130:Middlewares/Third_Party/FreeRTOS/Source/portable/Common/mpu_wrappers.c **** 	BaseType_t xRunningPrivileged = xPortRaisePrivilege();
1131:Middlewares/Third_Party/FreeRTOS/Source/portable/Common/mpu_wrappers.c **** 
1132:Middlewares/Third_Party/FreeRTOS/Source/portable/Common/mpu_wrappers.c **** 		xReturn = xEventGroupCreate();
1133:Middlewares/Third_Party/FreeRTOS/Source/portable/Common/mpu_wrappers.c **** 		vPortResetPrivilege( xRunningPrivileged );
1134:Middlewares/Third_Party/FreeRTOS/Source/portable/Common/mpu_wrappers.c **** 
1135:Middlewares/Third_Party/FreeRTOS/Source/portable/Common/mpu_wrappers.c **** 		return xReturn;
1136:Middlewares/Third_Party/FreeRTOS/Source/portable/Common/mpu_wrappers.c **** 	}
1137:Middlewares/Third_Party/FreeRTOS/Source/portable/Common/mpu_wrappers.c **** #endif
1138:Middlewares/Third_Party/FreeRTOS/Source/portable/Common/mpu_wrappers.c **** /*-----------------------------------------------------------*/
1139:Middlewares/Third_Party/FreeRTOS/Source/portable/Common/mpu_wrappers.c **** 
1140:Middlewares/Third_Party/FreeRTOS/Source/portable/Common/mpu_wrappers.c **** #if( configSUPPORT_STATIC_ALLOCATION == 1 )
1141:Middlewares/Third_Party/FreeRTOS/Source/portable/Common/mpu_wrappers.c **** 	EventGroupHandle_t MPU_xEventGroupCreateStatic( StaticEventGroup_t *pxEventGroupBuffer ) /* FREERT
1142:Middlewares/Third_Party/FreeRTOS/Source/portable/Common/mpu_wrappers.c **** 	{
 1992              		.loc 1 1142 2 is_stmt 1 view -0
 1993              		.cfi_startproc
 1994              		@ args = 0, pretend = 0, frame = 0
 1995              		@ frame_needed = 0, uses_anonymous_args = 0
 1996              		.loc 1 1142 2 is_stmt 0 view .LVU476
 1997 047c 38B5     		push	{r3, r4, r5, lr}
 1998              		.cfi_def_cfa_offset 16
 1999              		.cfi_offset 3, -16
 2000              		.cfi_offset 4, -12
 2001              		.cfi_offset 5, -8
 2002              		.cfi_offset 14, -4
 2003 047e 0446     		mov	r4, r0
1143:Middlewares/Third_Party/FreeRTOS/Source/portable/Common/mpu_wrappers.c **** 	EventGroupHandle_t xReturn;
 2004              		.loc 1 1143 2 is_stmt 1 view .LVU477
1144:Middlewares/Third_Party/FreeRTOS/Source/portable/Common/mpu_wrappers.c **** 	BaseType_t xRunningPrivileged = xPortRaisePrivilege();
 2005              		.loc 1 1144 2 view .LVU478
ARM GAS  /tmp/ccpAxJaT.s 			page 58


 2006              		.loc 1 1144 34 is_stmt 0 view .LVU479
 2007 0480 FFF7FEFF 		bl	xPortRaisePrivilege
 2008              	.LVL266:
 2009              		.loc 1 1144 34 view .LVU480
 2010 0484 0546     		mov	r5, r0
 2011              	.LVL267:
1145:Middlewares/Third_Party/FreeRTOS/Source/portable/Common/mpu_wrappers.c **** 
1146:Middlewares/Third_Party/FreeRTOS/Source/portable/Common/mpu_wrappers.c **** 		xReturn = xEventGroupCreateStatic( pxEventGroupBuffer );
 2012              		.loc 1 1146 3 is_stmt 1 view .LVU481
 2013              		.loc 1 1146 13 is_stmt 0 view .LVU482
 2014 0486 2046     		mov	r0, r4
 2015              	.LVL268:
 2016              		.loc 1 1146 13 view .LVU483
 2017 0488 FFF7FEFF 		bl	xEventGroupCreateStatic
 2018              	.LVL269:
 2019 048c 0446     		mov	r4, r0
 2020              	.LVL270:
1147:Middlewares/Third_Party/FreeRTOS/Source/portable/Common/mpu_wrappers.c **** 		vPortResetPrivilege( xRunningPrivileged );
 2021              		.loc 1 1147 3 is_stmt 1 view .LVU484
 2022 048e 2846     		mov	r0, r5
 2023              	.LVL271:
 2024              		.loc 1 1147 3 is_stmt 0 view .LVU485
 2025 0490 FFF7FEFF 		bl	vPortResetPrivilege
 2026              	.LVL272:
1148:Middlewares/Third_Party/FreeRTOS/Source/portable/Common/mpu_wrappers.c **** 
1149:Middlewares/Third_Party/FreeRTOS/Source/portable/Common/mpu_wrappers.c **** 		return xReturn;
 2027              		.loc 1 1149 3 is_stmt 1 view .LVU486
1150:Middlewares/Third_Party/FreeRTOS/Source/portable/Common/mpu_wrappers.c **** 	}
 2028              		.loc 1 1150 2 is_stmt 0 view .LVU487
 2029 0494 2046     		mov	r0, r4
 2030 0496 38BD     		pop	{r3, r4, r5, pc}
 2031              		.loc 1 1150 2 view .LVU488
 2032              		.cfi_endproc
 2033              	.LFE44:
 2035              		.align	1
 2036              		.global	MPU_xEventGroupWaitBits
 2037              		.syntax unified
 2038              		.thumb
 2039              		.thumb_func
 2041              	MPU_xEventGroupWaitBits:
 2042              	.LVL273:
 2043              	.LFB45:
1151:Middlewares/Third_Party/FreeRTOS/Source/portable/Common/mpu_wrappers.c **** #endif
1152:Middlewares/Third_Party/FreeRTOS/Source/portable/Common/mpu_wrappers.c **** /*-----------------------------------------------------------*/
1153:Middlewares/Third_Party/FreeRTOS/Source/portable/Common/mpu_wrappers.c **** 
1154:Middlewares/Third_Party/FreeRTOS/Source/portable/Common/mpu_wrappers.c **** EventBits_t MPU_xEventGroupWaitBits( EventGroupHandle_t xEventGroup, const EventBits_t uxBitsToWait
1155:Middlewares/Third_Party/FreeRTOS/Source/portable/Common/mpu_wrappers.c **** {
 2044              		.loc 1 1155 1 is_stmt 1 view -0
 2045              		.cfi_startproc
 2046              		@ args = 4, pretend = 0, frame = 0
 2047              		@ frame_needed = 0, uses_anonymous_args = 0
 2048              		.loc 1 1155 1 is_stmt 0 view .LVU490
 2049 0498 2DE9F041 		push	{r4, r5, r6, r7, r8, lr}
 2050              		.cfi_def_cfa_offset 24
 2051              		.cfi_offset 4, -24
 2052              		.cfi_offset 5, -20
 2053              		.cfi_offset 6, -16
ARM GAS  /tmp/ccpAxJaT.s 			page 59


 2054              		.cfi_offset 7, -12
 2055              		.cfi_offset 8, -8
 2056              		.cfi_offset 14, -4
 2057 049c 82B0     		sub	sp, sp, #8
 2058              		.cfi_def_cfa_offset 32
 2059 049e 0446     		mov	r4, r0
 2060 04a0 0E46     		mov	r6, r1
 2061 04a2 1746     		mov	r7, r2
 2062 04a4 9846     		mov	r8, r3
1156:Middlewares/Third_Party/FreeRTOS/Source/portable/Common/mpu_wrappers.c **** EventBits_t xReturn;
 2063              		.loc 1 1156 1 is_stmt 1 view .LVU491
1157:Middlewares/Third_Party/FreeRTOS/Source/portable/Common/mpu_wrappers.c **** BaseType_t xRunningPrivileged = xPortRaisePrivilege();
 2064              		.loc 1 1157 1 view .LVU492
 2065              		.loc 1 1157 33 is_stmt 0 view .LVU493
 2066 04a6 FFF7FEFF 		bl	xPortRaisePrivilege
 2067              	.LVL274:
 2068              		.loc 1 1157 33 view .LVU494
 2069 04aa 0546     		mov	r5, r0
 2070              	.LVL275:
1158:Middlewares/Third_Party/FreeRTOS/Source/portable/Common/mpu_wrappers.c **** 
1159:Middlewares/Third_Party/FreeRTOS/Source/portable/Common/mpu_wrappers.c **** 	xReturn = xEventGroupWaitBits( xEventGroup, uxBitsToWaitFor, xClearOnExit, xWaitForAllBits, xTicks
 2071              		.loc 1 1159 2 is_stmt 1 view .LVU495
 2072              		.loc 1 1159 12 is_stmt 0 view .LVU496
 2073 04ac 089B     		ldr	r3, [sp, #32]
 2074 04ae 0093     		str	r3, [sp]
 2075 04b0 4346     		mov	r3, r8
 2076 04b2 3A46     		mov	r2, r7
 2077 04b4 3146     		mov	r1, r6
 2078 04b6 2046     		mov	r0, r4
 2079              	.LVL276:
 2080              		.loc 1 1159 12 view .LVU497
 2081 04b8 FFF7FEFF 		bl	xEventGroupWaitBits
 2082              	.LVL277:
 2083 04bc 0446     		mov	r4, r0
 2084              	.LVL278:
1160:Middlewares/Third_Party/FreeRTOS/Source/portable/Common/mpu_wrappers.c **** 	vPortResetPrivilege( xRunningPrivileged );
 2085              		.loc 1 1160 2 is_stmt 1 view .LVU498
 2086 04be 2846     		mov	r0, r5
 2087              	.LVL279:
 2088              		.loc 1 1160 2 is_stmt 0 view .LVU499
 2089 04c0 FFF7FEFF 		bl	vPortResetPrivilege
 2090              	.LVL280:
1161:Middlewares/Third_Party/FreeRTOS/Source/portable/Common/mpu_wrappers.c **** 
1162:Middlewares/Third_Party/FreeRTOS/Source/portable/Common/mpu_wrappers.c **** 	return xReturn;
 2091              		.loc 1 1162 2 is_stmt 1 view .LVU500
1163:Middlewares/Third_Party/FreeRTOS/Source/portable/Common/mpu_wrappers.c **** }
 2092              		.loc 1 1163 1 is_stmt 0 view .LVU501
 2093 04c4 2046     		mov	r0, r4
 2094 04c6 02B0     		add	sp, sp, #8
 2095              		.cfi_def_cfa_offset 24
 2096              		@ sp needed
 2097 04c8 BDE8F081 		pop	{r4, r5, r6, r7, r8, pc}
 2098              		.loc 1 1163 1 view .LVU502
 2099              		.cfi_endproc
 2100              	.LFE45:
 2102              		.align	1
 2103              		.global	MPU_xEventGroupClearBits
ARM GAS  /tmp/ccpAxJaT.s 			page 60


 2104              		.syntax unified
 2105              		.thumb
 2106              		.thumb_func
 2108              	MPU_xEventGroupClearBits:
 2109              	.LVL281:
 2110              	.LFB46:
1164:Middlewares/Third_Party/FreeRTOS/Source/portable/Common/mpu_wrappers.c **** /*-----------------------------------------------------------*/
1165:Middlewares/Third_Party/FreeRTOS/Source/portable/Common/mpu_wrappers.c **** 
1166:Middlewares/Third_Party/FreeRTOS/Source/portable/Common/mpu_wrappers.c **** EventBits_t MPU_xEventGroupClearBits( EventGroupHandle_t xEventGroup, const EventBits_t uxBitsToCle
1167:Middlewares/Third_Party/FreeRTOS/Source/portable/Common/mpu_wrappers.c **** {
 2111              		.loc 1 1167 1 is_stmt 1 view -0
 2112              		.cfi_startproc
 2113              		@ args = 0, pretend = 0, frame = 0
 2114              		@ frame_needed = 0, uses_anonymous_args = 0
 2115              		.loc 1 1167 1 is_stmt 0 view .LVU504
 2116 04cc 70B5     		push	{r4, r5, r6, lr}
 2117              		.cfi_def_cfa_offset 16
 2118              		.cfi_offset 4, -16
 2119              		.cfi_offset 5, -12
 2120              		.cfi_offset 6, -8
 2121              		.cfi_offset 14, -4
 2122 04ce 0446     		mov	r4, r0
 2123 04d0 0E46     		mov	r6, r1
1168:Middlewares/Third_Party/FreeRTOS/Source/portable/Common/mpu_wrappers.c **** EventBits_t xReturn;
 2124              		.loc 1 1168 1 is_stmt 1 view .LVU505
1169:Middlewares/Third_Party/FreeRTOS/Source/portable/Common/mpu_wrappers.c **** BaseType_t xRunningPrivileged = xPortRaisePrivilege();
 2125              		.loc 1 1169 1 view .LVU506
 2126              		.loc 1 1169 33 is_stmt 0 view .LVU507
 2127 04d2 FFF7FEFF 		bl	xPortRaisePrivilege
 2128              	.LVL282:
 2129              		.loc 1 1169 33 view .LVU508
 2130 04d6 0546     		mov	r5, r0
 2131              	.LVL283:
1170:Middlewares/Third_Party/FreeRTOS/Source/portable/Common/mpu_wrappers.c **** 
1171:Middlewares/Third_Party/FreeRTOS/Source/portable/Common/mpu_wrappers.c **** 	xReturn = xEventGroupClearBits( xEventGroup, uxBitsToClear );
 2132              		.loc 1 1171 2 is_stmt 1 view .LVU509
 2133              		.loc 1 1171 12 is_stmt 0 view .LVU510
 2134 04d8 3146     		mov	r1, r6
 2135 04da 2046     		mov	r0, r4
 2136              	.LVL284:
 2137              		.loc 1 1171 12 view .LVU511
 2138 04dc FFF7FEFF 		bl	xEventGroupClearBits
 2139              	.LVL285:
 2140 04e0 0446     		mov	r4, r0
 2141              	.LVL286:
1172:Middlewares/Third_Party/FreeRTOS/Source/portable/Common/mpu_wrappers.c **** 	vPortResetPrivilege( xRunningPrivileged );
 2142              		.loc 1 1172 2 is_stmt 1 view .LVU512
 2143 04e2 2846     		mov	r0, r5
 2144              	.LVL287:
 2145              		.loc 1 1172 2 is_stmt 0 view .LVU513
 2146 04e4 FFF7FEFF 		bl	vPortResetPrivilege
 2147              	.LVL288:
1173:Middlewares/Third_Party/FreeRTOS/Source/portable/Common/mpu_wrappers.c **** 
1174:Middlewares/Third_Party/FreeRTOS/Source/portable/Common/mpu_wrappers.c **** 	return xReturn;
 2148              		.loc 1 1174 2 is_stmt 1 view .LVU514
1175:Middlewares/Third_Party/FreeRTOS/Source/portable/Common/mpu_wrappers.c **** }
 2149              		.loc 1 1175 1 is_stmt 0 view .LVU515
ARM GAS  /tmp/ccpAxJaT.s 			page 61


 2150 04e8 2046     		mov	r0, r4
 2151 04ea 70BD     		pop	{r4, r5, r6, pc}
 2152              		.loc 1 1175 1 view .LVU516
 2153              		.cfi_endproc
 2154              	.LFE46:
 2156              		.align	1
 2157              		.global	MPU_xEventGroupSetBits
 2158              		.syntax unified
 2159              		.thumb
 2160              		.thumb_func
 2162              	MPU_xEventGroupSetBits:
 2163              	.LVL289:
 2164              	.LFB47:
1176:Middlewares/Third_Party/FreeRTOS/Source/portable/Common/mpu_wrappers.c **** /*-----------------------------------------------------------*/
1177:Middlewares/Third_Party/FreeRTOS/Source/portable/Common/mpu_wrappers.c **** 
1178:Middlewares/Third_Party/FreeRTOS/Source/portable/Common/mpu_wrappers.c **** EventBits_t MPU_xEventGroupSetBits( EventGroupHandle_t xEventGroup, const EventBits_t uxBitsToSet )
1179:Middlewares/Third_Party/FreeRTOS/Source/portable/Common/mpu_wrappers.c **** {
 2165              		.loc 1 1179 1 is_stmt 1 view -0
 2166              		.cfi_startproc
 2167              		@ args = 0, pretend = 0, frame = 0
 2168              		@ frame_needed = 0, uses_anonymous_args = 0
 2169              		.loc 1 1179 1 is_stmt 0 view .LVU518
 2170 04ec 70B5     		push	{r4, r5, r6, lr}
 2171              		.cfi_def_cfa_offset 16
 2172              		.cfi_offset 4, -16
 2173              		.cfi_offset 5, -12
 2174              		.cfi_offset 6, -8
 2175              		.cfi_offset 14, -4
 2176 04ee 0446     		mov	r4, r0
 2177 04f0 0E46     		mov	r6, r1
1180:Middlewares/Third_Party/FreeRTOS/Source/portable/Common/mpu_wrappers.c **** EventBits_t xReturn;
 2178              		.loc 1 1180 1 is_stmt 1 view .LVU519
1181:Middlewares/Third_Party/FreeRTOS/Source/portable/Common/mpu_wrappers.c **** BaseType_t xRunningPrivileged = xPortRaisePrivilege();
 2179              		.loc 1 1181 1 view .LVU520
 2180              		.loc 1 1181 33 is_stmt 0 view .LVU521
 2181 04f2 FFF7FEFF 		bl	xPortRaisePrivilege
 2182              	.LVL290:
 2183              		.loc 1 1181 33 view .LVU522
 2184 04f6 0546     		mov	r5, r0
 2185              	.LVL291:
1182:Middlewares/Third_Party/FreeRTOS/Source/portable/Common/mpu_wrappers.c **** 
1183:Middlewares/Third_Party/FreeRTOS/Source/portable/Common/mpu_wrappers.c **** 	xReturn = xEventGroupSetBits( xEventGroup, uxBitsToSet );
 2186              		.loc 1 1183 2 is_stmt 1 view .LVU523
 2187              		.loc 1 1183 12 is_stmt 0 view .LVU524
 2188 04f8 3146     		mov	r1, r6
 2189 04fa 2046     		mov	r0, r4
 2190              	.LVL292:
 2191              		.loc 1 1183 12 view .LVU525
 2192 04fc FFF7FEFF 		bl	xEventGroupSetBits
 2193              	.LVL293:
 2194 0500 0446     		mov	r4, r0
 2195              	.LVL294:
1184:Middlewares/Third_Party/FreeRTOS/Source/portable/Common/mpu_wrappers.c **** 	vPortResetPrivilege( xRunningPrivileged );
 2196              		.loc 1 1184 2 is_stmt 1 view .LVU526
 2197 0502 2846     		mov	r0, r5
 2198              	.LVL295:
 2199              		.loc 1 1184 2 is_stmt 0 view .LVU527
ARM GAS  /tmp/ccpAxJaT.s 			page 62


 2200 0504 FFF7FEFF 		bl	vPortResetPrivilege
 2201              	.LVL296:
1185:Middlewares/Third_Party/FreeRTOS/Source/portable/Common/mpu_wrappers.c **** 
1186:Middlewares/Third_Party/FreeRTOS/Source/portable/Common/mpu_wrappers.c **** 	return xReturn;
 2202              		.loc 1 1186 2 is_stmt 1 view .LVU528
1187:Middlewares/Third_Party/FreeRTOS/Source/portable/Common/mpu_wrappers.c **** }
 2203              		.loc 1 1187 1 is_stmt 0 view .LVU529
 2204 0508 2046     		mov	r0, r4
 2205 050a 70BD     		pop	{r4, r5, r6, pc}
 2206              		.loc 1 1187 1 view .LVU530
 2207              		.cfi_endproc
 2208              	.LFE47:
 2210              		.align	1
 2211              		.global	MPU_xEventGroupSync
 2212              		.syntax unified
 2213              		.thumb
 2214              		.thumb_func
 2216              	MPU_xEventGroupSync:
 2217              	.LVL297:
 2218              	.LFB48:
1188:Middlewares/Third_Party/FreeRTOS/Source/portable/Common/mpu_wrappers.c **** /*-----------------------------------------------------------*/
1189:Middlewares/Third_Party/FreeRTOS/Source/portable/Common/mpu_wrappers.c **** 
1190:Middlewares/Third_Party/FreeRTOS/Source/portable/Common/mpu_wrappers.c **** EventBits_t MPU_xEventGroupSync( EventGroupHandle_t xEventGroup, const EventBits_t uxBitsToSet, con
1191:Middlewares/Third_Party/FreeRTOS/Source/portable/Common/mpu_wrappers.c **** {
 2219              		.loc 1 1191 1 is_stmt 1 view -0
 2220              		.cfi_startproc
 2221              		@ args = 0, pretend = 0, frame = 0
 2222              		@ frame_needed = 0, uses_anonymous_args = 0
 2223              		.loc 1 1191 1 is_stmt 0 view .LVU532
 2224 050c 2DE9F041 		push	{r4, r5, r6, r7, r8, lr}
 2225              		.cfi_def_cfa_offset 24
 2226              		.cfi_offset 4, -24
 2227              		.cfi_offset 5, -20
 2228              		.cfi_offset 6, -16
 2229              		.cfi_offset 7, -12
 2230              		.cfi_offset 8, -8
 2231              		.cfi_offset 14, -4
 2232 0510 0446     		mov	r4, r0
 2233 0512 0E46     		mov	r6, r1
 2234 0514 1746     		mov	r7, r2
 2235 0516 9846     		mov	r8, r3
1192:Middlewares/Third_Party/FreeRTOS/Source/portable/Common/mpu_wrappers.c **** EventBits_t xReturn;
 2236              		.loc 1 1192 1 is_stmt 1 view .LVU533
1193:Middlewares/Third_Party/FreeRTOS/Source/portable/Common/mpu_wrappers.c **** BaseType_t xRunningPrivileged = xPortRaisePrivilege();
 2237              		.loc 1 1193 1 view .LVU534
 2238              		.loc 1 1193 33 is_stmt 0 view .LVU535
 2239 0518 FFF7FEFF 		bl	xPortRaisePrivilege
 2240              	.LVL298:
 2241              		.loc 1 1193 33 view .LVU536
 2242 051c 0546     		mov	r5, r0
 2243              	.LVL299:
1194:Middlewares/Third_Party/FreeRTOS/Source/portable/Common/mpu_wrappers.c **** 
1195:Middlewares/Third_Party/FreeRTOS/Source/portable/Common/mpu_wrappers.c **** 	xReturn = xEventGroupSync( xEventGroup, uxBitsToSet, uxBitsToWaitFor, xTicksToWait );
 2244              		.loc 1 1195 2 is_stmt 1 view .LVU537
 2245              		.loc 1 1195 12 is_stmt 0 view .LVU538
 2246 051e 4346     		mov	r3, r8
 2247 0520 3A46     		mov	r2, r7
ARM GAS  /tmp/ccpAxJaT.s 			page 63


 2248 0522 3146     		mov	r1, r6
 2249 0524 2046     		mov	r0, r4
 2250              	.LVL300:
 2251              		.loc 1 1195 12 view .LVU539
 2252 0526 FFF7FEFF 		bl	xEventGroupSync
 2253              	.LVL301:
 2254 052a 0446     		mov	r4, r0
 2255              	.LVL302:
1196:Middlewares/Third_Party/FreeRTOS/Source/portable/Common/mpu_wrappers.c **** 	vPortResetPrivilege( xRunningPrivileged );
 2256              		.loc 1 1196 2 is_stmt 1 view .LVU540
 2257 052c 2846     		mov	r0, r5
 2258              	.LVL303:
 2259              		.loc 1 1196 2 is_stmt 0 view .LVU541
 2260 052e FFF7FEFF 		bl	vPortResetPrivilege
 2261              	.LVL304:
1197:Middlewares/Third_Party/FreeRTOS/Source/portable/Common/mpu_wrappers.c **** 
1198:Middlewares/Third_Party/FreeRTOS/Source/portable/Common/mpu_wrappers.c **** 	return xReturn;
 2262              		.loc 1 1198 2 is_stmt 1 view .LVU542
1199:Middlewares/Third_Party/FreeRTOS/Source/portable/Common/mpu_wrappers.c **** }
 2263              		.loc 1 1199 1 is_stmt 0 view .LVU543
 2264 0532 2046     		mov	r0, r4
 2265 0534 BDE8F081 		pop	{r4, r5, r6, r7, r8, pc}
 2266              		.loc 1 1199 1 view .LVU544
 2267              		.cfi_endproc
 2268              	.LFE48:
 2270              		.align	1
 2271              		.global	MPU_vEventGroupDelete
 2272              		.syntax unified
 2273              		.thumb
 2274              		.thumb_func
 2276              	MPU_vEventGroupDelete:
 2277              	.LVL305:
 2278              	.LFB49:
1200:Middlewares/Third_Party/FreeRTOS/Source/portable/Common/mpu_wrappers.c **** /*-----------------------------------------------------------*/
1201:Middlewares/Third_Party/FreeRTOS/Source/portable/Common/mpu_wrappers.c **** 
1202:Middlewares/Third_Party/FreeRTOS/Source/portable/Common/mpu_wrappers.c **** void MPU_vEventGroupDelete( EventGroupHandle_t xEventGroup ) /* FREERTOS_SYSTEM_CALL */
1203:Middlewares/Third_Party/FreeRTOS/Source/portable/Common/mpu_wrappers.c **** {
 2279              		.loc 1 1203 1 is_stmt 1 view -0
 2280              		.cfi_startproc
 2281              		@ args = 0, pretend = 0, frame = 0
 2282              		@ frame_needed = 0, uses_anonymous_args = 0
 2283              		.loc 1 1203 1 is_stmt 0 view .LVU546
 2284 0538 38B5     		push	{r3, r4, r5, lr}
 2285              		.cfi_def_cfa_offset 16
 2286              		.cfi_offset 3, -16
 2287              		.cfi_offset 4, -12
 2288              		.cfi_offset 5, -8
 2289              		.cfi_offset 14, -4
 2290 053a 0546     		mov	r5, r0
1204:Middlewares/Third_Party/FreeRTOS/Source/portable/Common/mpu_wrappers.c **** BaseType_t xRunningPrivileged = xPortRaisePrivilege();
 2291              		.loc 1 1204 1 is_stmt 1 view .LVU547
 2292              		.loc 1 1204 33 is_stmt 0 view .LVU548
 2293 053c FFF7FEFF 		bl	xPortRaisePrivilege
 2294              	.LVL306:
 2295              		.loc 1 1204 33 view .LVU549
 2296 0540 0446     		mov	r4, r0
 2297              	.LVL307:
ARM GAS  /tmp/ccpAxJaT.s 			page 64


1205:Middlewares/Third_Party/FreeRTOS/Source/portable/Common/mpu_wrappers.c **** 
1206:Middlewares/Third_Party/FreeRTOS/Source/portable/Common/mpu_wrappers.c **** 	vEventGroupDelete( xEventGroup );
 2298              		.loc 1 1206 2 is_stmt 1 view .LVU550
 2299 0542 2846     		mov	r0, r5
 2300              	.LVL308:
 2301              		.loc 1 1206 2 is_stmt 0 view .LVU551
 2302 0544 FFF7FEFF 		bl	vEventGroupDelete
 2303              	.LVL309:
1207:Middlewares/Third_Party/FreeRTOS/Source/portable/Common/mpu_wrappers.c **** 	vPortResetPrivilege( xRunningPrivileged );
 2304              		.loc 1 1207 2 is_stmt 1 view .LVU552
 2305 0548 2046     		mov	r0, r4
 2306 054a FFF7FEFF 		bl	vPortResetPrivilege
 2307              	.LVL310:
1208:Middlewares/Third_Party/FreeRTOS/Source/portable/Common/mpu_wrappers.c **** }
 2308              		.loc 1 1208 1 is_stmt 0 view .LVU553
 2309 054e 38BD     		pop	{r3, r4, r5, pc}
 2310              		.loc 1 1208 1 view .LVU554
 2311              		.cfi_endproc
 2312              	.LFE49:
 2314              		.align	1
 2315              		.global	MPU_xStreamBufferSend
 2316              		.syntax unified
 2317              		.thumb
 2318              		.thumb_func
 2320              	MPU_xStreamBufferSend:
 2321              	.LVL311:
 2322              	.LFB50:
1209:Middlewares/Third_Party/FreeRTOS/Source/portable/Common/mpu_wrappers.c **** /*-----------------------------------------------------------*/
1210:Middlewares/Third_Party/FreeRTOS/Source/portable/Common/mpu_wrappers.c **** 
1211:Middlewares/Third_Party/FreeRTOS/Source/portable/Common/mpu_wrappers.c **** size_t MPU_xStreamBufferSend( StreamBufferHandle_t xStreamBuffer, const void *pvTxData, size_t xDat
1212:Middlewares/Third_Party/FreeRTOS/Source/portable/Common/mpu_wrappers.c **** {
 2323              		.loc 1 1212 1 is_stmt 1 view -0
 2324              		.cfi_startproc
 2325              		@ args = 0, pretend = 0, frame = 0
 2326              		@ frame_needed = 0, uses_anonymous_args = 0
 2327              		.loc 1 1212 1 is_stmt 0 view .LVU556
 2328 0550 2DE9F041 		push	{r4, r5, r6, r7, r8, lr}
 2329              		.cfi_def_cfa_offset 24
 2330              		.cfi_offset 4, -24
 2331              		.cfi_offset 5, -20
 2332              		.cfi_offset 6, -16
 2333              		.cfi_offset 7, -12
 2334              		.cfi_offset 8, -8
 2335              		.cfi_offset 14, -4
 2336 0554 0446     		mov	r4, r0
 2337 0556 0E46     		mov	r6, r1
 2338 0558 1746     		mov	r7, r2
 2339 055a 9846     		mov	r8, r3
1213:Middlewares/Third_Party/FreeRTOS/Source/portable/Common/mpu_wrappers.c **** size_t xReturn;
 2340              		.loc 1 1213 1 is_stmt 1 view .LVU557
1214:Middlewares/Third_Party/FreeRTOS/Source/portable/Common/mpu_wrappers.c **** BaseType_t xRunningPrivileged = xPortRaisePrivilege();
 2341              		.loc 1 1214 1 view .LVU558
 2342              		.loc 1 1214 33 is_stmt 0 view .LVU559
 2343 055c FFF7FEFF 		bl	xPortRaisePrivilege
 2344              	.LVL312:
 2345              		.loc 1 1214 33 view .LVU560
 2346 0560 0546     		mov	r5, r0
ARM GAS  /tmp/ccpAxJaT.s 			page 65


 2347              	.LVL313:
1215:Middlewares/Third_Party/FreeRTOS/Source/portable/Common/mpu_wrappers.c **** 
1216:Middlewares/Third_Party/FreeRTOS/Source/portable/Common/mpu_wrappers.c **** 	xReturn = xStreamBufferSend( xStreamBuffer, pvTxData, xDataLengthBytes, xTicksToWait );
 2348              		.loc 1 1216 2 is_stmt 1 view .LVU561
 2349              		.loc 1 1216 12 is_stmt 0 view .LVU562
 2350 0562 4346     		mov	r3, r8
 2351 0564 3A46     		mov	r2, r7
 2352 0566 3146     		mov	r1, r6
 2353 0568 2046     		mov	r0, r4
 2354              	.LVL314:
 2355              		.loc 1 1216 12 view .LVU563
 2356 056a FFF7FEFF 		bl	xStreamBufferSend
 2357              	.LVL315:
 2358 056e 0446     		mov	r4, r0
 2359              	.LVL316:
1217:Middlewares/Third_Party/FreeRTOS/Source/portable/Common/mpu_wrappers.c **** 	vPortResetPrivilege( xRunningPrivileged );
 2360              		.loc 1 1217 2 is_stmt 1 view .LVU564
 2361 0570 2846     		mov	r0, r5
 2362              	.LVL317:
 2363              		.loc 1 1217 2 is_stmt 0 view .LVU565
 2364 0572 FFF7FEFF 		bl	vPortResetPrivilege
 2365              	.LVL318:
1218:Middlewares/Third_Party/FreeRTOS/Source/portable/Common/mpu_wrappers.c **** 
1219:Middlewares/Third_Party/FreeRTOS/Source/portable/Common/mpu_wrappers.c **** 	return xReturn;
 2366              		.loc 1 1219 2 is_stmt 1 view .LVU566
1220:Middlewares/Third_Party/FreeRTOS/Source/portable/Common/mpu_wrappers.c **** }
 2367              		.loc 1 1220 1 is_stmt 0 view .LVU567
 2368 0576 2046     		mov	r0, r4
 2369 0578 BDE8F081 		pop	{r4, r5, r6, r7, r8, pc}
 2370              		.loc 1 1220 1 view .LVU568
 2371              		.cfi_endproc
 2372              	.LFE50:
 2374              		.align	1
 2375              		.global	MPU_xStreamBufferReceive
 2376              		.syntax unified
 2377              		.thumb
 2378              		.thumb_func
 2380              	MPU_xStreamBufferReceive:
 2381              	.LVL319:
 2382              	.LFB52:
1221:Middlewares/Third_Party/FreeRTOS/Source/portable/Common/mpu_wrappers.c **** /*-----------------------------------------------------------*/
1222:Middlewares/Third_Party/FreeRTOS/Source/portable/Common/mpu_wrappers.c **** 
1223:Middlewares/Third_Party/FreeRTOS/Source/portable/Common/mpu_wrappers.c **** size_t MPU_xStreamBufferNextMessageLengthBytes( StreamBufferHandle_t xStreamBuffer ) /* FREERTOS_SY
1224:Middlewares/Third_Party/FreeRTOS/Source/portable/Common/mpu_wrappers.c **** {
1225:Middlewares/Third_Party/FreeRTOS/Source/portable/Common/mpu_wrappers.c **** size_t xReturn;
1226:Middlewares/Third_Party/FreeRTOS/Source/portable/Common/mpu_wrappers.c **** BaseType_t xRunningPrivileged = xPortRaisePrivilege();
1227:Middlewares/Third_Party/FreeRTOS/Source/portable/Common/mpu_wrappers.c **** 
1228:Middlewares/Third_Party/FreeRTOS/Source/portable/Common/mpu_wrappers.c **** 	xReturn = xStreamBufferNextMessageLengthBytes( xStreamBuffer );
1229:Middlewares/Third_Party/FreeRTOS/Source/portable/Common/mpu_wrappers.c **** 	vPortResetPrivilege( xRunningPrivileged );
1230:Middlewares/Third_Party/FreeRTOS/Source/portable/Common/mpu_wrappers.c **** 
1231:Middlewares/Third_Party/FreeRTOS/Source/portable/Common/mpu_wrappers.c **** 	return xReturn;
1232:Middlewares/Third_Party/FreeRTOS/Source/portable/Common/mpu_wrappers.c **** }
1233:Middlewares/Third_Party/FreeRTOS/Source/portable/Common/mpu_wrappers.c **** /*-----------------------------------------------------------*/
1234:Middlewares/Third_Party/FreeRTOS/Source/portable/Common/mpu_wrappers.c **** 
1235:Middlewares/Third_Party/FreeRTOS/Source/portable/Common/mpu_wrappers.c **** size_t MPU_xStreamBufferReceive( StreamBufferHandle_t xStreamBuffer, void *pvRxData, size_t xBuffer
1236:Middlewares/Third_Party/FreeRTOS/Source/portable/Common/mpu_wrappers.c **** {
 2383              		.loc 1 1236 1 is_stmt 1 view -0
ARM GAS  /tmp/ccpAxJaT.s 			page 66


 2384              		.cfi_startproc
 2385              		@ args = 0, pretend = 0, frame = 0
 2386              		@ frame_needed = 0, uses_anonymous_args = 0
 2387              		.loc 1 1236 1 is_stmt 0 view .LVU570
 2388 057c 2DE9F041 		push	{r4, r5, r6, r7, r8, lr}
 2389              		.cfi_def_cfa_offset 24
 2390              		.cfi_offset 4, -24
 2391              		.cfi_offset 5, -20
 2392              		.cfi_offset 6, -16
 2393              		.cfi_offset 7, -12
 2394              		.cfi_offset 8, -8
 2395              		.cfi_offset 14, -4
 2396 0580 0446     		mov	r4, r0
 2397 0582 0E46     		mov	r6, r1
 2398 0584 1746     		mov	r7, r2
 2399 0586 9846     		mov	r8, r3
1237:Middlewares/Third_Party/FreeRTOS/Source/portable/Common/mpu_wrappers.c **** size_t xReturn;
 2400              		.loc 1 1237 1 is_stmt 1 view .LVU571
1238:Middlewares/Third_Party/FreeRTOS/Source/portable/Common/mpu_wrappers.c **** BaseType_t xRunningPrivileged = xPortRaisePrivilege();
 2401              		.loc 1 1238 1 view .LVU572
 2402              		.loc 1 1238 33 is_stmt 0 view .LVU573
 2403 0588 FFF7FEFF 		bl	xPortRaisePrivilege
 2404              	.LVL320:
 2405              		.loc 1 1238 33 view .LVU574
 2406 058c 0546     		mov	r5, r0
 2407              	.LVL321:
1239:Middlewares/Third_Party/FreeRTOS/Source/portable/Common/mpu_wrappers.c **** 
1240:Middlewares/Third_Party/FreeRTOS/Source/portable/Common/mpu_wrappers.c **** 	xReturn = xStreamBufferReceive( xStreamBuffer, pvRxData, xBufferLengthBytes, xTicksToWait );
 2408              		.loc 1 1240 2 is_stmt 1 view .LVU575
 2409              		.loc 1 1240 12 is_stmt 0 view .LVU576
 2410 058e 4346     		mov	r3, r8
 2411 0590 3A46     		mov	r2, r7
 2412 0592 3146     		mov	r1, r6
 2413 0594 2046     		mov	r0, r4
 2414              	.LVL322:
 2415              		.loc 1 1240 12 view .LVU577
 2416 0596 FFF7FEFF 		bl	xStreamBufferReceive
 2417              	.LVL323:
 2418 059a 0446     		mov	r4, r0
 2419              	.LVL324:
1241:Middlewares/Third_Party/FreeRTOS/Source/portable/Common/mpu_wrappers.c **** 	vPortResetPrivilege( xRunningPrivileged );
 2420              		.loc 1 1241 2 is_stmt 1 view .LVU578
 2421 059c 2846     		mov	r0, r5
 2422              	.LVL325:
 2423              		.loc 1 1241 2 is_stmt 0 view .LVU579
 2424 059e FFF7FEFF 		bl	vPortResetPrivilege
 2425              	.LVL326:
1242:Middlewares/Third_Party/FreeRTOS/Source/portable/Common/mpu_wrappers.c **** 
1243:Middlewares/Third_Party/FreeRTOS/Source/portable/Common/mpu_wrappers.c **** 	return xReturn;
 2426              		.loc 1 1243 2 is_stmt 1 view .LVU580
1244:Middlewares/Third_Party/FreeRTOS/Source/portable/Common/mpu_wrappers.c **** }
 2427              		.loc 1 1244 1 is_stmt 0 view .LVU581
 2428 05a2 2046     		mov	r0, r4
 2429 05a4 BDE8F081 		pop	{r4, r5, r6, r7, r8, pc}
 2430              		.loc 1 1244 1 view .LVU582
 2431              		.cfi_endproc
 2432              	.LFE52:
ARM GAS  /tmp/ccpAxJaT.s 			page 67


 2434              		.align	1
 2435              		.global	MPU_xStreamBufferNextMessageLengthBytes
 2436              		.syntax unified
 2437              		.thumb
 2438              		.thumb_func
 2440              	MPU_xStreamBufferNextMessageLengthBytes:
 2441              	.LVL327:
 2442              	.LFB51:
1224:Middlewares/Third_Party/FreeRTOS/Source/portable/Common/mpu_wrappers.c **** size_t xReturn;
 2443              		.loc 1 1224 1 is_stmt 1 view -0
 2444              		.cfi_startproc
 2445              		@ args = 0, pretend = 0, frame = 0
 2446              		@ frame_needed = 0, uses_anonymous_args = 0
1224:Middlewares/Third_Party/FreeRTOS/Source/portable/Common/mpu_wrappers.c **** size_t xReturn;
 2447              		.loc 1 1224 1 is_stmt 0 view .LVU584
 2448 05a8 38B5     		push	{r3, r4, r5, lr}
 2449              		.cfi_def_cfa_offset 16
 2450              		.cfi_offset 3, -16
 2451              		.cfi_offset 4, -12
 2452              		.cfi_offset 5, -8
 2453              		.cfi_offset 14, -4
 2454 05aa 0446     		mov	r4, r0
1225:Middlewares/Third_Party/FreeRTOS/Source/portable/Common/mpu_wrappers.c **** BaseType_t xRunningPrivileged = xPortRaisePrivilege();
 2455              		.loc 1 1225 1 is_stmt 1 view .LVU585
1226:Middlewares/Third_Party/FreeRTOS/Source/portable/Common/mpu_wrappers.c **** 
 2456              		.loc 1 1226 1 view .LVU586
1226:Middlewares/Third_Party/FreeRTOS/Source/portable/Common/mpu_wrappers.c **** 
 2457              		.loc 1 1226 33 is_stmt 0 view .LVU587
 2458 05ac FFF7FEFF 		bl	xPortRaisePrivilege
 2459              	.LVL328:
1226:Middlewares/Third_Party/FreeRTOS/Source/portable/Common/mpu_wrappers.c **** 
 2460              		.loc 1 1226 33 view .LVU588
 2461 05b0 0546     		mov	r5, r0
 2462              	.LVL329:
1228:Middlewares/Third_Party/FreeRTOS/Source/portable/Common/mpu_wrappers.c **** 	vPortResetPrivilege( xRunningPrivileged );
 2463              		.loc 1 1228 2 is_stmt 1 view .LVU589
1228:Middlewares/Third_Party/FreeRTOS/Source/portable/Common/mpu_wrappers.c **** 	vPortResetPrivilege( xRunningPrivileged );
 2464              		.loc 1 1228 12 is_stmt 0 view .LVU590
 2465 05b2 2046     		mov	r0, r4
 2466              	.LVL330:
1228:Middlewares/Third_Party/FreeRTOS/Source/portable/Common/mpu_wrappers.c **** 	vPortResetPrivilege( xRunningPrivileged );
 2467              		.loc 1 1228 12 view .LVU591
 2468 05b4 FFF7FEFF 		bl	xStreamBufferNextMessageLengthBytes
 2469              	.LVL331:
 2470 05b8 0446     		mov	r4, r0
 2471              	.LVL332:
1229:Middlewares/Third_Party/FreeRTOS/Source/portable/Common/mpu_wrappers.c **** 
 2472              		.loc 1 1229 2 is_stmt 1 view .LVU592
 2473 05ba 2846     		mov	r0, r5
 2474              	.LVL333:
1229:Middlewares/Third_Party/FreeRTOS/Source/portable/Common/mpu_wrappers.c **** 
 2475              		.loc 1 1229 2 is_stmt 0 view .LVU593
 2476 05bc FFF7FEFF 		bl	vPortResetPrivilege
 2477              	.LVL334:
1231:Middlewares/Third_Party/FreeRTOS/Source/portable/Common/mpu_wrappers.c **** }
 2478              		.loc 1 1231 2 is_stmt 1 view .LVU594
1232:Middlewares/Third_Party/FreeRTOS/Source/portable/Common/mpu_wrappers.c **** /*-----------------------------------------------------------*/
ARM GAS  /tmp/ccpAxJaT.s 			page 68


 2479              		.loc 1 1232 1 is_stmt 0 view .LVU595
 2480 05c0 2046     		mov	r0, r4
 2481 05c2 38BD     		pop	{r3, r4, r5, pc}
1232:Middlewares/Third_Party/FreeRTOS/Source/portable/Common/mpu_wrappers.c **** /*-----------------------------------------------------------*/
 2482              		.loc 1 1232 1 view .LVU596
 2483              		.cfi_endproc
 2484              	.LFE51:
 2486              		.align	1
 2487              		.global	MPU_vStreamBufferDelete
 2488              		.syntax unified
 2489              		.thumb
 2490              		.thumb_func
 2492              	MPU_vStreamBufferDelete:
 2493              	.LVL335:
 2494              	.LFB53:
1245:Middlewares/Third_Party/FreeRTOS/Source/portable/Common/mpu_wrappers.c **** /*-----------------------------------------------------------*/
1246:Middlewares/Third_Party/FreeRTOS/Source/portable/Common/mpu_wrappers.c **** 
1247:Middlewares/Third_Party/FreeRTOS/Source/portable/Common/mpu_wrappers.c **** void MPU_vStreamBufferDelete( StreamBufferHandle_t xStreamBuffer ) /* FREERTOS_SYSTEM_CALL */
1248:Middlewares/Third_Party/FreeRTOS/Source/portable/Common/mpu_wrappers.c **** {
 2495              		.loc 1 1248 1 is_stmt 1 view -0
 2496              		.cfi_startproc
 2497              		@ args = 0, pretend = 0, frame = 0
 2498              		@ frame_needed = 0, uses_anonymous_args = 0
 2499              		.loc 1 1248 1 is_stmt 0 view .LVU598
 2500 05c4 38B5     		push	{r3, r4, r5, lr}
 2501              		.cfi_def_cfa_offset 16
 2502              		.cfi_offset 3, -16
 2503              		.cfi_offset 4, -12
 2504              		.cfi_offset 5, -8
 2505              		.cfi_offset 14, -4
 2506 05c6 0546     		mov	r5, r0
1249:Middlewares/Third_Party/FreeRTOS/Source/portable/Common/mpu_wrappers.c **** BaseType_t xRunningPrivileged = xPortRaisePrivilege();
 2507              		.loc 1 1249 1 is_stmt 1 view .LVU599
 2508              		.loc 1 1249 33 is_stmt 0 view .LVU600
 2509 05c8 FFF7FEFF 		bl	xPortRaisePrivilege
 2510              	.LVL336:
 2511              		.loc 1 1249 33 view .LVU601
 2512 05cc 0446     		mov	r4, r0
 2513              	.LVL337:
1250:Middlewares/Third_Party/FreeRTOS/Source/portable/Common/mpu_wrappers.c **** 
1251:Middlewares/Third_Party/FreeRTOS/Source/portable/Common/mpu_wrappers.c **** 	vStreamBufferDelete( xStreamBuffer );
 2514              		.loc 1 1251 2 is_stmt 1 view .LVU602
 2515 05ce 2846     		mov	r0, r5
 2516              	.LVL338:
 2517              		.loc 1 1251 2 is_stmt 0 view .LVU603
 2518 05d0 FFF7FEFF 		bl	vStreamBufferDelete
 2519              	.LVL339:
1252:Middlewares/Third_Party/FreeRTOS/Source/portable/Common/mpu_wrappers.c **** 	vPortResetPrivilege( xRunningPrivileged );
 2520              		.loc 1 1252 2 is_stmt 1 view .LVU604
 2521 05d4 2046     		mov	r0, r4
 2522 05d6 FFF7FEFF 		bl	vPortResetPrivilege
 2523              	.LVL340:
1253:Middlewares/Third_Party/FreeRTOS/Source/portable/Common/mpu_wrappers.c **** }
 2524              		.loc 1 1253 1 is_stmt 0 view .LVU605
 2525 05da 38BD     		pop	{r3, r4, r5, pc}
 2526              		.loc 1 1253 1 view .LVU606
 2527              		.cfi_endproc
ARM GAS  /tmp/ccpAxJaT.s 			page 69


 2528              	.LFE53:
 2530              		.align	1
 2531              		.global	MPU_xStreamBufferIsFull
 2532              		.syntax unified
 2533              		.thumb
 2534              		.thumb_func
 2536              	MPU_xStreamBufferIsFull:
 2537              	.LVL341:
 2538              	.LFB54:
1254:Middlewares/Third_Party/FreeRTOS/Source/portable/Common/mpu_wrappers.c **** /*-----------------------------------------------------------*/
1255:Middlewares/Third_Party/FreeRTOS/Source/portable/Common/mpu_wrappers.c **** 
1256:Middlewares/Third_Party/FreeRTOS/Source/portable/Common/mpu_wrappers.c **** BaseType_t MPU_xStreamBufferIsFull( StreamBufferHandle_t xStreamBuffer ) /* FREERTOS_SYSTEM_CALL */
1257:Middlewares/Third_Party/FreeRTOS/Source/portable/Common/mpu_wrappers.c **** {
 2539              		.loc 1 1257 1 is_stmt 1 view -0
 2540              		.cfi_startproc
 2541              		@ args = 0, pretend = 0, frame = 0
 2542              		@ frame_needed = 0, uses_anonymous_args = 0
 2543              		.loc 1 1257 1 is_stmt 0 view .LVU608
 2544 05dc 38B5     		push	{r3, r4, r5, lr}
 2545              		.cfi_def_cfa_offset 16
 2546              		.cfi_offset 3, -16
 2547              		.cfi_offset 4, -12
 2548              		.cfi_offset 5, -8
 2549              		.cfi_offset 14, -4
 2550 05de 0446     		mov	r4, r0
1258:Middlewares/Third_Party/FreeRTOS/Source/portable/Common/mpu_wrappers.c **** BaseType_t xReturn;
 2551              		.loc 1 1258 1 is_stmt 1 view .LVU609
1259:Middlewares/Third_Party/FreeRTOS/Source/portable/Common/mpu_wrappers.c **** BaseType_t xRunningPrivileged = xPortRaisePrivilege();
 2552              		.loc 1 1259 1 view .LVU610
 2553              		.loc 1 1259 33 is_stmt 0 view .LVU611
 2554 05e0 FFF7FEFF 		bl	xPortRaisePrivilege
 2555              	.LVL342:
 2556              		.loc 1 1259 33 view .LVU612
 2557 05e4 0546     		mov	r5, r0
 2558              	.LVL343:
1260:Middlewares/Third_Party/FreeRTOS/Source/portable/Common/mpu_wrappers.c **** 
1261:Middlewares/Third_Party/FreeRTOS/Source/portable/Common/mpu_wrappers.c **** 	xReturn = xStreamBufferIsFull( xStreamBuffer );
 2559              		.loc 1 1261 2 is_stmt 1 view .LVU613
 2560              		.loc 1 1261 12 is_stmt 0 view .LVU614
 2561 05e6 2046     		mov	r0, r4
 2562              	.LVL344:
 2563              		.loc 1 1261 12 view .LVU615
 2564 05e8 FFF7FEFF 		bl	xStreamBufferIsFull
 2565              	.LVL345:
 2566 05ec 0446     		mov	r4, r0
 2567              	.LVL346:
1262:Middlewares/Third_Party/FreeRTOS/Source/portable/Common/mpu_wrappers.c **** 	vPortResetPrivilege( xRunningPrivileged );
 2568              		.loc 1 1262 2 is_stmt 1 view .LVU616
 2569 05ee 2846     		mov	r0, r5
 2570              	.LVL347:
 2571              		.loc 1 1262 2 is_stmt 0 view .LVU617
 2572 05f0 FFF7FEFF 		bl	vPortResetPrivilege
 2573              	.LVL348:
1263:Middlewares/Third_Party/FreeRTOS/Source/portable/Common/mpu_wrappers.c **** 
1264:Middlewares/Third_Party/FreeRTOS/Source/portable/Common/mpu_wrappers.c **** 	return xReturn;
 2574              		.loc 1 1264 2 is_stmt 1 view .LVU618
1265:Middlewares/Third_Party/FreeRTOS/Source/portable/Common/mpu_wrappers.c **** }
ARM GAS  /tmp/ccpAxJaT.s 			page 70


 2575              		.loc 1 1265 1 is_stmt 0 view .LVU619
 2576 05f4 2046     		mov	r0, r4
 2577 05f6 38BD     		pop	{r3, r4, r5, pc}
 2578              		.loc 1 1265 1 view .LVU620
 2579              		.cfi_endproc
 2580              	.LFE54:
 2582              		.align	1
 2583              		.global	MPU_xStreamBufferIsEmpty
 2584              		.syntax unified
 2585              		.thumb
 2586              		.thumb_func
 2588              	MPU_xStreamBufferIsEmpty:
 2589              	.LVL349:
 2590              	.LFB55:
1266:Middlewares/Third_Party/FreeRTOS/Source/portable/Common/mpu_wrappers.c **** /*-----------------------------------------------------------*/
1267:Middlewares/Third_Party/FreeRTOS/Source/portable/Common/mpu_wrappers.c **** 
1268:Middlewares/Third_Party/FreeRTOS/Source/portable/Common/mpu_wrappers.c **** BaseType_t MPU_xStreamBufferIsEmpty( StreamBufferHandle_t xStreamBuffer ) /* FREERTOS_SYSTEM_CALL *
1269:Middlewares/Third_Party/FreeRTOS/Source/portable/Common/mpu_wrappers.c **** {
 2591              		.loc 1 1269 1 is_stmt 1 view -0
 2592              		.cfi_startproc
 2593              		@ args = 0, pretend = 0, frame = 0
 2594              		@ frame_needed = 0, uses_anonymous_args = 0
 2595              		.loc 1 1269 1 is_stmt 0 view .LVU622
 2596 05f8 38B5     		push	{r3, r4, r5, lr}
 2597              		.cfi_def_cfa_offset 16
 2598              		.cfi_offset 3, -16
 2599              		.cfi_offset 4, -12
 2600              		.cfi_offset 5, -8
 2601              		.cfi_offset 14, -4
 2602 05fa 0446     		mov	r4, r0
1270:Middlewares/Third_Party/FreeRTOS/Source/portable/Common/mpu_wrappers.c **** BaseType_t xReturn;
 2603              		.loc 1 1270 1 is_stmt 1 view .LVU623
1271:Middlewares/Third_Party/FreeRTOS/Source/portable/Common/mpu_wrappers.c **** BaseType_t xRunningPrivileged = xPortRaisePrivilege();
 2604              		.loc 1 1271 1 view .LVU624
 2605              		.loc 1 1271 33 is_stmt 0 view .LVU625
 2606 05fc FFF7FEFF 		bl	xPortRaisePrivilege
 2607              	.LVL350:
 2608              		.loc 1 1271 33 view .LVU626
 2609 0600 0546     		mov	r5, r0
 2610              	.LVL351:
1272:Middlewares/Third_Party/FreeRTOS/Source/portable/Common/mpu_wrappers.c **** 
1273:Middlewares/Third_Party/FreeRTOS/Source/portable/Common/mpu_wrappers.c **** 	xReturn = xStreamBufferIsEmpty( xStreamBuffer );
 2611              		.loc 1 1273 2 is_stmt 1 view .LVU627
 2612              		.loc 1 1273 12 is_stmt 0 view .LVU628
 2613 0602 2046     		mov	r0, r4
 2614              	.LVL352:
 2615              		.loc 1 1273 12 view .LVU629
 2616 0604 FFF7FEFF 		bl	xStreamBufferIsEmpty
 2617              	.LVL353:
 2618 0608 0446     		mov	r4, r0
 2619              	.LVL354:
1274:Middlewares/Third_Party/FreeRTOS/Source/portable/Common/mpu_wrappers.c **** 	vPortResetPrivilege( xRunningPrivileged );
 2620              		.loc 1 1274 2 is_stmt 1 view .LVU630
 2621 060a 2846     		mov	r0, r5
 2622              	.LVL355:
 2623              		.loc 1 1274 2 is_stmt 0 view .LVU631
 2624 060c FFF7FEFF 		bl	vPortResetPrivilege
ARM GAS  /tmp/ccpAxJaT.s 			page 71


 2625              	.LVL356:
1275:Middlewares/Third_Party/FreeRTOS/Source/portable/Common/mpu_wrappers.c **** 
1276:Middlewares/Third_Party/FreeRTOS/Source/portable/Common/mpu_wrappers.c **** 	return xReturn;
 2626              		.loc 1 1276 2 is_stmt 1 view .LVU632
1277:Middlewares/Third_Party/FreeRTOS/Source/portable/Common/mpu_wrappers.c **** }
 2627              		.loc 1 1277 1 is_stmt 0 view .LVU633
 2628 0610 2046     		mov	r0, r4
 2629 0612 38BD     		pop	{r3, r4, r5, pc}
 2630              		.loc 1 1277 1 view .LVU634
 2631              		.cfi_endproc
 2632              	.LFE55:
 2634              		.align	1
 2635              		.global	MPU_xStreamBufferReset
 2636              		.syntax unified
 2637              		.thumb
 2638              		.thumb_func
 2640              	MPU_xStreamBufferReset:
 2641              	.LVL357:
 2642              	.LFB56:
1278:Middlewares/Third_Party/FreeRTOS/Source/portable/Common/mpu_wrappers.c **** /*-----------------------------------------------------------*/
1279:Middlewares/Third_Party/FreeRTOS/Source/portable/Common/mpu_wrappers.c **** 
1280:Middlewares/Third_Party/FreeRTOS/Source/portable/Common/mpu_wrappers.c **** BaseType_t MPU_xStreamBufferReset( StreamBufferHandle_t xStreamBuffer ) /* FREERTOS_SYSTEM_CALL */
1281:Middlewares/Third_Party/FreeRTOS/Source/portable/Common/mpu_wrappers.c **** {
 2643              		.loc 1 1281 1 is_stmt 1 view -0
 2644              		.cfi_startproc
 2645              		@ args = 0, pretend = 0, frame = 0
 2646              		@ frame_needed = 0, uses_anonymous_args = 0
 2647              		.loc 1 1281 1 is_stmt 0 view .LVU636
 2648 0614 38B5     		push	{r3, r4, r5, lr}
 2649              		.cfi_def_cfa_offset 16
 2650              		.cfi_offset 3, -16
 2651              		.cfi_offset 4, -12
 2652              		.cfi_offset 5, -8
 2653              		.cfi_offset 14, -4
 2654 0616 0446     		mov	r4, r0
1282:Middlewares/Third_Party/FreeRTOS/Source/portable/Common/mpu_wrappers.c **** BaseType_t xReturn;
 2655              		.loc 1 1282 1 is_stmt 1 view .LVU637
1283:Middlewares/Third_Party/FreeRTOS/Source/portable/Common/mpu_wrappers.c **** BaseType_t xRunningPrivileged = xPortRaisePrivilege();
 2656              		.loc 1 1283 1 view .LVU638
 2657              		.loc 1 1283 33 is_stmt 0 view .LVU639
 2658 0618 FFF7FEFF 		bl	xPortRaisePrivilege
 2659              	.LVL358:
 2660              		.loc 1 1283 33 view .LVU640
 2661 061c 0546     		mov	r5, r0
 2662              	.LVL359:
1284:Middlewares/Third_Party/FreeRTOS/Source/portable/Common/mpu_wrappers.c **** 
1285:Middlewares/Third_Party/FreeRTOS/Source/portable/Common/mpu_wrappers.c **** 	xReturn = xStreamBufferReset( xStreamBuffer );
 2663              		.loc 1 1285 2 is_stmt 1 view .LVU641
 2664              		.loc 1 1285 12 is_stmt 0 view .LVU642
 2665 061e 2046     		mov	r0, r4
 2666              	.LVL360:
 2667              		.loc 1 1285 12 view .LVU643
 2668 0620 FFF7FEFF 		bl	xStreamBufferReset
 2669              	.LVL361:
 2670 0624 0446     		mov	r4, r0
 2671              	.LVL362:
1286:Middlewares/Third_Party/FreeRTOS/Source/portable/Common/mpu_wrappers.c **** 	vPortResetPrivilege( xRunningPrivileged );
ARM GAS  /tmp/ccpAxJaT.s 			page 72


 2672              		.loc 1 1286 2 is_stmt 1 view .LVU644
 2673 0626 2846     		mov	r0, r5
 2674              	.LVL363:
 2675              		.loc 1 1286 2 is_stmt 0 view .LVU645
 2676 0628 FFF7FEFF 		bl	vPortResetPrivilege
 2677              	.LVL364:
1287:Middlewares/Third_Party/FreeRTOS/Source/portable/Common/mpu_wrappers.c **** 
1288:Middlewares/Third_Party/FreeRTOS/Source/portable/Common/mpu_wrappers.c **** 	return xReturn;
 2678              		.loc 1 1288 2 is_stmt 1 view .LVU646
1289:Middlewares/Third_Party/FreeRTOS/Source/portable/Common/mpu_wrappers.c **** }
 2679              		.loc 1 1289 1 is_stmt 0 view .LVU647
 2680 062c 2046     		mov	r0, r4
 2681 062e 38BD     		pop	{r3, r4, r5, pc}
 2682              		.loc 1 1289 1 view .LVU648
 2683              		.cfi_endproc
 2684              	.LFE56:
 2686              		.align	1
 2687              		.global	MPU_xStreamBufferSpacesAvailable
 2688              		.syntax unified
 2689              		.thumb
 2690              		.thumb_func
 2692              	MPU_xStreamBufferSpacesAvailable:
 2693              	.LVL365:
 2694              	.LFB57:
1290:Middlewares/Third_Party/FreeRTOS/Source/portable/Common/mpu_wrappers.c **** /*-----------------------------------------------------------*/
1291:Middlewares/Third_Party/FreeRTOS/Source/portable/Common/mpu_wrappers.c **** 
1292:Middlewares/Third_Party/FreeRTOS/Source/portable/Common/mpu_wrappers.c **** size_t MPU_xStreamBufferSpacesAvailable( StreamBufferHandle_t xStreamBuffer ) /* FREERTOS_SYSTEM_CA
1293:Middlewares/Third_Party/FreeRTOS/Source/portable/Common/mpu_wrappers.c **** {
 2695              		.loc 1 1293 1 is_stmt 1 view -0
 2696              		.cfi_startproc
 2697              		@ args = 0, pretend = 0, frame = 0
 2698              		@ frame_needed = 0, uses_anonymous_args = 0
 2699              		.loc 1 1293 1 is_stmt 0 view .LVU650
 2700 0630 38B5     		push	{r3, r4, r5, lr}
 2701              		.cfi_def_cfa_offset 16
 2702              		.cfi_offset 3, -16
 2703              		.cfi_offset 4, -12
 2704              		.cfi_offset 5, -8
 2705              		.cfi_offset 14, -4
 2706 0632 0446     		mov	r4, r0
1294:Middlewares/Third_Party/FreeRTOS/Source/portable/Common/mpu_wrappers.c **** size_t xReturn;
 2707              		.loc 1 1294 1 is_stmt 1 view .LVU651
1295:Middlewares/Third_Party/FreeRTOS/Source/portable/Common/mpu_wrappers.c **** BaseType_t xRunningPrivileged = xPortRaisePrivilege();
 2708              		.loc 1 1295 1 view .LVU652
 2709              		.loc 1 1295 33 is_stmt 0 view .LVU653
 2710 0634 FFF7FEFF 		bl	xPortRaisePrivilege
 2711              	.LVL366:
 2712              		.loc 1 1295 33 view .LVU654
 2713 0638 0546     		mov	r5, r0
 2714              	.LVL367:
1296:Middlewares/Third_Party/FreeRTOS/Source/portable/Common/mpu_wrappers.c **** 
1297:Middlewares/Third_Party/FreeRTOS/Source/portable/Common/mpu_wrappers.c **** 	xReturn = xStreamBufferSpacesAvailable( xStreamBuffer );
 2715              		.loc 1 1297 2 is_stmt 1 view .LVU655
 2716              		.loc 1 1297 12 is_stmt 0 view .LVU656
 2717 063a 2046     		mov	r0, r4
 2718              	.LVL368:
 2719              		.loc 1 1297 12 view .LVU657
ARM GAS  /tmp/ccpAxJaT.s 			page 73


 2720 063c FFF7FEFF 		bl	xStreamBufferSpacesAvailable
 2721              	.LVL369:
 2722 0640 0446     		mov	r4, r0
 2723              	.LVL370:
1298:Middlewares/Third_Party/FreeRTOS/Source/portable/Common/mpu_wrappers.c **** 	vPortResetPrivilege( xRunningPrivileged );
 2724              		.loc 1 1298 2 is_stmt 1 view .LVU658
 2725 0642 2846     		mov	r0, r5
 2726              	.LVL371:
 2727              		.loc 1 1298 2 is_stmt 0 view .LVU659
 2728 0644 FFF7FEFF 		bl	vPortResetPrivilege
 2729              	.LVL372:
1299:Middlewares/Third_Party/FreeRTOS/Source/portable/Common/mpu_wrappers.c **** 
1300:Middlewares/Third_Party/FreeRTOS/Source/portable/Common/mpu_wrappers.c **** 	return xReturn;
 2730              		.loc 1 1300 2 is_stmt 1 view .LVU660
1301:Middlewares/Third_Party/FreeRTOS/Source/portable/Common/mpu_wrappers.c **** }
 2731              		.loc 1 1301 1 is_stmt 0 view .LVU661
 2732 0648 2046     		mov	r0, r4
 2733 064a 38BD     		pop	{r3, r4, r5, pc}
 2734              		.loc 1 1301 1 view .LVU662
 2735              		.cfi_endproc
 2736              	.LFE57:
 2738              		.align	1
 2739              		.global	MPU_xStreamBufferBytesAvailable
 2740              		.syntax unified
 2741              		.thumb
 2742              		.thumb_func
 2744              	MPU_xStreamBufferBytesAvailable:
 2745              	.LVL373:
 2746              	.LFB58:
1302:Middlewares/Third_Party/FreeRTOS/Source/portable/Common/mpu_wrappers.c **** /*-----------------------------------------------------------*/
1303:Middlewares/Third_Party/FreeRTOS/Source/portable/Common/mpu_wrappers.c **** 
1304:Middlewares/Third_Party/FreeRTOS/Source/portable/Common/mpu_wrappers.c **** size_t MPU_xStreamBufferBytesAvailable( StreamBufferHandle_t xStreamBuffer ) /* FREERTOS_SYSTEM_CAL
1305:Middlewares/Third_Party/FreeRTOS/Source/portable/Common/mpu_wrappers.c **** {
 2747              		.loc 1 1305 1 is_stmt 1 view -0
 2748              		.cfi_startproc
 2749              		@ args = 0, pretend = 0, frame = 0
 2750              		@ frame_needed = 0, uses_anonymous_args = 0
 2751              		.loc 1 1305 1 is_stmt 0 view .LVU664
 2752 064c 38B5     		push	{r3, r4, r5, lr}
 2753              		.cfi_def_cfa_offset 16
 2754              		.cfi_offset 3, -16
 2755              		.cfi_offset 4, -12
 2756              		.cfi_offset 5, -8
 2757              		.cfi_offset 14, -4
 2758 064e 0446     		mov	r4, r0
1306:Middlewares/Third_Party/FreeRTOS/Source/portable/Common/mpu_wrappers.c **** size_t xReturn;
 2759              		.loc 1 1306 1 is_stmt 1 view .LVU665
1307:Middlewares/Third_Party/FreeRTOS/Source/portable/Common/mpu_wrappers.c **** BaseType_t xRunningPrivileged = xPortRaisePrivilege();
 2760              		.loc 1 1307 1 view .LVU666
 2761              		.loc 1 1307 33 is_stmt 0 view .LVU667
 2762 0650 FFF7FEFF 		bl	xPortRaisePrivilege
 2763              	.LVL374:
 2764              		.loc 1 1307 33 view .LVU668
 2765 0654 0546     		mov	r5, r0
 2766              	.LVL375:
1308:Middlewares/Third_Party/FreeRTOS/Source/portable/Common/mpu_wrappers.c **** 
1309:Middlewares/Third_Party/FreeRTOS/Source/portable/Common/mpu_wrappers.c **** 	xReturn = xStreamBufferBytesAvailable( xStreamBuffer );
ARM GAS  /tmp/ccpAxJaT.s 			page 74


 2767              		.loc 1 1309 2 is_stmt 1 view .LVU669
 2768              		.loc 1 1309 12 is_stmt 0 view .LVU670
 2769 0656 2046     		mov	r0, r4
 2770              	.LVL376:
 2771              		.loc 1 1309 12 view .LVU671
 2772 0658 FFF7FEFF 		bl	xStreamBufferBytesAvailable
 2773              	.LVL377:
 2774 065c 0446     		mov	r4, r0
 2775              	.LVL378:
1310:Middlewares/Third_Party/FreeRTOS/Source/portable/Common/mpu_wrappers.c **** 	vPortResetPrivilege( xRunningPrivileged );
 2776              		.loc 1 1310 2 is_stmt 1 view .LVU672
 2777 065e 2846     		mov	r0, r5
 2778              	.LVL379:
 2779              		.loc 1 1310 2 is_stmt 0 view .LVU673
 2780 0660 FFF7FEFF 		bl	vPortResetPrivilege
 2781              	.LVL380:
1311:Middlewares/Third_Party/FreeRTOS/Source/portable/Common/mpu_wrappers.c **** 
1312:Middlewares/Third_Party/FreeRTOS/Source/portable/Common/mpu_wrappers.c **** 	return xReturn;
 2782              		.loc 1 1312 2 is_stmt 1 view .LVU674
1313:Middlewares/Third_Party/FreeRTOS/Source/portable/Common/mpu_wrappers.c **** }
 2783              		.loc 1 1313 1 is_stmt 0 view .LVU675
 2784 0664 2046     		mov	r0, r4
 2785 0666 38BD     		pop	{r3, r4, r5, pc}
 2786              		.loc 1 1313 1 view .LVU676
 2787              		.cfi_endproc
 2788              	.LFE58:
 2790              		.align	1
 2791              		.global	MPU_xStreamBufferSetTriggerLevel
 2792              		.syntax unified
 2793              		.thumb
 2794              		.thumb_func
 2796              	MPU_xStreamBufferSetTriggerLevel:
 2797              	.LVL381:
 2798              	.LFB59:
1314:Middlewares/Third_Party/FreeRTOS/Source/portable/Common/mpu_wrappers.c **** /*-----------------------------------------------------------*/
1315:Middlewares/Third_Party/FreeRTOS/Source/portable/Common/mpu_wrappers.c **** 
1316:Middlewares/Third_Party/FreeRTOS/Source/portable/Common/mpu_wrappers.c **** BaseType_t MPU_xStreamBufferSetTriggerLevel( StreamBufferHandle_t xStreamBuffer, size_t xTriggerLev
1317:Middlewares/Third_Party/FreeRTOS/Source/portable/Common/mpu_wrappers.c **** {
 2799              		.loc 1 1317 1 is_stmt 1 view -0
 2800              		.cfi_startproc
 2801              		@ args = 0, pretend = 0, frame = 0
 2802              		@ frame_needed = 0, uses_anonymous_args = 0
 2803              		.loc 1 1317 1 is_stmt 0 view .LVU678
 2804 0668 70B5     		push	{r4, r5, r6, lr}
 2805              		.cfi_def_cfa_offset 16
 2806              		.cfi_offset 4, -16
 2807              		.cfi_offset 5, -12
 2808              		.cfi_offset 6, -8
 2809              		.cfi_offset 14, -4
 2810 066a 0446     		mov	r4, r0
 2811 066c 0E46     		mov	r6, r1
1318:Middlewares/Third_Party/FreeRTOS/Source/portable/Common/mpu_wrappers.c **** BaseType_t xReturn;
 2812              		.loc 1 1318 1 is_stmt 1 view .LVU679
1319:Middlewares/Third_Party/FreeRTOS/Source/portable/Common/mpu_wrappers.c **** BaseType_t xRunningPrivileged = xPortRaisePrivilege();
 2813              		.loc 1 1319 1 view .LVU680
 2814              		.loc 1 1319 33 is_stmt 0 view .LVU681
 2815 066e FFF7FEFF 		bl	xPortRaisePrivilege
ARM GAS  /tmp/ccpAxJaT.s 			page 75


 2816              	.LVL382:
 2817              		.loc 1 1319 33 view .LVU682
 2818 0672 0546     		mov	r5, r0
 2819              	.LVL383:
1320:Middlewares/Third_Party/FreeRTOS/Source/portable/Common/mpu_wrappers.c **** 
1321:Middlewares/Third_Party/FreeRTOS/Source/portable/Common/mpu_wrappers.c **** 	xReturn = xStreamBufferSetTriggerLevel( xStreamBuffer, xTriggerLevel );
 2820              		.loc 1 1321 2 is_stmt 1 view .LVU683
 2821              		.loc 1 1321 12 is_stmt 0 view .LVU684
 2822 0674 3146     		mov	r1, r6
 2823 0676 2046     		mov	r0, r4
 2824              	.LVL384:
 2825              		.loc 1 1321 12 view .LVU685
 2826 0678 FFF7FEFF 		bl	xStreamBufferSetTriggerLevel
 2827              	.LVL385:
 2828 067c 0446     		mov	r4, r0
 2829              	.LVL386:
1322:Middlewares/Third_Party/FreeRTOS/Source/portable/Common/mpu_wrappers.c **** 	vPortResetPrivilege( xRunningPrivileged );
 2830              		.loc 1 1322 2 is_stmt 1 view .LVU686
 2831 067e 2846     		mov	r0, r5
 2832              	.LVL387:
 2833              		.loc 1 1322 2 is_stmt 0 view .LVU687
 2834 0680 FFF7FEFF 		bl	vPortResetPrivilege
 2835              	.LVL388:
1323:Middlewares/Third_Party/FreeRTOS/Source/portable/Common/mpu_wrappers.c **** 
1324:Middlewares/Third_Party/FreeRTOS/Source/portable/Common/mpu_wrappers.c **** 	return xReturn;
 2836              		.loc 1 1324 2 is_stmt 1 view .LVU688
1325:Middlewares/Third_Party/FreeRTOS/Source/portable/Common/mpu_wrappers.c **** }
 2837              		.loc 1 1325 1 is_stmt 0 view .LVU689
 2838 0684 2046     		mov	r0, r4
 2839 0686 70BD     		pop	{r4, r5, r6, pc}
 2840              		.loc 1 1325 1 view .LVU690
 2841              		.cfi_endproc
 2842              	.LFE59:
 2844              		.align	1
 2845              		.global	MPU_xStreamBufferGenericCreateStatic
 2846              		.syntax unified
 2847              		.thumb
 2848              		.thumb_func
 2850              	MPU_xStreamBufferGenericCreateStatic:
 2851              	.LVL389:
 2852              	.LFB60:
1326:Middlewares/Third_Party/FreeRTOS/Source/portable/Common/mpu_wrappers.c **** /*-----------------------------------------------------------*/
1327:Middlewares/Third_Party/FreeRTOS/Source/portable/Common/mpu_wrappers.c **** 
1328:Middlewares/Third_Party/FreeRTOS/Source/portable/Common/mpu_wrappers.c **** #if( configSUPPORT_DYNAMIC_ALLOCATION == 1 )
1329:Middlewares/Third_Party/FreeRTOS/Source/portable/Common/mpu_wrappers.c **** 	StreamBufferHandle_t MPU_xStreamBufferGenericCreate( size_t xBufferSizeBytes, size_t xTriggerLevel
1330:Middlewares/Third_Party/FreeRTOS/Source/portable/Common/mpu_wrappers.c **** 	{
1331:Middlewares/Third_Party/FreeRTOS/Source/portable/Common/mpu_wrappers.c **** 	StreamBufferHandle_t xReturn;
1332:Middlewares/Third_Party/FreeRTOS/Source/portable/Common/mpu_wrappers.c **** 	BaseType_t xRunningPrivileged = xPortRaisePrivilege();
1333:Middlewares/Third_Party/FreeRTOS/Source/portable/Common/mpu_wrappers.c **** 
1334:Middlewares/Third_Party/FreeRTOS/Source/portable/Common/mpu_wrappers.c **** 		xReturn = xStreamBufferGenericCreate( xBufferSizeBytes, xTriggerLevelBytes, xIsMessageBuffer );
1335:Middlewares/Third_Party/FreeRTOS/Source/portable/Common/mpu_wrappers.c **** 		vPortResetPrivilege( xRunningPrivileged );
1336:Middlewares/Third_Party/FreeRTOS/Source/portable/Common/mpu_wrappers.c **** 
1337:Middlewares/Third_Party/FreeRTOS/Source/portable/Common/mpu_wrappers.c **** 		return xReturn;
1338:Middlewares/Third_Party/FreeRTOS/Source/portable/Common/mpu_wrappers.c **** 	}
1339:Middlewares/Third_Party/FreeRTOS/Source/portable/Common/mpu_wrappers.c **** #endif /* configSUPPORT_DYNAMIC_ALLOCATION */
1340:Middlewares/Third_Party/FreeRTOS/Source/portable/Common/mpu_wrappers.c **** /*-----------------------------------------------------------*/
1341:Middlewares/Third_Party/FreeRTOS/Source/portable/Common/mpu_wrappers.c **** 
ARM GAS  /tmp/ccpAxJaT.s 			page 76


1342:Middlewares/Third_Party/FreeRTOS/Source/portable/Common/mpu_wrappers.c **** #if( configSUPPORT_STATIC_ALLOCATION == 1 )
1343:Middlewares/Third_Party/FreeRTOS/Source/portable/Common/mpu_wrappers.c **** 	StreamBufferHandle_t MPU_xStreamBufferGenericCreateStatic( size_t xBufferSizeBytes, size_t xTrigge
1344:Middlewares/Third_Party/FreeRTOS/Source/portable/Common/mpu_wrappers.c **** 	{
 2853              		.loc 1 1344 2 is_stmt 1 view -0
 2854              		.cfi_startproc
 2855              		@ args = 4, pretend = 0, frame = 0
 2856              		@ frame_needed = 0, uses_anonymous_args = 0
 2857              		.loc 1 1344 2 is_stmt 0 view .LVU692
 2858 0688 2DE9F041 		push	{r4, r5, r6, r7, r8, lr}
 2859              		.cfi_def_cfa_offset 24
 2860              		.cfi_offset 4, -24
 2861              		.cfi_offset 5, -20
 2862              		.cfi_offset 6, -16
 2863              		.cfi_offset 7, -12
 2864              		.cfi_offset 8, -8
 2865              		.cfi_offset 14, -4
 2866 068c 82B0     		sub	sp, sp, #8
 2867              		.cfi_def_cfa_offset 32
 2868 068e 0446     		mov	r4, r0
 2869 0690 0E46     		mov	r6, r1
 2870 0692 1746     		mov	r7, r2
 2871 0694 9846     		mov	r8, r3
1345:Middlewares/Third_Party/FreeRTOS/Source/portable/Common/mpu_wrappers.c **** 	StreamBufferHandle_t xReturn;
 2872              		.loc 1 1345 2 is_stmt 1 view .LVU693
1346:Middlewares/Third_Party/FreeRTOS/Source/portable/Common/mpu_wrappers.c **** 	BaseType_t xRunningPrivileged = xPortRaisePrivilege();
 2873              		.loc 1 1346 2 view .LVU694
 2874              		.loc 1 1346 34 is_stmt 0 view .LVU695
 2875 0696 FFF7FEFF 		bl	xPortRaisePrivilege
 2876              	.LVL390:
 2877              		.loc 1 1346 34 view .LVU696
 2878 069a 0546     		mov	r5, r0
 2879              	.LVL391:
1347:Middlewares/Third_Party/FreeRTOS/Source/portable/Common/mpu_wrappers.c **** 
1348:Middlewares/Third_Party/FreeRTOS/Source/portable/Common/mpu_wrappers.c **** 		xReturn = xStreamBufferGenericCreateStatic( xBufferSizeBytes, xTriggerLevelBytes, xIsMessageBuffe
 2880              		.loc 1 1348 3 is_stmt 1 view .LVU697
 2881              		.loc 1 1348 13 is_stmt 0 view .LVU698
 2882 069c 089B     		ldr	r3, [sp, #32]
 2883 069e 0093     		str	r3, [sp]
 2884 06a0 4346     		mov	r3, r8
 2885 06a2 3A46     		mov	r2, r7
 2886 06a4 3146     		mov	r1, r6
 2887 06a6 2046     		mov	r0, r4
 2888              	.LVL392:
 2889              		.loc 1 1348 13 view .LVU699
 2890 06a8 FFF7FEFF 		bl	xStreamBufferGenericCreateStatic
 2891              	.LVL393:
 2892 06ac 0446     		mov	r4, r0
 2893              	.LVL394:
1349:Middlewares/Third_Party/FreeRTOS/Source/portable/Common/mpu_wrappers.c **** 		vPortResetPrivilege( xRunningPrivileged );
 2894              		.loc 1 1349 3 is_stmt 1 view .LVU700
 2895 06ae 2846     		mov	r0, r5
 2896              	.LVL395:
 2897              		.loc 1 1349 3 is_stmt 0 view .LVU701
 2898 06b0 FFF7FEFF 		bl	vPortResetPrivilege
 2899              	.LVL396:
1350:Middlewares/Third_Party/FreeRTOS/Source/portable/Common/mpu_wrappers.c **** 
1351:Middlewares/Third_Party/FreeRTOS/Source/portable/Common/mpu_wrappers.c **** 		return xReturn;
ARM GAS  /tmp/ccpAxJaT.s 			page 77


 2900              		.loc 1 1351 3 is_stmt 1 view .LVU702
1352:Middlewares/Third_Party/FreeRTOS/Source/portable/Common/mpu_wrappers.c **** 	}
 2901              		.loc 1 1352 2 is_stmt 0 view .LVU703
 2902 06b4 2046     		mov	r0, r4
 2903 06b6 02B0     		add	sp, sp, #8
 2904              		.cfi_def_cfa_offset 24
 2905              		@ sp needed
 2906 06b8 BDE8F081 		pop	{r4, r5, r6, r7, r8, pc}
 2907              		.loc 1 1352 2 view .LVU704
 2908              		.cfi_endproc
 2909              	.LFE60:
 2911              		.text
 2912              	.Letext0:
 2913              		.file 2 "/usr/lib/gcc/arm-none-eabi/12.2.1/include/stddef.h"
 2914              		.file 3 "/usr/lib/gcc/arm-none-eabi/12.2.1/include/stdint.h"
 2915              		.file 4 "Middlewares/Third_Party/FreeRTOS/Source/include/projdefs.h"
 2916              		.file 5 "Middlewares/Third_Party/FreeRTOS/Source/portable/GCC/ARM_CM4_MPU/portmacro.h"
 2917              		.file 6 "Middlewares/Third_Party/FreeRTOS/Source/include/FreeRTOS.h"
 2918              		.file 7 "Middlewares/Third_Party/FreeRTOS/Source/include/task.h"
 2919              		.file 8 "Middlewares/Third_Party/FreeRTOS/Source/include/queue.h"
 2920              		.file 9 "Middlewares/Third_Party/FreeRTOS/Source/include/event_groups.h"
 2921              		.file 10 "Middlewares/Third_Party/FreeRTOS/Source/include/stream_buffer.h"
ARM GAS  /tmp/ccpAxJaT.s 			page 78


DEFINED SYMBOLS
                            *ABS*:00000000 mpu_wrappers.c
     /tmp/ccpAxJaT.s:21     freertos_system_calls:00000000 $t
     /tmp/ccpAxJaT.s:27     freertos_system_calls:00000000 xPortRaisePrivilege
     /tmp/ccpAxJaT.s:63     .text.vPortResetPrivilege:00000000 $t
     /tmp/ccpAxJaT.s:69     .text.vPortResetPrivilege:00000000 vPortResetPrivilege
     /tmp/ccpAxJaT.s:102    freertos_system_calls:0000000e MPU_xTaskCreateStatic
     /tmp/ccpAxJaT.s:173    freertos_system_calls:0000004a MPU_xTaskCreateRestrictedStatic
     /tmp/ccpAxJaT.s:227    freertos_system_calls:0000006a MPU_vTaskAllocateMPURegions
     /tmp/ccpAxJaT.s:273    freertos_system_calls:00000086 MPU_vTaskDelete
     /tmp/ccpAxJaT.s:317    freertos_system_calls:0000009e MPU_vTaskDelay
     /tmp/ccpAxJaT.s:361    freertos_system_calls:000000b6 MPU_vTaskDelayUntil
     /tmp/ccpAxJaT.s:407    freertos_system_calls:000000d2 MPU_uxTaskPriorityGet
     /tmp/ccpAxJaT.s:459    freertos_system_calls:000000ee MPU_vTaskPrioritySet
     /tmp/ccpAxJaT.s:505    freertos_system_calls:0000010a MPU_vTaskSuspend
     /tmp/ccpAxJaT.s:549    freertos_system_calls:00000122 MPU_vTaskResume
     /tmp/ccpAxJaT.s:593    freertos_system_calls:0000013a MPU_vTaskSuspendAll
     /tmp/ccpAxJaT.s:628    freertos_system_calls:0000014e MPU_xTaskResumeAll
     /tmp/ccpAxJaT.s:674    freertos_system_calls:00000166 MPU_xTaskGetTickCount
     /tmp/ccpAxJaT.s:720    freertos_system_calls:0000017e MPU_uxTaskGetNumberOfTasks
     /tmp/ccpAxJaT.s:766    freertos_system_calls:00000196 MPU_pcTaskGetName
     /tmp/ccpAxJaT.s:818    freertos_system_calls:000001b2 MPU_xTaskGenericNotify
     /tmp/ccpAxJaT.s:878    freertos_system_calls:000001de MPU_xTaskNotifyWait
     /tmp/ccpAxJaT.s:938    freertos_system_calls:0000020a MPU_ulTaskNotifyTake
     /tmp/ccpAxJaT.s:992    freertos_system_calls:0000022a MPU_xTaskNotifyStateClear
     /tmp/ccpAxJaT.s:1044   freertos_system_calls:00000246 MPU_ulTaskNotifyValueClear
     /tmp/ccpAxJaT.s:1098   freertos_system_calls:00000266 MPU_vTaskSetTimeOutState
     /tmp/ccpAxJaT.s:1142   freertos_system_calls:0000027e MPU_xTaskCheckForTimeOut
     /tmp/ccpAxJaT.s:1196   freertos_system_calls:0000029e MPU_xTaskGetSchedulerState
     /tmp/ccpAxJaT.s:1242   freertos_system_calls:000002b6 MPU_xTaskCatchUpTicks
     /tmp/ccpAxJaT.s:1294   freertos_system_calls:000002d2 MPU_xQueueGenericSend
     /tmp/ccpAxJaT.s:1354   freertos_system_calls:000002fe MPU_xQueueReceive
     /tmp/ccpAxJaT.s:1412   freertos_system_calls:00000322 MPU_xQueuePeek
     /tmp/ccpAxJaT.s:1470   freertos_system_calls:00000346 MPU_xQueueSemaphoreTake
     /tmp/ccpAxJaT.s:1524   freertos_system_calls:00000366 MPU_uxQueueMessagesWaiting
     /tmp/ccpAxJaT.s:1576   freertos_system_calls:00000382 MPU_uxQueueSpacesAvailable
     /tmp/ccpAxJaT.s:1628   freertos_system_calls:0000039e MPU_vQueueDelete
     /tmp/ccpAxJaT.s:1672   freertos_system_calls:000003b6 MPU_xQueueCreateMutexStatic
     /tmp/ccpAxJaT.s:1726   freertos_system_calls:000003d6 MPU_vQueueAddToRegistry
     /tmp/ccpAxJaT.s:1772   freertos_system_calls:000003f2 MPU_vQueueUnregisterQueue
     /tmp/ccpAxJaT.s:1816   freertos_system_calls:0000040a MPU_pcQueueGetName
     /tmp/ccpAxJaT.s:1868   freertos_system_calls:00000426 MPU_xQueueGenericCreateStatic
     /tmp/ccpAxJaT.s:1935   freertos_system_calls:0000045c MPU_xQueueGenericReset
     /tmp/ccpAxJaT.s:1989   freertos_system_calls:0000047c MPU_xEventGroupCreateStatic
     /tmp/ccpAxJaT.s:2041   freertos_system_calls:00000498 MPU_xEventGroupWaitBits
     /tmp/ccpAxJaT.s:2108   freertos_system_calls:000004cc MPU_xEventGroupClearBits
     /tmp/ccpAxJaT.s:2162   freertos_system_calls:000004ec MPU_xEventGroupSetBits
     /tmp/ccpAxJaT.s:2216   freertos_system_calls:0000050c MPU_xEventGroupSync
     /tmp/ccpAxJaT.s:2276   freertos_system_calls:00000538 MPU_vEventGroupDelete
     /tmp/ccpAxJaT.s:2320   freertos_system_calls:00000550 MPU_xStreamBufferSend
     /tmp/ccpAxJaT.s:2380   freertos_system_calls:0000057c MPU_xStreamBufferReceive
     /tmp/ccpAxJaT.s:2440   freertos_system_calls:000005a8 MPU_xStreamBufferNextMessageLengthBytes
     /tmp/ccpAxJaT.s:2492   freertos_system_calls:000005c4 MPU_vStreamBufferDelete
     /tmp/ccpAxJaT.s:2536   freertos_system_calls:000005dc MPU_xStreamBufferIsFull
     /tmp/ccpAxJaT.s:2588   freertos_system_calls:000005f8 MPU_xStreamBufferIsEmpty
     /tmp/ccpAxJaT.s:2640   freertos_system_calls:00000614 MPU_xStreamBufferReset
     /tmp/ccpAxJaT.s:2692   freertos_system_calls:00000630 MPU_xStreamBufferSpacesAvailable
ARM GAS  /tmp/ccpAxJaT.s 			page 79


     /tmp/ccpAxJaT.s:2744   freertos_system_calls:0000064c MPU_xStreamBufferBytesAvailable
     /tmp/ccpAxJaT.s:2796   freertos_system_calls:00000668 MPU_xStreamBufferSetTriggerLevel
     /tmp/ccpAxJaT.s:2850   freertos_system_calls:00000688 MPU_xStreamBufferGenericCreateStatic

UNDEFINED SYMBOLS
xIsPrivileged
vResetPrivilege
xTaskCreateStatic
xTaskCreateRestrictedStatic
vTaskAllocateMPURegions
vTaskDelete
vTaskDelay
vTaskDelayUntil
uxTaskPriorityGet
vTaskPrioritySet
vTaskSuspend
vTaskResume
vTaskSuspendAll
xTaskResumeAll
xTaskGetTickCount
uxTaskGetNumberOfTasks
pcTaskGetName
xTaskGenericNotify
xTaskNotifyWait
ulTaskNotifyTake
xTaskNotifyStateClear
ulTaskNotifyValueClear
vTaskSetTimeOutState
xTaskCheckForTimeOut
xTaskGetSchedulerState
xTaskCatchUpTicks
xQueueGenericSend
xQueueReceive
xQueuePeek
xQueueSemaphoreTake
uxQueueMessagesWaiting
uxQueueSpacesAvailable
vQueueDelete
xQueueCreateMutexStatic
vQueueAddToRegistry
vQueueUnregisterQueue
pcQueueGetName
xQueueGenericCreateStatic
xQueueGenericReset
xEventGroupCreateStatic
xEventGroupWaitBits
xEventGroupClearBits
xEventGroupSetBits
xEventGroupSync
vEventGroupDelete
xStreamBufferSend
xStreamBufferReceive
xStreamBufferNextMessageLengthBytes
vStreamBufferDelete
xStreamBufferIsFull
xStreamBufferIsEmpty
xStreamBufferReset
ARM GAS  /tmp/ccpAxJaT.s 			page 80


xStreamBufferSpacesAvailable
xStreamBufferBytesAvailable
xStreamBufferSetTriggerLevel
xStreamBufferGenericCreateStatic
