ARM GAS  /tmp/ccb11GdC.s 			page 1


   1              		.cpu cortex-m4
   2              		.arch armv7e-m
   3              		.fpu fpv4-sp-d16
   4              		.eabi_attribute 27, 1
   5              		.eabi_attribute 28, 1
   6              		.eabi_attribute 20, 1
   7              		.eabi_attribute 21, 1
   8              		.eabi_attribute 23, 3
   9              		.eabi_attribute 24, 1
  10              		.eabi_attribute 25, 1
  11              		.eabi_attribute 26, 1
  12              		.eabi_attribute 30, 1
  13              		.eabi_attribute 34, 1
  14              		.eabi_attribute 18, 4
  15              		.file	"port.c"
  16              		.text
  17              	.Ltext0:
  18              		.cfi_sections	.debug_frame
  19              		.file 1 "Middlewares/Third_Party/FreeRTOS/Source/portable/GCC/ARM_CM4_MPU/port.c"
  20              		.section	privileged_functions,"ax",%progbits
  21              		.align	1
  22              		.syntax unified
  23              		.thumb
  24              		.thumb_func
  26              	prvGetMPURegionSizeSetting:
  27              	.LVL0:
  28              	.LFB18:
   1:Middlewares/Third_Party/FreeRTOS/Source/portable/GCC/ARM_CM4_MPU/port.c **** /*
   2:Middlewares/Third_Party/FreeRTOS/Source/portable/GCC/ARM_CM4_MPU/port.c ****  * FreeRTOS Kernel V10.3.1
   3:Middlewares/Third_Party/FreeRTOS/Source/portable/GCC/ARM_CM4_MPU/port.c ****  * Copyright (C) 2020 Amazon.com, Inc. or its affiliates.  All Rights Reserved.
   4:Middlewares/Third_Party/FreeRTOS/Source/portable/GCC/ARM_CM4_MPU/port.c ****  *
   5:Middlewares/Third_Party/FreeRTOS/Source/portable/GCC/ARM_CM4_MPU/port.c ****  * Permission is hereby granted, free of charge, to any person obtaining a copy of
   6:Middlewares/Third_Party/FreeRTOS/Source/portable/GCC/ARM_CM4_MPU/port.c ****  * this software and associated documentation files (the "Software"), to deal in
   7:Middlewares/Third_Party/FreeRTOS/Source/portable/GCC/ARM_CM4_MPU/port.c ****  * the Software without restriction, including without limitation the rights to
   8:Middlewares/Third_Party/FreeRTOS/Source/portable/GCC/ARM_CM4_MPU/port.c ****  * use, copy, modify, merge, publish, distribute, sublicense, and/or sell copies of
   9:Middlewares/Third_Party/FreeRTOS/Source/portable/GCC/ARM_CM4_MPU/port.c ****  * the Software, and to permit persons to whom the Software is furnished to do so,
  10:Middlewares/Third_Party/FreeRTOS/Source/portable/GCC/ARM_CM4_MPU/port.c ****  * subject to the following conditions:
  11:Middlewares/Third_Party/FreeRTOS/Source/portable/GCC/ARM_CM4_MPU/port.c ****  *
  12:Middlewares/Third_Party/FreeRTOS/Source/portable/GCC/ARM_CM4_MPU/port.c ****  * The above copyright notice and this permission notice shall be included in all
  13:Middlewares/Third_Party/FreeRTOS/Source/portable/GCC/ARM_CM4_MPU/port.c ****  * copies or substantial portions of the Software.
  14:Middlewares/Third_Party/FreeRTOS/Source/portable/GCC/ARM_CM4_MPU/port.c ****  *
  15:Middlewares/Third_Party/FreeRTOS/Source/portable/GCC/ARM_CM4_MPU/port.c ****  * THE SOFTWARE IS PROVIDED "AS IS", WITHOUT WARRANTY OF ANY KIND, EXPRESS OR
  16:Middlewares/Third_Party/FreeRTOS/Source/portable/GCC/ARM_CM4_MPU/port.c ****  * IMPLIED, INCLUDING BUT NOT LIMITED TO THE WARRANTIES OF MERCHANTABILITY, FITNESS
  17:Middlewares/Third_Party/FreeRTOS/Source/portable/GCC/ARM_CM4_MPU/port.c ****  * FOR A PARTICULAR PURPOSE AND NONINFRINGEMENT. IN NO EVENT SHALL THE AUTHORS OR
  18:Middlewares/Third_Party/FreeRTOS/Source/portable/GCC/ARM_CM4_MPU/port.c ****  * COPYRIGHT HOLDERS BE LIABLE FOR ANY CLAIM, DAMAGES OR OTHER LIABILITY, WHETHER
  19:Middlewares/Third_Party/FreeRTOS/Source/portable/GCC/ARM_CM4_MPU/port.c ****  * IN AN ACTION OF CONTRACT, TORT OR OTHERWISE, ARISING FROM, OUT OF OR IN
  20:Middlewares/Third_Party/FreeRTOS/Source/portable/GCC/ARM_CM4_MPU/port.c ****  * CONNECTION WITH THE SOFTWARE OR THE USE OR OTHER DEALINGS IN THE SOFTWARE.
  21:Middlewares/Third_Party/FreeRTOS/Source/portable/GCC/ARM_CM4_MPU/port.c ****  *
  22:Middlewares/Third_Party/FreeRTOS/Source/portable/GCC/ARM_CM4_MPU/port.c ****  * http://www.FreeRTOS.org
  23:Middlewares/Third_Party/FreeRTOS/Source/portable/GCC/ARM_CM4_MPU/port.c ****  * http://aws.amazon.com/freertos
  24:Middlewares/Third_Party/FreeRTOS/Source/portable/GCC/ARM_CM4_MPU/port.c ****  *
  25:Middlewares/Third_Party/FreeRTOS/Source/portable/GCC/ARM_CM4_MPU/port.c ****  * 1 tab == 4 spaces!
  26:Middlewares/Third_Party/FreeRTOS/Source/portable/GCC/ARM_CM4_MPU/port.c ****  */
  27:Middlewares/Third_Party/FreeRTOS/Source/portable/GCC/ARM_CM4_MPU/port.c **** 
  28:Middlewares/Third_Party/FreeRTOS/Source/portable/GCC/ARM_CM4_MPU/port.c **** /*-----------------------------------------------------------
  29:Middlewares/Third_Party/FreeRTOS/Source/portable/GCC/ARM_CM4_MPU/port.c ****  * Implementation of functions defined in portable.h for the ARM CM3 port.
  30:Middlewares/Third_Party/FreeRTOS/Source/portable/GCC/ARM_CM4_MPU/port.c ****  *----------------------------------------------------------*/
ARM GAS  /tmp/ccb11GdC.s 			page 2


  31:Middlewares/Third_Party/FreeRTOS/Source/portable/GCC/ARM_CM4_MPU/port.c **** 
  32:Middlewares/Third_Party/FreeRTOS/Source/portable/GCC/ARM_CM4_MPU/port.c **** /* Defining MPU_WRAPPERS_INCLUDED_FROM_API_FILE prevents task.h from redefining
  33:Middlewares/Third_Party/FreeRTOS/Source/portable/GCC/ARM_CM4_MPU/port.c **** all the API functions to use the MPU wrappers.  That should only be done when
  34:Middlewares/Third_Party/FreeRTOS/Source/portable/GCC/ARM_CM4_MPU/port.c **** task.h is included from an application file. */
  35:Middlewares/Third_Party/FreeRTOS/Source/portable/GCC/ARM_CM4_MPU/port.c **** #define MPU_WRAPPERS_INCLUDED_FROM_API_FILE
  36:Middlewares/Third_Party/FreeRTOS/Source/portable/GCC/ARM_CM4_MPU/port.c **** 
  37:Middlewares/Third_Party/FreeRTOS/Source/portable/GCC/ARM_CM4_MPU/port.c **** /* Scheduler includes. */
  38:Middlewares/Third_Party/FreeRTOS/Source/portable/GCC/ARM_CM4_MPU/port.c **** #include "FreeRTOS.h"
  39:Middlewares/Third_Party/FreeRTOS/Source/portable/GCC/ARM_CM4_MPU/port.c **** #include "task.h"
  40:Middlewares/Third_Party/FreeRTOS/Source/portable/GCC/ARM_CM4_MPU/port.c **** 
  41:Middlewares/Third_Party/FreeRTOS/Source/portable/GCC/ARM_CM4_MPU/port.c **** #ifndef __VFP_FP__
  42:Middlewares/Third_Party/FreeRTOS/Source/portable/GCC/ARM_CM4_MPU/port.c **** 	#error This port can only be used when the project options are configured to enable hardware float
  43:Middlewares/Third_Party/FreeRTOS/Source/portable/GCC/ARM_CM4_MPU/port.c **** #endif
  44:Middlewares/Third_Party/FreeRTOS/Source/portable/GCC/ARM_CM4_MPU/port.c **** 
  45:Middlewares/Third_Party/FreeRTOS/Source/portable/GCC/ARM_CM4_MPU/port.c **** #undef MPU_WRAPPERS_INCLUDED_FROM_API_FILE
  46:Middlewares/Third_Party/FreeRTOS/Source/portable/GCC/ARM_CM4_MPU/port.c **** 
  47:Middlewares/Third_Party/FreeRTOS/Source/portable/GCC/ARM_CM4_MPU/port.c **** #ifndef configSYSTICK_CLOCK_HZ
  48:Middlewares/Third_Party/FreeRTOS/Source/portable/GCC/ARM_CM4_MPU/port.c **** 	#define configSYSTICK_CLOCK_HZ configCPU_CLOCK_HZ
  49:Middlewares/Third_Party/FreeRTOS/Source/portable/GCC/ARM_CM4_MPU/port.c **** 	/* Ensure the SysTick is clocked at the same frequency as the core. */
  50:Middlewares/Third_Party/FreeRTOS/Source/portable/GCC/ARM_CM4_MPU/port.c **** 	#define portNVIC_SYSTICK_CLK	( 1UL << 2UL )
  51:Middlewares/Third_Party/FreeRTOS/Source/portable/GCC/ARM_CM4_MPU/port.c **** #else
  52:Middlewares/Third_Party/FreeRTOS/Source/portable/GCC/ARM_CM4_MPU/port.c **** 	/* The way the SysTick is clocked is not modified in case it is not the same
  53:Middlewares/Third_Party/FreeRTOS/Source/portable/GCC/ARM_CM4_MPU/port.c **** 	as the core. */
  54:Middlewares/Third_Party/FreeRTOS/Source/portable/GCC/ARM_CM4_MPU/port.c **** 	#define portNVIC_SYSTICK_CLK	( 0 )
  55:Middlewares/Third_Party/FreeRTOS/Source/portable/GCC/ARM_CM4_MPU/port.c **** #endif
  56:Middlewares/Third_Party/FreeRTOS/Source/portable/GCC/ARM_CM4_MPU/port.c **** 
  57:Middlewares/Third_Party/FreeRTOS/Source/portable/GCC/ARM_CM4_MPU/port.c **** /* Constants required to access and manipulate the NVIC. */
  58:Middlewares/Third_Party/FreeRTOS/Source/portable/GCC/ARM_CM4_MPU/port.c **** #define portNVIC_SYSTICK_CTRL_REG				( * ( ( volatile uint32_t * ) 0xe000e010 ) )
  59:Middlewares/Third_Party/FreeRTOS/Source/portable/GCC/ARM_CM4_MPU/port.c **** #define portNVIC_SYSTICK_LOAD_REG				( * ( ( volatile uint32_t * ) 0xe000e014 ) )
  60:Middlewares/Third_Party/FreeRTOS/Source/portable/GCC/ARM_CM4_MPU/port.c **** #define portNVIC_SYSTICK_CURRENT_VALUE_REG		( * ( ( volatile uint32_t * ) 0xe000e018 ) )
  61:Middlewares/Third_Party/FreeRTOS/Source/portable/GCC/ARM_CM4_MPU/port.c **** #define portNVIC_SYSPRI2_REG					( *	( ( volatile uint32_t * ) 0xe000ed20 ) )
  62:Middlewares/Third_Party/FreeRTOS/Source/portable/GCC/ARM_CM4_MPU/port.c **** #define portNVIC_SYSPRI1_REG					( * ( ( volatile uint32_t * ) 0xe000ed1c ) )
  63:Middlewares/Third_Party/FreeRTOS/Source/portable/GCC/ARM_CM4_MPU/port.c **** #define portNVIC_SYS_CTRL_STATE_REG				( * ( ( volatile uint32_t * ) 0xe000ed24 ) )
  64:Middlewares/Third_Party/FreeRTOS/Source/portable/GCC/ARM_CM4_MPU/port.c **** #define portNVIC_MEM_FAULT_ENABLE				( 1UL << 16UL )
  65:Middlewares/Third_Party/FreeRTOS/Source/portable/GCC/ARM_CM4_MPU/port.c **** 
  66:Middlewares/Third_Party/FreeRTOS/Source/portable/GCC/ARM_CM4_MPU/port.c **** /* Constants required to access and manipulate the MPU. */
  67:Middlewares/Third_Party/FreeRTOS/Source/portable/GCC/ARM_CM4_MPU/port.c **** #define portMPU_TYPE_REG						( * ( ( volatile uint32_t * ) 0xe000ed90 ) )
  68:Middlewares/Third_Party/FreeRTOS/Source/portable/GCC/ARM_CM4_MPU/port.c **** #define portMPU_REGION_BASE_ADDRESS_REG			( * ( ( volatile uint32_t * ) 0xe000ed9C ) )
  69:Middlewares/Third_Party/FreeRTOS/Source/portable/GCC/ARM_CM4_MPU/port.c **** #define portMPU_REGION_ATTRIBUTE_REG			( * ( ( volatile uint32_t * ) 0xe000edA0 ) )
  70:Middlewares/Third_Party/FreeRTOS/Source/portable/GCC/ARM_CM4_MPU/port.c **** #define portMPU_CTRL_REG						( * ( ( volatile uint32_t * ) 0xe000ed94 ) )
  71:Middlewares/Third_Party/FreeRTOS/Source/portable/GCC/ARM_CM4_MPU/port.c **** #define portEXPECTED_MPU_TYPE_VALUE				( 8UL << 8UL ) /* 8 regions, unified. */
  72:Middlewares/Third_Party/FreeRTOS/Source/portable/GCC/ARM_CM4_MPU/port.c **** #define portMPU_ENABLE							( 0x01UL )
  73:Middlewares/Third_Party/FreeRTOS/Source/portable/GCC/ARM_CM4_MPU/port.c **** #define portMPU_BACKGROUND_ENABLE				( 1UL << 2UL )
  74:Middlewares/Third_Party/FreeRTOS/Source/portable/GCC/ARM_CM4_MPU/port.c **** #define portPRIVILEGED_EXECUTION_START_ADDRESS	( 0UL )
  75:Middlewares/Third_Party/FreeRTOS/Source/portable/GCC/ARM_CM4_MPU/port.c **** #define portMPU_REGION_VALID					( 0x10UL )
  76:Middlewares/Third_Party/FreeRTOS/Source/portable/GCC/ARM_CM4_MPU/port.c **** #define portMPU_REGION_ENABLE					( 0x01UL )
  77:Middlewares/Third_Party/FreeRTOS/Source/portable/GCC/ARM_CM4_MPU/port.c **** #define portPERIPHERALS_START_ADDRESS			0x40000000UL
  78:Middlewares/Third_Party/FreeRTOS/Source/portable/GCC/ARM_CM4_MPU/port.c **** #define portPERIPHERALS_END_ADDRESS				0x5FFFFFFFUL
  79:Middlewares/Third_Party/FreeRTOS/Source/portable/GCC/ARM_CM4_MPU/port.c **** 
  80:Middlewares/Third_Party/FreeRTOS/Source/portable/GCC/ARM_CM4_MPU/port.c **** /* Constants required to access and manipulate the SysTick. */
  81:Middlewares/Third_Party/FreeRTOS/Source/portable/GCC/ARM_CM4_MPU/port.c **** #define portNVIC_SYSTICK_INT					( 0x00000002UL )
  82:Middlewares/Third_Party/FreeRTOS/Source/portable/GCC/ARM_CM4_MPU/port.c **** #define portNVIC_SYSTICK_ENABLE					( 0x00000001UL )
  83:Middlewares/Third_Party/FreeRTOS/Source/portable/GCC/ARM_CM4_MPU/port.c **** #define portNVIC_PENDSV_PRI						( ( ( uint32_t ) configKERNEL_INTERRUPT_PRIORITY ) << 16UL )
  84:Middlewares/Third_Party/FreeRTOS/Source/portable/GCC/ARM_CM4_MPU/port.c **** #define portNVIC_SYSTICK_PRI					( ( ( uint32_t ) configKERNEL_INTERRUPT_PRIORITY ) << 24UL )
  85:Middlewares/Third_Party/FreeRTOS/Source/portable/GCC/ARM_CM4_MPU/port.c **** #define portNVIC_SVC_PRI						( ( ( uint32_t ) configMAX_SYSCALL_INTERRUPT_PRIORITY - 1UL ) << 24UL
  86:Middlewares/Third_Party/FreeRTOS/Source/portable/GCC/ARM_CM4_MPU/port.c **** 
  87:Middlewares/Third_Party/FreeRTOS/Source/portable/GCC/ARM_CM4_MPU/port.c **** /* Constants required to manipulate the VFP. */
ARM GAS  /tmp/ccb11GdC.s 			page 3


  88:Middlewares/Third_Party/FreeRTOS/Source/portable/GCC/ARM_CM4_MPU/port.c **** #define portFPCCR								( ( volatile uint32_t * ) 0xe000ef34UL ) /* Floating point context control
  89:Middlewares/Third_Party/FreeRTOS/Source/portable/GCC/ARM_CM4_MPU/port.c **** #define portASPEN_AND_LSPEN_BITS				( 0x3UL << 30UL )
  90:Middlewares/Third_Party/FreeRTOS/Source/portable/GCC/ARM_CM4_MPU/port.c **** 
  91:Middlewares/Third_Party/FreeRTOS/Source/portable/GCC/ARM_CM4_MPU/port.c **** /* Constants required to set up the initial stack. */
  92:Middlewares/Third_Party/FreeRTOS/Source/portable/GCC/ARM_CM4_MPU/port.c **** #define portINITIAL_XPSR						( 0x01000000UL )
  93:Middlewares/Third_Party/FreeRTOS/Source/portable/GCC/ARM_CM4_MPU/port.c **** #define portINITIAL_EXC_RETURN					( 0xfffffffdUL )
  94:Middlewares/Third_Party/FreeRTOS/Source/portable/GCC/ARM_CM4_MPU/port.c **** #define portINITIAL_CONTROL_IF_UNPRIVILEGED		( 0x03 )
  95:Middlewares/Third_Party/FreeRTOS/Source/portable/GCC/ARM_CM4_MPU/port.c **** #define portINITIAL_CONTROL_IF_PRIVILEGED		( 0x02 )
  96:Middlewares/Third_Party/FreeRTOS/Source/portable/GCC/ARM_CM4_MPU/port.c **** 
  97:Middlewares/Third_Party/FreeRTOS/Source/portable/GCC/ARM_CM4_MPU/port.c **** /* Constants required to check the validity of an interrupt priority. */
  98:Middlewares/Third_Party/FreeRTOS/Source/portable/GCC/ARM_CM4_MPU/port.c **** #define portFIRST_USER_INTERRUPT_NUMBER		( 16 )
  99:Middlewares/Third_Party/FreeRTOS/Source/portable/GCC/ARM_CM4_MPU/port.c **** #define portNVIC_IP_REGISTERS_OFFSET_16 	( 0xE000E3F0 )
 100:Middlewares/Third_Party/FreeRTOS/Source/portable/GCC/ARM_CM4_MPU/port.c **** #define portAIRCR_REG						( * ( ( volatile uint32_t * ) 0xE000ED0C ) )
 101:Middlewares/Third_Party/FreeRTOS/Source/portable/GCC/ARM_CM4_MPU/port.c **** #define portMAX_8_BIT_VALUE					( ( uint8_t ) 0xff )
 102:Middlewares/Third_Party/FreeRTOS/Source/portable/GCC/ARM_CM4_MPU/port.c **** #define portTOP_BIT_OF_BYTE					( ( uint8_t ) 0x80 )
 103:Middlewares/Third_Party/FreeRTOS/Source/portable/GCC/ARM_CM4_MPU/port.c **** #define portMAX_PRIGROUP_BITS				( ( uint8_t ) 7 )
 104:Middlewares/Third_Party/FreeRTOS/Source/portable/GCC/ARM_CM4_MPU/port.c **** #define portPRIORITY_GROUP_MASK				( 0x07UL << 8UL )
 105:Middlewares/Third_Party/FreeRTOS/Source/portable/GCC/ARM_CM4_MPU/port.c **** #define portPRIGROUP_SHIFT					( 8UL )
 106:Middlewares/Third_Party/FreeRTOS/Source/portable/GCC/ARM_CM4_MPU/port.c **** 
 107:Middlewares/Third_Party/FreeRTOS/Source/portable/GCC/ARM_CM4_MPU/port.c **** /* Offsets in the stack to the parameters when inside the SVC handler. */
 108:Middlewares/Third_Party/FreeRTOS/Source/portable/GCC/ARM_CM4_MPU/port.c **** #define portOFFSET_TO_PC						( 6 )
 109:Middlewares/Third_Party/FreeRTOS/Source/portable/GCC/ARM_CM4_MPU/port.c **** 
 110:Middlewares/Third_Party/FreeRTOS/Source/portable/GCC/ARM_CM4_MPU/port.c **** /* For strict compliance with the Cortex-M spec the task start address should
 111:Middlewares/Third_Party/FreeRTOS/Source/portable/GCC/ARM_CM4_MPU/port.c **** have bit-0 clear, as it is loaded into the PC on exit from an ISR. */
 112:Middlewares/Third_Party/FreeRTOS/Source/portable/GCC/ARM_CM4_MPU/port.c **** #define portSTART_ADDRESS_MASK				( ( StackType_t ) 0xfffffffeUL )
 113:Middlewares/Third_Party/FreeRTOS/Source/portable/GCC/ARM_CM4_MPU/port.c **** 
 114:Middlewares/Third_Party/FreeRTOS/Source/portable/GCC/ARM_CM4_MPU/port.c **** /*
 115:Middlewares/Third_Party/FreeRTOS/Source/portable/GCC/ARM_CM4_MPU/port.c ****  * Configure a number of standard MPU regions that are used by all tasks.
 116:Middlewares/Third_Party/FreeRTOS/Source/portable/GCC/ARM_CM4_MPU/port.c ****  */
 117:Middlewares/Third_Party/FreeRTOS/Source/portable/GCC/ARM_CM4_MPU/port.c **** static void prvSetupMPU( void ) PRIVILEGED_FUNCTION;
 118:Middlewares/Third_Party/FreeRTOS/Source/portable/GCC/ARM_CM4_MPU/port.c **** 
 119:Middlewares/Third_Party/FreeRTOS/Source/portable/GCC/ARM_CM4_MPU/port.c **** /*
 120:Middlewares/Third_Party/FreeRTOS/Source/portable/GCC/ARM_CM4_MPU/port.c ****  * Return the smallest MPU region size that a given number of bytes will fit
 121:Middlewares/Third_Party/FreeRTOS/Source/portable/GCC/ARM_CM4_MPU/port.c ****  * into.  The region size is returned as the value that should be programmed
 122:Middlewares/Third_Party/FreeRTOS/Source/portable/GCC/ARM_CM4_MPU/port.c ****  * into the region attribute register for that region.
 123:Middlewares/Third_Party/FreeRTOS/Source/portable/GCC/ARM_CM4_MPU/port.c ****  */
 124:Middlewares/Third_Party/FreeRTOS/Source/portable/GCC/ARM_CM4_MPU/port.c **** static uint32_t prvGetMPURegionSizeSetting( uint32_t ulActualSizeInBytes ) PRIVILEGED_FUNCTION;
 125:Middlewares/Third_Party/FreeRTOS/Source/portable/GCC/ARM_CM4_MPU/port.c **** 
 126:Middlewares/Third_Party/FreeRTOS/Source/portable/GCC/ARM_CM4_MPU/port.c **** /*
 127:Middlewares/Third_Party/FreeRTOS/Source/portable/GCC/ARM_CM4_MPU/port.c ****  * Setup the timer to generate the tick interrupts.  The implementation in this
 128:Middlewares/Third_Party/FreeRTOS/Source/portable/GCC/ARM_CM4_MPU/port.c ****  * file is weak to allow application writers to change the timer used to
 129:Middlewares/Third_Party/FreeRTOS/Source/portable/GCC/ARM_CM4_MPU/port.c ****  * generate the tick interrupt.
 130:Middlewares/Third_Party/FreeRTOS/Source/portable/GCC/ARM_CM4_MPU/port.c ****  */
 131:Middlewares/Third_Party/FreeRTOS/Source/portable/GCC/ARM_CM4_MPU/port.c **** void vPortSetupTimerInterrupt( void );
 132:Middlewares/Third_Party/FreeRTOS/Source/portable/GCC/ARM_CM4_MPU/port.c **** 
 133:Middlewares/Third_Party/FreeRTOS/Source/portable/GCC/ARM_CM4_MPU/port.c **** /*
 134:Middlewares/Third_Party/FreeRTOS/Source/portable/GCC/ARM_CM4_MPU/port.c ****  * Standard FreeRTOS exception handlers.
 135:Middlewares/Third_Party/FreeRTOS/Source/portable/GCC/ARM_CM4_MPU/port.c ****  */
 136:Middlewares/Third_Party/FreeRTOS/Source/portable/GCC/ARM_CM4_MPU/port.c **** void xPortPendSVHandler( void ) __attribute__ (( naked )) PRIVILEGED_FUNCTION;
 137:Middlewares/Third_Party/FreeRTOS/Source/portable/GCC/ARM_CM4_MPU/port.c **** void xPortSysTickHandler( void ) PRIVILEGED_FUNCTION;
 138:Middlewares/Third_Party/FreeRTOS/Source/portable/GCC/ARM_CM4_MPU/port.c **** void vPortSVCHandler( void ) __attribute__ (( naked )) PRIVILEGED_FUNCTION;
 139:Middlewares/Third_Party/FreeRTOS/Source/portable/GCC/ARM_CM4_MPU/port.c **** 
 140:Middlewares/Third_Party/FreeRTOS/Source/portable/GCC/ARM_CM4_MPU/port.c **** /*
 141:Middlewares/Third_Party/FreeRTOS/Source/portable/GCC/ARM_CM4_MPU/port.c ****  * Starts the scheduler by restoring the context of the first task to run.
 142:Middlewares/Third_Party/FreeRTOS/Source/portable/GCC/ARM_CM4_MPU/port.c ****  */
 143:Middlewares/Third_Party/FreeRTOS/Source/portable/GCC/ARM_CM4_MPU/port.c **** static void prvRestoreContextOfFirstTask( void ) __attribute__(( naked )) PRIVILEGED_FUNCTION;
 144:Middlewares/Third_Party/FreeRTOS/Source/portable/GCC/ARM_CM4_MPU/port.c **** 
ARM GAS  /tmp/ccb11GdC.s 			page 4


 145:Middlewares/Third_Party/FreeRTOS/Source/portable/GCC/ARM_CM4_MPU/port.c **** /*
 146:Middlewares/Third_Party/FreeRTOS/Source/portable/GCC/ARM_CM4_MPU/port.c ****  * C portion of the SVC handler.  The SVC handler is split between an asm entry
 147:Middlewares/Third_Party/FreeRTOS/Source/portable/GCC/ARM_CM4_MPU/port.c ****  * and a C wrapper for simplicity of coding and maintenance.
 148:Middlewares/Third_Party/FreeRTOS/Source/portable/GCC/ARM_CM4_MPU/port.c ****  */
 149:Middlewares/Third_Party/FreeRTOS/Source/portable/GCC/ARM_CM4_MPU/port.c **** static void prvSVCHandler( uint32_t *pulRegisters ) __attribute__(( noinline )) PRIVILEGED_FUNCTION
 150:Middlewares/Third_Party/FreeRTOS/Source/portable/GCC/ARM_CM4_MPU/port.c **** 
 151:Middlewares/Third_Party/FreeRTOS/Source/portable/GCC/ARM_CM4_MPU/port.c **** /*
 152:Middlewares/Third_Party/FreeRTOS/Source/portable/GCC/ARM_CM4_MPU/port.c ****  * Function to enable the VFP.
 153:Middlewares/Third_Party/FreeRTOS/Source/portable/GCC/ARM_CM4_MPU/port.c ****  */
 154:Middlewares/Third_Party/FreeRTOS/Source/portable/GCC/ARM_CM4_MPU/port.c ****  static void vPortEnableVFP( void ) __attribute__ (( naked ));
 155:Middlewares/Third_Party/FreeRTOS/Source/portable/GCC/ARM_CM4_MPU/port.c **** 
 156:Middlewares/Third_Party/FreeRTOS/Source/portable/GCC/ARM_CM4_MPU/port.c **** /**
 157:Middlewares/Third_Party/FreeRTOS/Source/portable/GCC/ARM_CM4_MPU/port.c ****  * @brief Checks whether or not the processor is privileged.
 158:Middlewares/Third_Party/FreeRTOS/Source/portable/GCC/ARM_CM4_MPU/port.c ****  *
 159:Middlewares/Third_Party/FreeRTOS/Source/portable/GCC/ARM_CM4_MPU/port.c ****  * @return 1 if the processor is already privileged, 0 otherwise.
 160:Middlewares/Third_Party/FreeRTOS/Source/portable/GCC/ARM_CM4_MPU/port.c ****  */
 161:Middlewares/Third_Party/FreeRTOS/Source/portable/GCC/ARM_CM4_MPU/port.c **** BaseType_t xIsPrivileged( void ) __attribute__ (( naked ));
 162:Middlewares/Third_Party/FreeRTOS/Source/portable/GCC/ARM_CM4_MPU/port.c **** 
 163:Middlewares/Third_Party/FreeRTOS/Source/portable/GCC/ARM_CM4_MPU/port.c **** /**
 164:Middlewares/Third_Party/FreeRTOS/Source/portable/GCC/ARM_CM4_MPU/port.c ****  * @brief Lowers the privilege level by setting the bit 0 of the CONTROL
 165:Middlewares/Third_Party/FreeRTOS/Source/portable/GCC/ARM_CM4_MPU/port.c ****  * register.
 166:Middlewares/Third_Party/FreeRTOS/Source/portable/GCC/ARM_CM4_MPU/port.c ****  *
 167:Middlewares/Third_Party/FreeRTOS/Source/portable/GCC/ARM_CM4_MPU/port.c ****  * Bit 0 of the CONTROL register defines the privilege level of Thread Mode.
 168:Middlewares/Third_Party/FreeRTOS/Source/portable/GCC/ARM_CM4_MPU/port.c ****  *  Bit[0] = 0 --> The processor is running privileged
 169:Middlewares/Third_Party/FreeRTOS/Source/portable/GCC/ARM_CM4_MPU/port.c ****  *  Bit[0] = 1 --> The processor is running unprivileged.
 170:Middlewares/Third_Party/FreeRTOS/Source/portable/GCC/ARM_CM4_MPU/port.c ****  */
 171:Middlewares/Third_Party/FreeRTOS/Source/portable/GCC/ARM_CM4_MPU/port.c **** void vResetPrivilege( void ) __attribute__ (( naked ));
 172:Middlewares/Third_Party/FreeRTOS/Source/portable/GCC/ARM_CM4_MPU/port.c **** 
 173:Middlewares/Third_Party/FreeRTOS/Source/portable/GCC/ARM_CM4_MPU/port.c **** /**
 174:Middlewares/Third_Party/FreeRTOS/Source/portable/GCC/ARM_CM4_MPU/port.c ****  * @brief Calls the port specific code to raise the privilege.
 175:Middlewares/Third_Party/FreeRTOS/Source/portable/GCC/ARM_CM4_MPU/port.c ****  *
 176:Middlewares/Third_Party/FreeRTOS/Source/portable/GCC/ARM_CM4_MPU/port.c ****  * @return pdFALSE if privilege was raised, pdTRUE otherwise.
 177:Middlewares/Third_Party/FreeRTOS/Source/portable/GCC/ARM_CM4_MPU/port.c ****  */
 178:Middlewares/Third_Party/FreeRTOS/Source/portable/GCC/ARM_CM4_MPU/port.c **** extern BaseType_t xPortRaisePrivilege( void );
 179:Middlewares/Third_Party/FreeRTOS/Source/portable/GCC/ARM_CM4_MPU/port.c **** 
 180:Middlewares/Third_Party/FreeRTOS/Source/portable/GCC/ARM_CM4_MPU/port.c **** /**
 181:Middlewares/Third_Party/FreeRTOS/Source/portable/GCC/ARM_CM4_MPU/port.c ****  * @brief If xRunningPrivileged is not pdTRUE, calls the port specific
 182:Middlewares/Third_Party/FreeRTOS/Source/portable/GCC/ARM_CM4_MPU/port.c ****  * code to reset the privilege, otherwise does nothing.
 183:Middlewares/Third_Party/FreeRTOS/Source/portable/GCC/ARM_CM4_MPU/port.c ****  */
 184:Middlewares/Third_Party/FreeRTOS/Source/portable/GCC/ARM_CM4_MPU/port.c **** extern void vPortResetPrivilege( BaseType_t xRunningPrivileged );
 185:Middlewares/Third_Party/FreeRTOS/Source/portable/GCC/ARM_CM4_MPU/port.c **** /*-----------------------------------------------------------*/
 186:Middlewares/Third_Party/FreeRTOS/Source/portable/GCC/ARM_CM4_MPU/port.c **** 
 187:Middlewares/Third_Party/FreeRTOS/Source/portable/GCC/ARM_CM4_MPU/port.c **** /* Each task maintains its own interrupt status in the critical nesting
 188:Middlewares/Third_Party/FreeRTOS/Source/portable/GCC/ARM_CM4_MPU/port.c **** variable.  Note this is not saved as part of the task context as context
 189:Middlewares/Third_Party/FreeRTOS/Source/portable/GCC/ARM_CM4_MPU/port.c **** switches can only occur when uxCriticalNesting is zero. */
 190:Middlewares/Third_Party/FreeRTOS/Source/portable/GCC/ARM_CM4_MPU/port.c **** static UBaseType_t uxCriticalNesting = 0xaaaaaaaa;
 191:Middlewares/Third_Party/FreeRTOS/Source/portable/GCC/ARM_CM4_MPU/port.c **** 
 192:Middlewares/Third_Party/FreeRTOS/Source/portable/GCC/ARM_CM4_MPU/port.c **** /*
 193:Middlewares/Third_Party/FreeRTOS/Source/portable/GCC/ARM_CM4_MPU/port.c ****  * Used by the portASSERT_IF_INTERRUPT_PRIORITY_INVALID() macro to ensure
 194:Middlewares/Third_Party/FreeRTOS/Source/portable/GCC/ARM_CM4_MPU/port.c ****  * FreeRTOS API functions are not called from interrupts that have been assigned
 195:Middlewares/Third_Party/FreeRTOS/Source/portable/GCC/ARM_CM4_MPU/port.c ****  * a priority above configMAX_SYSCALL_INTERRUPT_PRIORITY.
 196:Middlewares/Third_Party/FreeRTOS/Source/portable/GCC/ARM_CM4_MPU/port.c ****  */
 197:Middlewares/Third_Party/FreeRTOS/Source/portable/GCC/ARM_CM4_MPU/port.c **** #if ( configASSERT_DEFINED == 1 )
 198:Middlewares/Third_Party/FreeRTOS/Source/portable/GCC/ARM_CM4_MPU/port.c **** 	 static uint8_t ucMaxSysCallPriority = 0;
 199:Middlewares/Third_Party/FreeRTOS/Source/portable/GCC/ARM_CM4_MPU/port.c **** 	 static uint32_t ulMaxPRIGROUPValue = 0;
 200:Middlewares/Third_Party/FreeRTOS/Source/portable/GCC/ARM_CM4_MPU/port.c **** 	 static const volatile uint8_t * const pcInterruptPriorityRegisters = ( const volatile uint8_t * c
 201:Middlewares/Third_Party/FreeRTOS/Source/portable/GCC/ARM_CM4_MPU/port.c **** #endif /* configASSERT_DEFINED */
ARM GAS  /tmp/ccb11GdC.s 			page 5


 202:Middlewares/Third_Party/FreeRTOS/Source/portable/GCC/ARM_CM4_MPU/port.c **** 
 203:Middlewares/Third_Party/FreeRTOS/Source/portable/GCC/ARM_CM4_MPU/port.c **** /*-----------------------------------------------------------*/
 204:Middlewares/Third_Party/FreeRTOS/Source/portable/GCC/ARM_CM4_MPU/port.c **** 
 205:Middlewares/Third_Party/FreeRTOS/Source/portable/GCC/ARM_CM4_MPU/port.c **** /*
 206:Middlewares/Third_Party/FreeRTOS/Source/portable/GCC/ARM_CM4_MPU/port.c ****  * See header file for description.
 207:Middlewares/Third_Party/FreeRTOS/Source/portable/GCC/ARM_CM4_MPU/port.c ****  */
 208:Middlewares/Third_Party/FreeRTOS/Source/portable/GCC/ARM_CM4_MPU/port.c **** StackType_t *pxPortInitialiseStack( StackType_t *pxTopOfStack, TaskFunction_t pxCode, void *pvParam
 209:Middlewares/Third_Party/FreeRTOS/Source/portable/GCC/ARM_CM4_MPU/port.c **** {
 210:Middlewares/Third_Party/FreeRTOS/Source/portable/GCC/ARM_CM4_MPU/port.c **** 	/* Simulate the stack frame as it would be created by a context switch
 211:Middlewares/Third_Party/FreeRTOS/Source/portable/GCC/ARM_CM4_MPU/port.c **** 	interrupt. */
 212:Middlewares/Third_Party/FreeRTOS/Source/portable/GCC/ARM_CM4_MPU/port.c **** 	pxTopOfStack--; /* Offset added to account for the way the MCU uses the stack on entry/exit of int
 213:Middlewares/Third_Party/FreeRTOS/Source/portable/GCC/ARM_CM4_MPU/port.c **** 	*pxTopOfStack = portINITIAL_XPSR;	/* xPSR */
 214:Middlewares/Third_Party/FreeRTOS/Source/portable/GCC/ARM_CM4_MPU/port.c **** 	pxTopOfStack--;
 215:Middlewares/Third_Party/FreeRTOS/Source/portable/GCC/ARM_CM4_MPU/port.c **** 	*pxTopOfStack = ( ( StackType_t ) pxCode ) & portSTART_ADDRESS_MASK;	/* PC */
 216:Middlewares/Third_Party/FreeRTOS/Source/portable/GCC/ARM_CM4_MPU/port.c **** 	pxTopOfStack--;
 217:Middlewares/Third_Party/FreeRTOS/Source/portable/GCC/ARM_CM4_MPU/port.c **** 	*pxTopOfStack = 0;	/* LR */
 218:Middlewares/Third_Party/FreeRTOS/Source/portable/GCC/ARM_CM4_MPU/port.c **** 	pxTopOfStack -= 5;	/* R12, R3, R2 and R1. */
 219:Middlewares/Third_Party/FreeRTOS/Source/portable/GCC/ARM_CM4_MPU/port.c **** 	*pxTopOfStack = ( StackType_t ) pvParameters;	/* R0 */
 220:Middlewares/Third_Party/FreeRTOS/Source/portable/GCC/ARM_CM4_MPU/port.c **** 
 221:Middlewares/Third_Party/FreeRTOS/Source/portable/GCC/ARM_CM4_MPU/port.c **** 	/* A save method is being used that requires each task to maintain its
 222:Middlewares/Third_Party/FreeRTOS/Source/portable/GCC/ARM_CM4_MPU/port.c **** 	own exec return value. */
 223:Middlewares/Third_Party/FreeRTOS/Source/portable/GCC/ARM_CM4_MPU/port.c **** 	pxTopOfStack--;
 224:Middlewares/Third_Party/FreeRTOS/Source/portable/GCC/ARM_CM4_MPU/port.c **** 	*pxTopOfStack = portINITIAL_EXC_RETURN;
 225:Middlewares/Third_Party/FreeRTOS/Source/portable/GCC/ARM_CM4_MPU/port.c **** 
 226:Middlewares/Third_Party/FreeRTOS/Source/portable/GCC/ARM_CM4_MPU/port.c **** 	pxTopOfStack -= 9;	/* R11, R10, R9, R8, R7, R6, R5 and R4. */
 227:Middlewares/Third_Party/FreeRTOS/Source/portable/GCC/ARM_CM4_MPU/port.c **** 
 228:Middlewares/Third_Party/FreeRTOS/Source/portable/GCC/ARM_CM4_MPU/port.c **** 	if( xRunPrivileged == pdTRUE )
 229:Middlewares/Third_Party/FreeRTOS/Source/portable/GCC/ARM_CM4_MPU/port.c **** 	{
 230:Middlewares/Third_Party/FreeRTOS/Source/portable/GCC/ARM_CM4_MPU/port.c **** 		*pxTopOfStack = portINITIAL_CONTROL_IF_PRIVILEGED;
 231:Middlewares/Third_Party/FreeRTOS/Source/portable/GCC/ARM_CM4_MPU/port.c **** 	}
 232:Middlewares/Third_Party/FreeRTOS/Source/portable/GCC/ARM_CM4_MPU/port.c **** 	else
 233:Middlewares/Third_Party/FreeRTOS/Source/portable/GCC/ARM_CM4_MPU/port.c **** 	{
 234:Middlewares/Third_Party/FreeRTOS/Source/portable/GCC/ARM_CM4_MPU/port.c **** 		*pxTopOfStack = portINITIAL_CONTROL_IF_UNPRIVILEGED;
 235:Middlewares/Third_Party/FreeRTOS/Source/portable/GCC/ARM_CM4_MPU/port.c **** 	}
 236:Middlewares/Third_Party/FreeRTOS/Source/portable/GCC/ARM_CM4_MPU/port.c **** 
 237:Middlewares/Third_Party/FreeRTOS/Source/portable/GCC/ARM_CM4_MPU/port.c **** 	return pxTopOfStack;
 238:Middlewares/Third_Party/FreeRTOS/Source/portable/GCC/ARM_CM4_MPU/port.c **** }
 239:Middlewares/Third_Party/FreeRTOS/Source/portable/GCC/ARM_CM4_MPU/port.c **** /*-----------------------------------------------------------*/
 240:Middlewares/Third_Party/FreeRTOS/Source/portable/GCC/ARM_CM4_MPU/port.c **** 
 241:Middlewares/Third_Party/FreeRTOS/Source/portable/GCC/ARM_CM4_MPU/port.c **** void vPortSVCHandler( void )
 242:Middlewares/Third_Party/FreeRTOS/Source/portable/GCC/ARM_CM4_MPU/port.c **** {
 243:Middlewares/Third_Party/FreeRTOS/Source/portable/GCC/ARM_CM4_MPU/port.c **** 	/* Assumes psp was in use. */
 244:Middlewares/Third_Party/FreeRTOS/Source/portable/GCC/ARM_CM4_MPU/port.c **** 	__asm volatile
 245:Middlewares/Third_Party/FreeRTOS/Source/portable/GCC/ARM_CM4_MPU/port.c **** 	(
 246:Middlewares/Third_Party/FreeRTOS/Source/portable/GCC/ARM_CM4_MPU/port.c **** 		#ifndef USE_PROCESS_STACK	/* Code should not be required if a main() is using the process stack. 
 247:Middlewares/Third_Party/FreeRTOS/Source/portable/GCC/ARM_CM4_MPU/port.c **** 			"	tst lr, #4						\n"
 248:Middlewares/Third_Party/FreeRTOS/Source/portable/GCC/ARM_CM4_MPU/port.c **** 			"	ite eq							\n"
 249:Middlewares/Third_Party/FreeRTOS/Source/portable/GCC/ARM_CM4_MPU/port.c **** 			"	mrseq r0, msp					\n"
 250:Middlewares/Third_Party/FreeRTOS/Source/portable/GCC/ARM_CM4_MPU/port.c **** 			"	mrsne r0, psp					\n"
 251:Middlewares/Third_Party/FreeRTOS/Source/portable/GCC/ARM_CM4_MPU/port.c **** 		#else
 252:Middlewares/Third_Party/FreeRTOS/Source/portable/GCC/ARM_CM4_MPU/port.c **** 			"	mrs r0, psp						\n"
 253:Middlewares/Third_Party/FreeRTOS/Source/portable/GCC/ARM_CM4_MPU/port.c **** 		#endif
 254:Middlewares/Third_Party/FreeRTOS/Source/portable/GCC/ARM_CM4_MPU/port.c **** 			"	b %0							\n"
 255:Middlewares/Third_Party/FreeRTOS/Source/portable/GCC/ARM_CM4_MPU/port.c **** 			::"i"(prvSVCHandler):"r0", "memory"
 256:Middlewares/Third_Party/FreeRTOS/Source/portable/GCC/ARM_CM4_MPU/port.c **** 	);
 257:Middlewares/Third_Party/FreeRTOS/Source/portable/GCC/ARM_CM4_MPU/port.c **** }
 258:Middlewares/Third_Party/FreeRTOS/Source/portable/GCC/ARM_CM4_MPU/port.c **** /*-----------------------------------------------------------*/
ARM GAS  /tmp/ccb11GdC.s 			page 6


 259:Middlewares/Third_Party/FreeRTOS/Source/portable/GCC/ARM_CM4_MPU/port.c **** 
 260:Middlewares/Third_Party/FreeRTOS/Source/portable/GCC/ARM_CM4_MPU/port.c **** static void prvSVCHandler(	uint32_t *pulParam )
 261:Middlewares/Third_Party/FreeRTOS/Source/portable/GCC/ARM_CM4_MPU/port.c **** {
 262:Middlewares/Third_Party/FreeRTOS/Source/portable/GCC/ARM_CM4_MPU/port.c **** uint8_t ucSVCNumber;
 263:Middlewares/Third_Party/FreeRTOS/Source/portable/GCC/ARM_CM4_MPU/port.c **** uint32_t ulPC;
 264:Middlewares/Third_Party/FreeRTOS/Source/portable/GCC/ARM_CM4_MPU/port.c **** #if( configENFORCE_SYSTEM_CALLS_FROM_KERNEL_ONLY == 1 )
 265:Middlewares/Third_Party/FreeRTOS/Source/portable/GCC/ARM_CM4_MPU/port.c **** 	#if defined( __ARMCC_VERSION )
 266:Middlewares/Third_Party/FreeRTOS/Source/portable/GCC/ARM_CM4_MPU/port.c **** 		/* Declaration when these variable are defined in code instead of being
 267:Middlewares/Third_Party/FreeRTOS/Source/portable/GCC/ARM_CM4_MPU/port.c **** 		* exported from linker scripts. */
 268:Middlewares/Third_Party/FreeRTOS/Source/portable/GCC/ARM_CM4_MPU/port.c **** 		extern uint32_t * __syscalls_flash_start__;
 269:Middlewares/Third_Party/FreeRTOS/Source/portable/GCC/ARM_CM4_MPU/port.c **** 		extern uint32_t * __syscalls_flash_end__;
 270:Middlewares/Third_Party/FreeRTOS/Source/portable/GCC/ARM_CM4_MPU/port.c **** 	#else
 271:Middlewares/Third_Party/FreeRTOS/Source/portable/GCC/ARM_CM4_MPU/port.c **** 		/* Declaration when these variable are exported from linker scripts. */
 272:Middlewares/Third_Party/FreeRTOS/Source/portable/GCC/ARM_CM4_MPU/port.c **** 		extern uint32_t __syscalls_flash_start__[];
 273:Middlewares/Third_Party/FreeRTOS/Source/portable/GCC/ARM_CM4_MPU/port.c **** 		extern uint32_t __syscalls_flash_end__[];
 274:Middlewares/Third_Party/FreeRTOS/Source/portable/GCC/ARM_CM4_MPU/port.c **** 	#endif /* #if defined( __ARMCC_VERSION ) */
 275:Middlewares/Third_Party/FreeRTOS/Source/portable/GCC/ARM_CM4_MPU/port.c **** #endif /* #if( configENFORCE_SYSTEM_CALLS_FROM_KERNEL_ONLY == 1 ) */
 276:Middlewares/Third_Party/FreeRTOS/Source/portable/GCC/ARM_CM4_MPU/port.c **** 
 277:Middlewares/Third_Party/FreeRTOS/Source/portable/GCC/ARM_CM4_MPU/port.c **** 	/* The stack contains: r0, r1, r2, r3, r12, LR, PC and xPSR.  The first
 278:Middlewares/Third_Party/FreeRTOS/Source/portable/GCC/ARM_CM4_MPU/port.c **** 	argument (r0) is pulParam[ 0 ]. */
 279:Middlewares/Third_Party/FreeRTOS/Source/portable/GCC/ARM_CM4_MPU/port.c **** 	ulPC = pulParam[ portOFFSET_TO_PC ];
 280:Middlewares/Third_Party/FreeRTOS/Source/portable/GCC/ARM_CM4_MPU/port.c **** 	ucSVCNumber = ( ( uint8_t * ) ulPC )[ -2 ];
 281:Middlewares/Third_Party/FreeRTOS/Source/portable/GCC/ARM_CM4_MPU/port.c **** 
 282:Middlewares/Third_Party/FreeRTOS/Source/portable/GCC/ARM_CM4_MPU/port.c **** 	switch( ucSVCNumber )
 283:Middlewares/Third_Party/FreeRTOS/Source/portable/GCC/ARM_CM4_MPU/port.c **** 	{
 284:Middlewares/Third_Party/FreeRTOS/Source/portable/GCC/ARM_CM4_MPU/port.c **** 		case portSVC_START_SCHEDULER	:	portNVIC_SYSPRI1_REG |= portNVIC_SVC_PRI;
 285:Middlewares/Third_Party/FreeRTOS/Source/portable/GCC/ARM_CM4_MPU/port.c **** 											prvRestoreContextOfFirstTask();
 286:Middlewares/Third_Party/FreeRTOS/Source/portable/GCC/ARM_CM4_MPU/port.c **** 											break;
 287:Middlewares/Third_Party/FreeRTOS/Source/portable/GCC/ARM_CM4_MPU/port.c **** 
 288:Middlewares/Third_Party/FreeRTOS/Source/portable/GCC/ARM_CM4_MPU/port.c **** 		case portSVC_YIELD				:	portNVIC_INT_CTRL_REG = portNVIC_PENDSVSET_BIT;
 289:Middlewares/Third_Party/FreeRTOS/Source/portable/GCC/ARM_CM4_MPU/port.c **** 											/* Barriers are normally not required
 290:Middlewares/Third_Party/FreeRTOS/Source/portable/GCC/ARM_CM4_MPU/port.c **** 											but do ensure the code is completely
 291:Middlewares/Third_Party/FreeRTOS/Source/portable/GCC/ARM_CM4_MPU/port.c **** 											within the specified behaviour for the
 292:Middlewares/Third_Party/FreeRTOS/Source/portable/GCC/ARM_CM4_MPU/port.c **** 											architecture. */
 293:Middlewares/Third_Party/FreeRTOS/Source/portable/GCC/ARM_CM4_MPU/port.c **** 											__asm volatile( "dsb" ::: "memory" );
 294:Middlewares/Third_Party/FreeRTOS/Source/portable/GCC/ARM_CM4_MPU/port.c **** 											__asm volatile( "isb" );
 295:Middlewares/Third_Party/FreeRTOS/Source/portable/GCC/ARM_CM4_MPU/port.c **** 
 296:Middlewares/Third_Party/FreeRTOS/Source/portable/GCC/ARM_CM4_MPU/port.c **** 											break;
 297:Middlewares/Third_Party/FreeRTOS/Source/portable/GCC/ARM_CM4_MPU/port.c **** 
 298:Middlewares/Third_Party/FreeRTOS/Source/portable/GCC/ARM_CM4_MPU/port.c **** 	#if( configENFORCE_SYSTEM_CALLS_FROM_KERNEL_ONLY == 1 )
 299:Middlewares/Third_Party/FreeRTOS/Source/portable/GCC/ARM_CM4_MPU/port.c **** 		case portSVC_RAISE_PRIVILEGE	:	/* Only raise the privilege, if the
 300:Middlewares/Third_Party/FreeRTOS/Source/portable/GCC/ARM_CM4_MPU/port.c **** 											 * svc was raised from any of the
 301:Middlewares/Third_Party/FreeRTOS/Source/portable/GCC/ARM_CM4_MPU/port.c **** 											 * system calls. */
 302:Middlewares/Third_Party/FreeRTOS/Source/portable/GCC/ARM_CM4_MPU/port.c **** 											if( ulPC >= ( uint32_t ) __syscalls_flash_start__ &&
 303:Middlewares/Third_Party/FreeRTOS/Source/portable/GCC/ARM_CM4_MPU/port.c **** 												ulPC <= ( uint32_t ) __syscalls_flash_end__ )
 304:Middlewares/Third_Party/FreeRTOS/Source/portable/GCC/ARM_CM4_MPU/port.c **** 											{
 305:Middlewares/Third_Party/FreeRTOS/Source/portable/GCC/ARM_CM4_MPU/port.c **** 												__asm volatile
 306:Middlewares/Third_Party/FreeRTOS/Source/portable/GCC/ARM_CM4_MPU/port.c **** 												(
 307:Middlewares/Third_Party/FreeRTOS/Source/portable/GCC/ARM_CM4_MPU/port.c **** 													"	mrs r1, control		\n" /* Obtain current control value. */
 308:Middlewares/Third_Party/FreeRTOS/Source/portable/GCC/ARM_CM4_MPU/port.c **** 													"	bic r1, #1			\n" /* Set privilege bit. */
 309:Middlewares/Third_Party/FreeRTOS/Source/portable/GCC/ARM_CM4_MPU/port.c **** 													"	msr control, r1		\n" /* Write back new control value. */
 310:Middlewares/Third_Party/FreeRTOS/Source/portable/GCC/ARM_CM4_MPU/port.c **** 													::: "r1", "memory"
 311:Middlewares/Third_Party/FreeRTOS/Source/portable/GCC/ARM_CM4_MPU/port.c **** 												);
 312:Middlewares/Third_Party/FreeRTOS/Source/portable/GCC/ARM_CM4_MPU/port.c **** 											}
 313:Middlewares/Third_Party/FreeRTOS/Source/portable/GCC/ARM_CM4_MPU/port.c **** 											break;
 314:Middlewares/Third_Party/FreeRTOS/Source/portable/GCC/ARM_CM4_MPU/port.c **** 	#else
 315:Middlewares/Third_Party/FreeRTOS/Source/portable/GCC/ARM_CM4_MPU/port.c **** 		case portSVC_RAISE_PRIVILEGE	:	__asm volatile
ARM GAS  /tmp/ccb11GdC.s 			page 7


 316:Middlewares/Third_Party/FreeRTOS/Source/portable/GCC/ARM_CM4_MPU/port.c **** 											(
 317:Middlewares/Third_Party/FreeRTOS/Source/portable/GCC/ARM_CM4_MPU/port.c **** 												"	mrs r1, control		\n" /* Obtain current control value. */
 318:Middlewares/Third_Party/FreeRTOS/Source/portable/GCC/ARM_CM4_MPU/port.c **** 												"	bic r1, #1			\n" /* Set privilege bit. */
 319:Middlewares/Third_Party/FreeRTOS/Source/portable/GCC/ARM_CM4_MPU/port.c **** 												"	msr control, r1		\n" /* Write back new control value. */
 320:Middlewares/Third_Party/FreeRTOS/Source/portable/GCC/ARM_CM4_MPU/port.c **** 												::: "r1", "memory"
 321:Middlewares/Third_Party/FreeRTOS/Source/portable/GCC/ARM_CM4_MPU/port.c **** 											);
 322:Middlewares/Third_Party/FreeRTOS/Source/portable/GCC/ARM_CM4_MPU/port.c **** 											break;
 323:Middlewares/Third_Party/FreeRTOS/Source/portable/GCC/ARM_CM4_MPU/port.c **** 	#endif /* #if( configENFORCE_SYSTEM_CALLS_FROM_KERNEL_ONLY == 1 ) */
 324:Middlewares/Third_Party/FreeRTOS/Source/portable/GCC/ARM_CM4_MPU/port.c **** 
 325:Middlewares/Third_Party/FreeRTOS/Source/portable/GCC/ARM_CM4_MPU/port.c **** 		default							:	/* Unknown SVC call. */
 326:Middlewares/Third_Party/FreeRTOS/Source/portable/GCC/ARM_CM4_MPU/port.c **** 											break;
 327:Middlewares/Third_Party/FreeRTOS/Source/portable/GCC/ARM_CM4_MPU/port.c **** 	}
 328:Middlewares/Third_Party/FreeRTOS/Source/portable/GCC/ARM_CM4_MPU/port.c **** }
 329:Middlewares/Third_Party/FreeRTOS/Source/portable/GCC/ARM_CM4_MPU/port.c **** /*-----------------------------------------------------------*/
 330:Middlewares/Third_Party/FreeRTOS/Source/portable/GCC/ARM_CM4_MPU/port.c **** 
 331:Middlewares/Third_Party/FreeRTOS/Source/portable/GCC/ARM_CM4_MPU/port.c **** static void prvRestoreContextOfFirstTask( void )
 332:Middlewares/Third_Party/FreeRTOS/Source/portable/GCC/ARM_CM4_MPU/port.c **** {
 333:Middlewares/Third_Party/FreeRTOS/Source/portable/GCC/ARM_CM4_MPU/port.c **** 	__asm volatile
 334:Middlewares/Third_Party/FreeRTOS/Source/portable/GCC/ARM_CM4_MPU/port.c **** 	(
 335:Middlewares/Third_Party/FreeRTOS/Source/portable/GCC/ARM_CM4_MPU/port.c **** 		"	ldr r0, =0xE000ED08				\n" /* Use the NVIC offset register to locate the stack. */
 336:Middlewares/Third_Party/FreeRTOS/Source/portable/GCC/ARM_CM4_MPU/port.c **** 		"	ldr r0, [r0]					\n"
 337:Middlewares/Third_Party/FreeRTOS/Source/portable/GCC/ARM_CM4_MPU/port.c **** 		"	ldr r0, [r0]					\n"
 338:Middlewares/Third_Party/FreeRTOS/Source/portable/GCC/ARM_CM4_MPU/port.c **** 		"	msr msp, r0						\n" /* Set the msp back to the start of the stack. */
 339:Middlewares/Third_Party/FreeRTOS/Source/portable/GCC/ARM_CM4_MPU/port.c **** 		"	ldr	r3, pxCurrentTCBConst2		\n" /* Restore the context. */
 340:Middlewares/Third_Party/FreeRTOS/Source/portable/GCC/ARM_CM4_MPU/port.c **** 		"	ldr r1, [r3]					\n"
 341:Middlewares/Third_Party/FreeRTOS/Source/portable/GCC/ARM_CM4_MPU/port.c **** 		"	ldr r0, [r1]					\n" /* The first item in the TCB is the task top of stack. */
 342:Middlewares/Third_Party/FreeRTOS/Source/portable/GCC/ARM_CM4_MPU/port.c **** 		"	add r1, r1, #4					\n" /* Move onto the second item in the TCB... */
 343:Middlewares/Third_Party/FreeRTOS/Source/portable/GCC/ARM_CM4_MPU/port.c **** 		"									\n"
 344:Middlewares/Third_Party/FreeRTOS/Source/portable/GCC/ARM_CM4_MPU/port.c **** 		"	dmb								\n" /* Complete outstanding transfers before disabling MPU. */
 345:Middlewares/Third_Party/FreeRTOS/Source/portable/GCC/ARM_CM4_MPU/port.c **** 		"	ldr r2, =0xe000ed94				\n" /* MPU_CTRL register. */
 346:Middlewares/Third_Party/FreeRTOS/Source/portable/GCC/ARM_CM4_MPU/port.c **** 		"	ldr r3, [r2]					\n" /* Read the value of MPU_CTRL. */
 347:Middlewares/Third_Party/FreeRTOS/Source/portable/GCC/ARM_CM4_MPU/port.c **** 		"	bic r3, #1						\n" /* r3 = r3 & ~1 i.e. Clear the bit 0 in r3. */
 348:Middlewares/Third_Party/FreeRTOS/Source/portable/GCC/ARM_CM4_MPU/port.c **** 		"	str r3, [r2]					\n" /* Disable MPU. */
 349:Middlewares/Third_Party/FreeRTOS/Source/portable/GCC/ARM_CM4_MPU/port.c **** 		"									\n"
 350:Middlewares/Third_Party/FreeRTOS/Source/portable/GCC/ARM_CM4_MPU/port.c **** 		"	ldr r2, =0xe000ed9c				\n" /* Region Base Address register. */
 351:Middlewares/Third_Party/FreeRTOS/Source/portable/GCC/ARM_CM4_MPU/port.c **** 		"	ldmia r1!, {r4-r11}				\n" /* Read 4 sets of MPU registers from TCB. */
 352:Middlewares/Third_Party/FreeRTOS/Source/portable/GCC/ARM_CM4_MPU/port.c **** 		"	stmia r2!, {r4-r11}				\n" /* Write 4 sets of MPU registers. */
 353:Middlewares/Third_Party/FreeRTOS/Source/portable/GCC/ARM_CM4_MPU/port.c **** 		"									\n"
 354:Middlewares/Third_Party/FreeRTOS/Source/portable/GCC/ARM_CM4_MPU/port.c **** 		"	ldr r2, =0xe000ed94				\n" /* MPU_CTRL register. */
 355:Middlewares/Third_Party/FreeRTOS/Source/portable/GCC/ARM_CM4_MPU/port.c **** 		"	ldr r3, [r2]					\n" /* Read the value of MPU_CTRL. */
 356:Middlewares/Third_Party/FreeRTOS/Source/portable/GCC/ARM_CM4_MPU/port.c **** 		"	orr r3, #1						\n" /* r3 = r3 | 1 i.e. Set the bit 0 in r3. */
 357:Middlewares/Third_Party/FreeRTOS/Source/portable/GCC/ARM_CM4_MPU/port.c **** 		"	str r3, [r2]					\n" /* Enable MPU. */
 358:Middlewares/Third_Party/FreeRTOS/Source/portable/GCC/ARM_CM4_MPU/port.c **** 		"	dsb								\n" /* Force memory writes before continuing. */
 359:Middlewares/Third_Party/FreeRTOS/Source/portable/GCC/ARM_CM4_MPU/port.c **** 		"									\n"
 360:Middlewares/Third_Party/FreeRTOS/Source/portable/GCC/ARM_CM4_MPU/port.c **** 		"	ldmia r0!, {r3-r11, r14}		\n" /* Pop the registers that are not automatically saved on exceptio
 361:Middlewares/Third_Party/FreeRTOS/Source/portable/GCC/ARM_CM4_MPU/port.c **** 		"	msr control, r3					\n"
 362:Middlewares/Third_Party/FreeRTOS/Source/portable/GCC/ARM_CM4_MPU/port.c **** 		"	msr psp, r0						\n" /* Restore the task stack pointer. */
 363:Middlewares/Third_Party/FreeRTOS/Source/portable/GCC/ARM_CM4_MPU/port.c **** 		"	mov r0, #0						\n"
 364:Middlewares/Third_Party/FreeRTOS/Source/portable/GCC/ARM_CM4_MPU/port.c **** 		"	msr	basepri, r0					\n"
 365:Middlewares/Third_Party/FreeRTOS/Source/portable/GCC/ARM_CM4_MPU/port.c **** 		"	bx r14							\n"
 366:Middlewares/Third_Party/FreeRTOS/Source/portable/GCC/ARM_CM4_MPU/port.c **** 		"									\n"
 367:Middlewares/Third_Party/FreeRTOS/Source/portable/GCC/ARM_CM4_MPU/port.c **** 		"	.align 4						\n"
 368:Middlewares/Third_Party/FreeRTOS/Source/portable/GCC/ARM_CM4_MPU/port.c **** 		"pxCurrentTCBConst2: .word pxCurrentTCB	\n"
 369:Middlewares/Third_Party/FreeRTOS/Source/portable/GCC/ARM_CM4_MPU/port.c **** 	);
 370:Middlewares/Third_Party/FreeRTOS/Source/portable/GCC/ARM_CM4_MPU/port.c **** }
 371:Middlewares/Third_Party/FreeRTOS/Source/portable/GCC/ARM_CM4_MPU/port.c **** /*-----------------------------------------------------------*/
 372:Middlewares/Third_Party/FreeRTOS/Source/portable/GCC/ARM_CM4_MPU/port.c **** 
ARM GAS  /tmp/ccb11GdC.s 			page 8


 373:Middlewares/Third_Party/FreeRTOS/Source/portable/GCC/ARM_CM4_MPU/port.c **** /*
 374:Middlewares/Third_Party/FreeRTOS/Source/portable/GCC/ARM_CM4_MPU/port.c ****  * See header file for description.
 375:Middlewares/Third_Party/FreeRTOS/Source/portable/GCC/ARM_CM4_MPU/port.c ****  */
 376:Middlewares/Third_Party/FreeRTOS/Source/portable/GCC/ARM_CM4_MPU/port.c **** BaseType_t xPortStartScheduler( void )
 377:Middlewares/Third_Party/FreeRTOS/Source/portable/GCC/ARM_CM4_MPU/port.c **** {
 378:Middlewares/Third_Party/FreeRTOS/Source/portable/GCC/ARM_CM4_MPU/port.c **** 	/* configMAX_SYSCALL_INTERRUPT_PRIORITY must not be set to 0.  See
 379:Middlewares/Third_Party/FreeRTOS/Source/portable/GCC/ARM_CM4_MPU/port.c **** 	http://www.FreeRTOS.org/RTOS-Cortex-M3-M4.html */
 380:Middlewares/Third_Party/FreeRTOS/Source/portable/GCC/ARM_CM4_MPU/port.c **** 	configASSERT( ( configMAX_SYSCALL_INTERRUPT_PRIORITY ) );
 381:Middlewares/Third_Party/FreeRTOS/Source/portable/GCC/ARM_CM4_MPU/port.c **** 
 382:Middlewares/Third_Party/FreeRTOS/Source/portable/GCC/ARM_CM4_MPU/port.c **** 	#if( configASSERT_DEFINED == 1 )
 383:Middlewares/Third_Party/FreeRTOS/Source/portable/GCC/ARM_CM4_MPU/port.c **** 	{
 384:Middlewares/Third_Party/FreeRTOS/Source/portable/GCC/ARM_CM4_MPU/port.c **** 		volatile uint32_t ulOriginalPriority;
 385:Middlewares/Third_Party/FreeRTOS/Source/portable/GCC/ARM_CM4_MPU/port.c **** 		volatile uint8_t * const pucFirstUserPriorityRegister = ( volatile uint8_t * const ) ( portNVIC_I
 386:Middlewares/Third_Party/FreeRTOS/Source/portable/GCC/ARM_CM4_MPU/port.c **** 		volatile uint8_t ucMaxPriorityValue;
 387:Middlewares/Third_Party/FreeRTOS/Source/portable/GCC/ARM_CM4_MPU/port.c **** 
 388:Middlewares/Third_Party/FreeRTOS/Source/portable/GCC/ARM_CM4_MPU/port.c **** 		/* Determine the maximum priority from which ISR safe FreeRTOS API
 389:Middlewares/Third_Party/FreeRTOS/Source/portable/GCC/ARM_CM4_MPU/port.c **** 		functions can be called.  ISR safe functions are those that end in
 390:Middlewares/Third_Party/FreeRTOS/Source/portable/GCC/ARM_CM4_MPU/port.c **** 		"FromISR".  FreeRTOS maintains separate thread and ISR API functions to
 391:Middlewares/Third_Party/FreeRTOS/Source/portable/GCC/ARM_CM4_MPU/port.c **** 		ensure interrupt entry is as fast and simple as possible.
 392:Middlewares/Third_Party/FreeRTOS/Source/portable/GCC/ARM_CM4_MPU/port.c **** 
 393:Middlewares/Third_Party/FreeRTOS/Source/portable/GCC/ARM_CM4_MPU/port.c **** 		Save the interrupt priority value that is about to be clobbered. */
 394:Middlewares/Third_Party/FreeRTOS/Source/portable/GCC/ARM_CM4_MPU/port.c **** 		ulOriginalPriority = *pucFirstUserPriorityRegister;
 395:Middlewares/Third_Party/FreeRTOS/Source/portable/GCC/ARM_CM4_MPU/port.c **** 
 396:Middlewares/Third_Party/FreeRTOS/Source/portable/GCC/ARM_CM4_MPU/port.c **** 		/* Determine the number of priority bits available.  First write to all
 397:Middlewares/Third_Party/FreeRTOS/Source/portable/GCC/ARM_CM4_MPU/port.c **** 		possible bits. */
 398:Middlewares/Third_Party/FreeRTOS/Source/portable/GCC/ARM_CM4_MPU/port.c **** 		*pucFirstUserPriorityRegister = portMAX_8_BIT_VALUE;
 399:Middlewares/Third_Party/FreeRTOS/Source/portable/GCC/ARM_CM4_MPU/port.c **** 
 400:Middlewares/Third_Party/FreeRTOS/Source/portable/GCC/ARM_CM4_MPU/port.c **** 		/* Read the value back to see how many bits stuck. */
 401:Middlewares/Third_Party/FreeRTOS/Source/portable/GCC/ARM_CM4_MPU/port.c **** 		ucMaxPriorityValue = *pucFirstUserPriorityRegister;
 402:Middlewares/Third_Party/FreeRTOS/Source/portable/GCC/ARM_CM4_MPU/port.c **** 
 403:Middlewares/Third_Party/FreeRTOS/Source/portable/GCC/ARM_CM4_MPU/port.c **** 		/* Use the same mask on the maximum system call priority. */
 404:Middlewares/Third_Party/FreeRTOS/Source/portable/GCC/ARM_CM4_MPU/port.c **** 		ucMaxSysCallPriority = configMAX_SYSCALL_INTERRUPT_PRIORITY & ucMaxPriorityValue;
 405:Middlewares/Third_Party/FreeRTOS/Source/portable/GCC/ARM_CM4_MPU/port.c **** 
 406:Middlewares/Third_Party/FreeRTOS/Source/portable/GCC/ARM_CM4_MPU/port.c **** 		/* Calculate the maximum acceptable priority group value for the number
 407:Middlewares/Third_Party/FreeRTOS/Source/portable/GCC/ARM_CM4_MPU/port.c **** 		of bits read back. */
 408:Middlewares/Third_Party/FreeRTOS/Source/portable/GCC/ARM_CM4_MPU/port.c **** 		ulMaxPRIGROUPValue = portMAX_PRIGROUP_BITS;
 409:Middlewares/Third_Party/FreeRTOS/Source/portable/GCC/ARM_CM4_MPU/port.c **** 		while( ( ucMaxPriorityValue & portTOP_BIT_OF_BYTE ) == portTOP_BIT_OF_BYTE )
 410:Middlewares/Third_Party/FreeRTOS/Source/portable/GCC/ARM_CM4_MPU/port.c **** 		{
 411:Middlewares/Third_Party/FreeRTOS/Source/portable/GCC/ARM_CM4_MPU/port.c **** 			ulMaxPRIGROUPValue--;
 412:Middlewares/Third_Party/FreeRTOS/Source/portable/GCC/ARM_CM4_MPU/port.c **** 			ucMaxPriorityValue <<= ( uint8_t ) 0x01;
 413:Middlewares/Third_Party/FreeRTOS/Source/portable/GCC/ARM_CM4_MPU/port.c **** 		}
 414:Middlewares/Third_Party/FreeRTOS/Source/portable/GCC/ARM_CM4_MPU/port.c **** 
 415:Middlewares/Third_Party/FreeRTOS/Source/portable/GCC/ARM_CM4_MPU/port.c **** 		#ifdef __NVIC_PRIO_BITS
 416:Middlewares/Third_Party/FreeRTOS/Source/portable/GCC/ARM_CM4_MPU/port.c **** 		{
 417:Middlewares/Third_Party/FreeRTOS/Source/portable/GCC/ARM_CM4_MPU/port.c **** 			/* Check the CMSIS configuration that defines the number of
 418:Middlewares/Third_Party/FreeRTOS/Source/portable/GCC/ARM_CM4_MPU/port.c **** 			priority bits matches the number of priority bits actually queried
 419:Middlewares/Third_Party/FreeRTOS/Source/portable/GCC/ARM_CM4_MPU/port.c **** 			from the hardware. */
 420:Middlewares/Third_Party/FreeRTOS/Source/portable/GCC/ARM_CM4_MPU/port.c **** 			configASSERT( ( portMAX_PRIGROUP_BITS - ulMaxPRIGROUPValue ) == __NVIC_PRIO_BITS );
 421:Middlewares/Third_Party/FreeRTOS/Source/portable/GCC/ARM_CM4_MPU/port.c **** 		}
 422:Middlewares/Third_Party/FreeRTOS/Source/portable/GCC/ARM_CM4_MPU/port.c **** 		#endif
 423:Middlewares/Third_Party/FreeRTOS/Source/portable/GCC/ARM_CM4_MPU/port.c **** 
 424:Middlewares/Third_Party/FreeRTOS/Source/portable/GCC/ARM_CM4_MPU/port.c **** 		#ifdef configPRIO_BITS
 425:Middlewares/Third_Party/FreeRTOS/Source/portable/GCC/ARM_CM4_MPU/port.c **** 		{
 426:Middlewares/Third_Party/FreeRTOS/Source/portable/GCC/ARM_CM4_MPU/port.c **** 			/* Check the FreeRTOS configuration that defines the number of
 427:Middlewares/Third_Party/FreeRTOS/Source/portable/GCC/ARM_CM4_MPU/port.c **** 			priority bits matches the number of priority bits actually queried
 428:Middlewares/Third_Party/FreeRTOS/Source/portable/GCC/ARM_CM4_MPU/port.c **** 			from the hardware. */
 429:Middlewares/Third_Party/FreeRTOS/Source/portable/GCC/ARM_CM4_MPU/port.c **** 			configASSERT( ( portMAX_PRIGROUP_BITS - ulMaxPRIGROUPValue ) == configPRIO_BITS );
ARM GAS  /tmp/ccb11GdC.s 			page 9


 430:Middlewares/Third_Party/FreeRTOS/Source/portable/GCC/ARM_CM4_MPU/port.c **** 		}
 431:Middlewares/Third_Party/FreeRTOS/Source/portable/GCC/ARM_CM4_MPU/port.c **** 		#endif
 432:Middlewares/Third_Party/FreeRTOS/Source/portable/GCC/ARM_CM4_MPU/port.c **** 
 433:Middlewares/Third_Party/FreeRTOS/Source/portable/GCC/ARM_CM4_MPU/port.c **** 		/* Shift the priority group value back to its position within the AIRCR
 434:Middlewares/Third_Party/FreeRTOS/Source/portable/GCC/ARM_CM4_MPU/port.c **** 		register. */
 435:Middlewares/Third_Party/FreeRTOS/Source/portable/GCC/ARM_CM4_MPU/port.c **** 		ulMaxPRIGROUPValue <<= portPRIGROUP_SHIFT;
 436:Middlewares/Third_Party/FreeRTOS/Source/portable/GCC/ARM_CM4_MPU/port.c **** 		ulMaxPRIGROUPValue &= portPRIORITY_GROUP_MASK;
 437:Middlewares/Third_Party/FreeRTOS/Source/portable/GCC/ARM_CM4_MPU/port.c **** 
 438:Middlewares/Third_Party/FreeRTOS/Source/portable/GCC/ARM_CM4_MPU/port.c **** 		/* Restore the clobbered interrupt priority register to its original
 439:Middlewares/Third_Party/FreeRTOS/Source/portable/GCC/ARM_CM4_MPU/port.c **** 		value. */
 440:Middlewares/Third_Party/FreeRTOS/Source/portable/GCC/ARM_CM4_MPU/port.c **** 		*pucFirstUserPriorityRegister = ulOriginalPriority;
 441:Middlewares/Third_Party/FreeRTOS/Source/portable/GCC/ARM_CM4_MPU/port.c **** 	}
 442:Middlewares/Third_Party/FreeRTOS/Source/portable/GCC/ARM_CM4_MPU/port.c **** 	#endif /* conifgASSERT_DEFINED */
 443:Middlewares/Third_Party/FreeRTOS/Source/portable/GCC/ARM_CM4_MPU/port.c **** 
 444:Middlewares/Third_Party/FreeRTOS/Source/portable/GCC/ARM_CM4_MPU/port.c **** 	/* Make PendSV and SysTick the same priority as the kernel, and the SVC
 445:Middlewares/Third_Party/FreeRTOS/Source/portable/GCC/ARM_CM4_MPU/port.c **** 	handler higher priority so it can be used to exit a critical section (where
 446:Middlewares/Third_Party/FreeRTOS/Source/portable/GCC/ARM_CM4_MPU/port.c **** 	lower priorities are masked). */
 447:Middlewares/Third_Party/FreeRTOS/Source/portable/GCC/ARM_CM4_MPU/port.c **** 	portNVIC_SYSPRI2_REG |= portNVIC_PENDSV_PRI;
 448:Middlewares/Third_Party/FreeRTOS/Source/portable/GCC/ARM_CM4_MPU/port.c **** 	portNVIC_SYSPRI2_REG |= portNVIC_SYSTICK_PRI;
 449:Middlewares/Third_Party/FreeRTOS/Source/portable/GCC/ARM_CM4_MPU/port.c **** 
 450:Middlewares/Third_Party/FreeRTOS/Source/portable/GCC/ARM_CM4_MPU/port.c **** 	/* Configure the regions in the MPU that are common to all tasks. */
 451:Middlewares/Third_Party/FreeRTOS/Source/portable/GCC/ARM_CM4_MPU/port.c **** 	prvSetupMPU();
 452:Middlewares/Third_Party/FreeRTOS/Source/portable/GCC/ARM_CM4_MPU/port.c **** 
 453:Middlewares/Third_Party/FreeRTOS/Source/portable/GCC/ARM_CM4_MPU/port.c **** 	/* Start the timer that generates the tick ISR.  Interrupts are disabled
 454:Middlewares/Third_Party/FreeRTOS/Source/portable/GCC/ARM_CM4_MPU/port.c **** 	here already. */
 455:Middlewares/Third_Party/FreeRTOS/Source/portable/GCC/ARM_CM4_MPU/port.c **** 	vPortSetupTimerInterrupt();
 456:Middlewares/Third_Party/FreeRTOS/Source/portable/GCC/ARM_CM4_MPU/port.c **** 
 457:Middlewares/Third_Party/FreeRTOS/Source/portable/GCC/ARM_CM4_MPU/port.c **** 	/* Initialise the critical nesting count ready for the first task. */
 458:Middlewares/Third_Party/FreeRTOS/Source/portable/GCC/ARM_CM4_MPU/port.c **** 	uxCriticalNesting = 0;
 459:Middlewares/Third_Party/FreeRTOS/Source/portable/GCC/ARM_CM4_MPU/port.c **** 
 460:Middlewares/Third_Party/FreeRTOS/Source/portable/GCC/ARM_CM4_MPU/port.c **** 	/* Ensure the VFP is enabled - it should be anyway. */
 461:Middlewares/Third_Party/FreeRTOS/Source/portable/GCC/ARM_CM4_MPU/port.c **** 	vPortEnableVFP();
 462:Middlewares/Third_Party/FreeRTOS/Source/portable/GCC/ARM_CM4_MPU/port.c **** 
 463:Middlewares/Third_Party/FreeRTOS/Source/portable/GCC/ARM_CM4_MPU/port.c **** 	/* Lazy save always. */
 464:Middlewares/Third_Party/FreeRTOS/Source/portable/GCC/ARM_CM4_MPU/port.c **** 	*( portFPCCR ) |= portASPEN_AND_LSPEN_BITS;
 465:Middlewares/Third_Party/FreeRTOS/Source/portable/GCC/ARM_CM4_MPU/port.c **** 
 466:Middlewares/Third_Party/FreeRTOS/Source/portable/GCC/ARM_CM4_MPU/port.c **** 	/* Start the first task.  This also clears the bit that indicates the FPU is
 467:Middlewares/Third_Party/FreeRTOS/Source/portable/GCC/ARM_CM4_MPU/port.c **** 	in use in case the FPU was used before the scheduler was started - which
 468:Middlewares/Third_Party/FreeRTOS/Source/portable/GCC/ARM_CM4_MPU/port.c **** 	would otherwise result in the unnecessary leaving of space in the SVC stack
 469:Middlewares/Third_Party/FreeRTOS/Source/portable/GCC/ARM_CM4_MPU/port.c **** 	for lazy saving of FPU registers. */
 470:Middlewares/Third_Party/FreeRTOS/Source/portable/GCC/ARM_CM4_MPU/port.c **** 	__asm volatile(
 471:Middlewares/Third_Party/FreeRTOS/Source/portable/GCC/ARM_CM4_MPU/port.c **** 					" ldr r0, =0xE000ED08 	\n" /* Use the NVIC offset register to locate the stack. */
 472:Middlewares/Third_Party/FreeRTOS/Source/portable/GCC/ARM_CM4_MPU/port.c **** 					" ldr r0, [r0] 			\n"
 473:Middlewares/Third_Party/FreeRTOS/Source/portable/GCC/ARM_CM4_MPU/port.c **** 					" ldr r0, [r0] 			\n"
 474:Middlewares/Third_Party/FreeRTOS/Source/portable/GCC/ARM_CM4_MPU/port.c **** 					" msr msp, r0			\n" /* Set the msp back to the start of the stack. */
 475:Middlewares/Third_Party/FreeRTOS/Source/portable/GCC/ARM_CM4_MPU/port.c **** 					" mov r0, #0			\n" /* Clear the bit that indicates the FPU is in use, see comment above. */
 476:Middlewares/Third_Party/FreeRTOS/Source/portable/GCC/ARM_CM4_MPU/port.c **** 					" msr control, r0		\n"
 477:Middlewares/Third_Party/FreeRTOS/Source/portable/GCC/ARM_CM4_MPU/port.c **** 					" cpsie i				\n" /* Globally enable interrupts. */
 478:Middlewares/Third_Party/FreeRTOS/Source/portable/GCC/ARM_CM4_MPU/port.c **** 					" cpsie f				\n"
 479:Middlewares/Third_Party/FreeRTOS/Source/portable/GCC/ARM_CM4_MPU/port.c **** 					" dsb					\n"
 480:Middlewares/Third_Party/FreeRTOS/Source/portable/GCC/ARM_CM4_MPU/port.c **** 					" isb					\n"
 481:Middlewares/Third_Party/FreeRTOS/Source/portable/GCC/ARM_CM4_MPU/port.c **** 					" svc %0				\n" /* System call to start first task. */
 482:Middlewares/Third_Party/FreeRTOS/Source/portable/GCC/ARM_CM4_MPU/port.c **** 					" nop					\n"
 483:Middlewares/Third_Party/FreeRTOS/Source/portable/GCC/ARM_CM4_MPU/port.c **** 					:: "i" (portSVC_START_SCHEDULER) : "memory" );
 484:Middlewares/Third_Party/FreeRTOS/Source/portable/GCC/ARM_CM4_MPU/port.c **** 
 485:Middlewares/Third_Party/FreeRTOS/Source/portable/GCC/ARM_CM4_MPU/port.c **** 	/* Should not get here! */
 486:Middlewares/Third_Party/FreeRTOS/Source/portable/GCC/ARM_CM4_MPU/port.c **** 	return 0;
ARM GAS  /tmp/ccb11GdC.s 			page 10


 487:Middlewares/Third_Party/FreeRTOS/Source/portable/GCC/ARM_CM4_MPU/port.c **** }
 488:Middlewares/Third_Party/FreeRTOS/Source/portable/GCC/ARM_CM4_MPU/port.c **** /*-----------------------------------------------------------*/
 489:Middlewares/Third_Party/FreeRTOS/Source/portable/GCC/ARM_CM4_MPU/port.c **** 
 490:Middlewares/Third_Party/FreeRTOS/Source/portable/GCC/ARM_CM4_MPU/port.c **** void vPortEndScheduler( void )
 491:Middlewares/Third_Party/FreeRTOS/Source/portable/GCC/ARM_CM4_MPU/port.c **** {
 492:Middlewares/Third_Party/FreeRTOS/Source/portable/GCC/ARM_CM4_MPU/port.c **** 	/* Not implemented in ports where there is nothing to return to.
 493:Middlewares/Third_Party/FreeRTOS/Source/portable/GCC/ARM_CM4_MPU/port.c **** 	Artificially force an assert. */
 494:Middlewares/Third_Party/FreeRTOS/Source/portable/GCC/ARM_CM4_MPU/port.c **** 	configASSERT( uxCriticalNesting == 1000UL );
 495:Middlewares/Third_Party/FreeRTOS/Source/portable/GCC/ARM_CM4_MPU/port.c **** }
 496:Middlewares/Third_Party/FreeRTOS/Source/portable/GCC/ARM_CM4_MPU/port.c **** /*-----------------------------------------------------------*/
 497:Middlewares/Third_Party/FreeRTOS/Source/portable/GCC/ARM_CM4_MPU/port.c **** 
 498:Middlewares/Third_Party/FreeRTOS/Source/portable/GCC/ARM_CM4_MPU/port.c **** void vPortEnterCritical( void )
 499:Middlewares/Third_Party/FreeRTOS/Source/portable/GCC/ARM_CM4_MPU/port.c **** {
 500:Middlewares/Third_Party/FreeRTOS/Source/portable/GCC/ARM_CM4_MPU/port.c **** BaseType_t xRunningPrivileged = xPortRaisePrivilege();
 501:Middlewares/Third_Party/FreeRTOS/Source/portable/GCC/ARM_CM4_MPU/port.c **** 
 502:Middlewares/Third_Party/FreeRTOS/Source/portable/GCC/ARM_CM4_MPU/port.c **** 	portDISABLE_INTERRUPTS();
 503:Middlewares/Third_Party/FreeRTOS/Source/portable/GCC/ARM_CM4_MPU/port.c **** 	uxCriticalNesting++;
 504:Middlewares/Third_Party/FreeRTOS/Source/portable/GCC/ARM_CM4_MPU/port.c **** 
 505:Middlewares/Third_Party/FreeRTOS/Source/portable/GCC/ARM_CM4_MPU/port.c **** 	vPortResetPrivilege( xRunningPrivileged );
 506:Middlewares/Third_Party/FreeRTOS/Source/portable/GCC/ARM_CM4_MPU/port.c **** }
 507:Middlewares/Third_Party/FreeRTOS/Source/portable/GCC/ARM_CM4_MPU/port.c **** /*-----------------------------------------------------------*/
 508:Middlewares/Third_Party/FreeRTOS/Source/portable/GCC/ARM_CM4_MPU/port.c **** 
 509:Middlewares/Third_Party/FreeRTOS/Source/portable/GCC/ARM_CM4_MPU/port.c **** void vPortExitCritical( void )
 510:Middlewares/Third_Party/FreeRTOS/Source/portable/GCC/ARM_CM4_MPU/port.c **** {
 511:Middlewares/Third_Party/FreeRTOS/Source/portable/GCC/ARM_CM4_MPU/port.c **** BaseType_t xRunningPrivileged = xPortRaisePrivilege();
 512:Middlewares/Third_Party/FreeRTOS/Source/portable/GCC/ARM_CM4_MPU/port.c **** 
 513:Middlewares/Third_Party/FreeRTOS/Source/portable/GCC/ARM_CM4_MPU/port.c **** 	configASSERT( uxCriticalNesting );
 514:Middlewares/Third_Party/FreeRTOS/Source/portable/GCC/ARM_CM4_MPU/port.c **** 	uxCriticalNesting--;
 515:Middlewares/Third_Party/FreeRTOS/Source/portable/GCC/ARM_CM4_MPU/port.c **** 	if( uxCriticalNesting == 0 )
 516:Middlewares/Third_Party/FreeRTOS/Source/portable/GCC/ARM_CM4_MPU/port.c **** 	{
 517:Middlewares/Third_Party/FreeRTOS/Source/portable/GCC/ARM_CM4_MPU/port.c **** 		portENABLE_INTERRUPTS();
 518:Middlewares/Third_Party/FreeRTOS/Source/portable/GCC/ARM_CM4_MPU/port.c **** 	}
 519:Middlewares/Third_Party/FreeRTOS/Source/portable/GCC/ARM_CM4_MPU/port.c **** 	vPortResetPrivilege( xRunningPrivileged );
 520:Middlewares/Third_Party/FreeRTOS/Source/portable/GCC/ARM_CM4_MPU/port.c **** }
 521:Middlewares/Third_Party/FreeRTOS/Source/portable/GCC/ARM_CM4_MPU/port.c **** /*-----------------------------------------------------------*/
 522:Middlewares/Third_Party/FreeRTOS/Source/portable/GCC/ARM_CM4_MPU/port.c **** 
 523:Middlewares/Third_Party/FreeRTOS/Source/portable/GCC/ARM_CM4_MPU/port.c **** void xPortPendSVHandler( void )
 524:Middlewares/Third_Party/FreeRTOS/Source/portable/GCC/ARM_CM4_MPU/port.c **** {
 525:Middlewares/Third_Party/FreeRTOS/Source/portable/GCC/ARM_CM4_MPU/port.c **** 	/* This is a naked function. */
 526:Middlewares/Third_Party/FreeRTOS/Source/portable/GCC/ARM_CM4_MPU/port.c **** 
 527:Middlewares/Third_Party/FreeRTOS/Source/portable/GCC/ARM_CM4_MPU/port.c **** 	__asm volatile
 528:Middlewares/Third_Party/FreeRTOS/Source/portable/GCC/ARM_CM4_MPU/port.c **** 	(
 529:Middlewares/Third_Party/FreeRTOS/Source/portable/GCC/ARM_CM4_MPU/port.c **** 		"	mrs r0, psp							\n"
 530:Middlewares/Third_Party/FreeRTOS/Source/portable/GCC/ARM_CM4_MPU/port.c **** 		"	isb									\n"
 531:Middlewares/Third_Party/FreeRTOS/Source/portable/GCC/ARM_CM4_MPU/port.c **** 		"										\n"
 532:Middlewares/Third_Party/FreeRTOS/Source/portable/GCC/ARM_CM4_MPU/port.c **** 		"	ldr	r3, pxCurrentTCBConst			\n" /* Get the location of the current TCB. */
 533:Middlewares/Third_Party/FreeRTOS/Source/portable/GCC/ARM_CM4_MPU/port.c **** 		"	ldr	r2, [r3]						\n"
 534:Middlewares/Third_Party/FreeRTOS/Source/portable/GCC/ARM_CM4_MPU/port.c **** 		"										\n"
 535:Middlewares/Third_Party/FreeRTOS/Source/portable/GCC/ARM_CM4_MPU/port.c **** 		"	tst r14, #0x10						\n" /* Is the task using the FPU context?  If so, push high vfp registers. 
 536:Middlewares/Third_Party/FreeRTOS/Source/portable/GCC/ARM_CM4_MPU/port.c **** 		"	it eq								\n"
 537:Middlewares/Third_Party/FreeRTOS/Source/portable/GCC/ARM_CM4_MPU/port.c **** 		"	vstmdbeq r0!, {s16-s31}				\n"
 538:Middlewares/Third_Party/FreeRTOS/Source/portable/GCC/ARM_CM4_MPU/port.c **** 		"										\n"
 539:Middlewares/Third_Party/FreeRTOS/Source/portable/GCC/ARM_CM4_MPU/port.c **** 		"	mrs r1, control						\n"
 540:Middlewares/Third_Party/FreeRTOS/Source/portable/GCC/ARM_CM4_MPU/port.c **** 		"	stmdb r0!, {r1, r4-r11, r14}		\n" /* Save the remaining registers. */
 541:Middlewares/Third_Party/FreeRTOS/Source/portable/GCC/ARM_CM4_MPU/port.c **** 		"	str r0, [r2]						\n" /* Save the new top of stack into the first member of the TCB. */
 542:Middlewares/Third_Party/FreeRTOS/Source/portable/GCC/ARM_CM4_MPU/port.c **** 		"										\n"
 543:Middlewares/Third_Party/FreeRTOS/Source/portable/GCC/ARM_CM4_MPU/port.c **** 		"	stmdb sp!, {r0, r3}					\n"
ARM GAS  /tmp/ccb11GdC.s 			page 11


 544:Middlewares/Third_Party/FreeRTOS/Source/portable/GCC/ARM_CM4_MPU/port.c **** 		"	mov r0, %0							\n"
 545:Middlewares/Third_Party/FreeRTOS/Source/portable/GCC/ARM_CM4_MPU/port.c **** 		"	msr basepri, r0						\n"
 546:Middlewares/Third_Party/FreeRTOS/Source/portable/GCC/ARM_CM4_MPU/port.c **** 		"	dsb									\n"
 547:Middlewares/Third_Party/FreeRTOS/Source/portable/GCC/ARM_CM4_MPU/port.c **** 		"	isb									\n"
 548:Middlewares/Third_Party/FreeRTOS/Source/portable/GCC/ARM_CM4_MPU/port.c **** 		"	bl vTaskSwitchContext				\n"
 549:Middlewares/Third_Party/FreeRTOS/Source/portable/GCC/ARM_CM4_MPU/port.c **** 		"	mov r0, #0							\n"
 550:Middlewares/Third_Party/FreeRTOS/Source/portable/GCC/ARM_CM4_MPU/port.c **** 		"	msr basepri, r0						\n"
 551:Middlewares/Third_Party/FreeRTOS/Source/portable/GCC/ARM_CM4_MPU/port.c **** 		"	ldmia sp!, {r0, r3}					\n"
 552:Middlewares/Third_Party/FreeRTOS/Source/portable/GCC/ARM_CM4_MPU/port.c **** 		"										\n" /* Restore the context. */
 553:Middlewares/Third_Party/FreeRTOS/Source/portable/GCC/ARM_CM4_MPU/port.c **** 		"	ldr r1, [r3]						\n"
 554:Middlewares/Third_Party/FreeRTOS/Source/portable/GCC/ARM_CM4_MPU/port.c **** 		"	ldr r0, [r1]						\n" /* The first item in the TCB is the task top of stack. */
 555:Middlewares/Third_Party/FreeRTOS/Source/portable/GCC/ARM_CM4_MPU/port.c **** 		"	add r1, r1, #4						\n" /* Move onto the second item in the TCB... */
 556:Middlewares/Third_Party/FreeRTOS/Source/portable/GCC/ARM_CM4_MPU/port.c **** 		"										\n"
 557:Middlewares/Third_Party/FreeRTOS/Source/portable/GCC/ARM_CM4_MPU/port.c **** 		"	dmb									\n" /* Complete outstanding transfers before disabling MPU. */
 558:Middlewares/Third_Party/FreeRTOS/Source/portable/GCC/ARM_CM4_MPU/port.c **** 		"	ldr r2, =0xe000ed94					\n" /* MPU_CTRL register. */
 559:Middlewares/Third_Party/FreeRTOS/Source/portable/GCC/ARM_CM4_MPU/port.c **** 		"	ldr r3, [r2]						\n" /* Read the value of MPU_CTRL. */
 560:Middlewares/Third_Party/FreeRTOS/Source/portable/GCC/ARM_CM4_MPU/port.c **** 		"	bic r3, #1							\n" /* r3 = r3 & ~1 i.e. Clear the bit 0 in r3. */
 561:Middlewares/Third_Party/FreeRTOS/Source/portable/GCC/ARM_CM4_MPU/port.c **** 		"	str r3, [r2]						\n" /* Disable MPU. */
 562:Middlewares/Third_Party/FreeRTOS/Source/portable/GCC/ARM_CM4_MPU/port.c **** 		"										\n"
 563:Middlewares/Third_Party/FreeRTOS/Source/portable/GCC/ARM_CM4_MPU/port.c **** 		"	ldr r2, =0xe000ed9c					\n" /* Region Base Address register. */
 564:Middlewares/Third_Party/FreeRTOS/Source/portable/GCC/ARM_CM4_MPU/port.c **** 		"	ldmia r1!, {r4-r11}					\n" /* Read 4 sets of MPU registers from TCB. */
 565:Middlewares/Third_Party/FreeRTOS/Source/portable/GCC/ARM_CM4_MPU/port.c **** 		"	stmia r2!, {r4-r11}					\n" /* Write 4 sets of MPU registers. */
 566:Middlewares/Third_Party/FreeRTOS/Source/portable/GCC/ARM_CM4_MPU/port.c **** 		"										\n"
 567:Middlewares/Third_Party/FreeRTOS/Source/portable/GCC/ARM_CM4_MPU/port.c **** 		"	ldr r2, =0xe000ed94					\n" /* MPU_CTRL register. */
 568:Middlewares/Third_Party/FreeRTOS/Source/portable/GCC/ARM_CM4_MPU/port.c **** 		"	ldr r3, [r2]						\n" /* Read the value of MPU_CTRL. */
 569:Middlewares/Third_Party/FreeRTOS/Source/portable/GCC/ARM_CM4_MPU/port.c **** 		"	orr r3, #1							\n" /* r3 = r3 | 1 i.e. Set the bit 0 in r3. */
 570:Middlewares/Third_Party/FreeRTOS/Source/portable/GCC/ARM_CM4_MPU/port.c **** 		"	str r3, [r2]						\n" /* Enable MPU. */
 571:Middlewares/Third_Party/FreeRTOS/Source/portable/GCC/ARM_CM4_MPU/port.c **** 		"	dsb									\n" /* Force memory writes before continuing. */
 572:Middlewares/Third_Party/FreeRTOS/Source/portable/GCC/ARM_CM4_MPU/port.c **** 		"										\n"
 573:Middlewares/Third_Party/FreeRTOS/Source/portable/GCC/ARM_CM4_MPU/port.c **** 		"	ldmia r0!, {r3-r11, r14}			\n" /* Pop the registers that are not automatically saved on excepti
 574:Middlewares/Third_Party/FreeRTOS/Source/portable/GCC/ARM_CM4_MPU/port.c **** 		"	msr control, r3						\n"
 575:Middlewares/Third_Party/FreeRTOS/Source/portable/GCC/ARM_CM4_MPU/port.c **** 		"										\n"
 576:Middlewares/Third_Party/FreeRTOS/Source/portable/GCC/ARM_CM4_MPU/port.c **** 		"	tst r14, #0x10						\n" /* Is the task using the FPU context?  If so, pop the high vfp register
 577:Middlewares/Third_Party/FreeRTOS/Source/portable/GCC/ARM_CM4_MPU/port.c **** 		"	it eq								\n"
 578:Middlewares/Third_Party/FreeRTOS/Source/portable/GCC/ARM_CM4_MPU/port.c **** 		"	vldmiaeq r0!, {s16-s31}				\n"
 579:Middlewares/Third_Party/FreeRTOS/Source/portable/GCC/ARM_CM4_MPU/port.c **** 		"										\n"
 580:Middlewares/Third_Party/FreeRTOS/Source/portable/GCC/ARM_CM4_MPU/port.c **** 		"	msr psp, r0							\n"
 581:Middlewares/Third_Party/FreeRTOS/Source/portable/GCC/ARM_CM4_MPU/port.c **** 		"	bx r14								\n"
 582:Middlewares/Third_Party/FreeRTOS/Source/portable/GCC/ARM_CM4_MPU/port.c **** 		"										\n"
 583:Middlewares/Third_Party/FreeRTOS/Source/portable/GCC/ARM_CM4_MPU/port.c **** 		"	.align 4							\n"
 584:Middlewares/Third_Party/FreeRTOS/Source/portable/GCC/ARM_CM4_MPU/port.c **** 		"pxCurrentTCBConst: .word pxCurrentTCB	\n"
 585:Middlewares/Third_Party/FreeRTOS/Source/portable/GCC/ARM_CM4_MPU/port.c **** 		::"i"(configMAX_SYSCALL_INTERRUPT_PRIORITY)
 586:Middlewares/Third_Party/FreeRTOS/Source/portable/GCC/ARM_CM4_MPU/port.c **** 	);
 587:Middlewares/Third_Party/FreeRTOS/Source/portable/GCC/ARM_CM4_MPU/port.c **** }
 588:Middlewares/Third_Party/FreeRTOS/Source/portable/GCC/ARM_CM4_MPU/port.c **** /*-----------------------------------------------------------*/
 589:Middlewares/Third_Party/FreeRTOS/Source/portable/GCC/ARM_CM4_MPU/port.c **** 
 590:Middlewares/Third_Party/FreeRTOS/Source/portable/GCC/ARM_CM4_MPU/port.c **** void xPortSysTickHandler( void )
 591:Middlewares/Third_Party/FreeRTOS/Source/portable/GCC/ARM_CM4_MPU/port.c **** {
 592:Middlewares/Third_Party/FreeRTOS/Source/portable/GCC/ARM_CM4_MPU/port.c **** uint32_t ulDummy;
 593:Middlewares/Third_Party/FreeRTOS/Source/portable/GCC/ARM_CM4_MPU/port.c **** 
 594:Middlewares/Third_Party/FreeRTOS/Source/portable/GCC/ARM_CM4_MPU/port.c **** 	ulDummy = portSET_INTERRUPT_MASK_FROM_ISR();
 595:Middlewares/Third_Party/FreeRTOS/Source/portable/GCC/ARM_CM4_MPU/port.c **** 	{
 596:Middlewares/Third_Party/FreeRTOS/Source/portable/GCC/ARM_CM4_MPU/port.c **** 		/* Increment the RTOS tick. */
 597:Middlewares/Third_Party/FreeRTOS/Source/portable/GCC/ARM_CM4_MPU/port.c **** 		if( xTaskIncrementTick() != pdFALSE )
 598:Middlewares/Third_Party/FreeRTOS/Source/portable/GCC/ARM_CM4_MPU/port.c **** 		{
 599:Middlewares/Third_Party/FreeRTOS/Source/portable/GCC/ARM_CM4_MPU/port.c **** 			/* Pend a context switch. */
 600:Middlewares/Third_Party/FreeRTOS/Source/portable/GCC/ARM_CM4_MPU/port.c **** 			portNVIC_INT_CTRL_REG = portNVIC_PENDSVSET_BIT;
ARM GAS  /tmp/ccb11GdC.s 			page 12


 601:Middlewares/Third_Party/FreeRTOS/Source/portable/GCC/ARM_CM4_MPU/port.c **** 		}
 602:Middlewares/Third_Party/FreeRTOS/Source/portable/GCC/ARM_CM4_MPU/port.c **** 	}
 603:Middlewares/Third_Party/FreeRTOS/Source/portable/GCC/ARM_CM4_MPU/port.c **** 	portCLEAR_INTERRUPT_MASK_FROM_ISR( ulDummy );
 604:Middlewares/Third_Party/FreeRTOS/Source/portable/GCC/ARM_CM4_MPU/port.c **** }
 605:Middlewares/Third_Party/FreeRTOS/Source/portable/GCC/ARM_CM4_MPU/port.c **** /*-----------------------------------------------------------*/
 606:Middlewares/Third_Party/FreeRTOS/Source/portable/GCC/ARM_CM4_MPU/port.c **** 
 607:Middlewares/Third_Party/FreeRTOS/Source/portable/GCC/ARM_CM4_MPU/port.c **** /*
 608:Middlewares/Third_Party/FreeRTOS/Source/portable/GCC/ARM_CM4_MPU/port.c ****  * Setup the systick timer to generate the tick interrupts at the required
 609:Middlewares/Third_Party/FreeRTOS/Source/portable/GCC/ARM_CM4_MPU/port.c ****  * frequency.
 610:Middlewares/Third_Party/FreeRTOS/Source/portable/GCC/ARM_CM4_MPU/port.c ****  */
 611:Middlewares/Third_Party/FreeRTOS/Source/portable/GCC/ARM_CM4_MPU/port.c **** __attribute__(( weak )) void vPortSetupTimerInterrupt( void )
 612:Middlewares/Third_Party/FreeRTOS/Source/portable/GCC/ARM_CM4_MPU/port.c **** {
 613:Middlewares/Third_Party/FreeRTOS/Source/portable/GCC/ARM_CM4_MPU/port.c **** 	/* Stop and clear the SysTick. */
 614:Middlewares/Third_Party/FreeRTOS/Source/portable/GCC/ARM_CM4_MPU/port.c **** 	portNVIC_SYSTICK_CTRL_REG = 0UL;
 615:Middlewares/Third_Party/FreeRTOS/Source/portable/GCC/ARM_CM4_MPU/port.c **** 	portNVIC_SYSTICK_CURRENT_VALUE_REG = 0UL;
 616:Middlewares/Third_Party/FreeRTOS/Source/portable/GCC/ARM_CM4_MPU/port.c **** 
 617:Middlewares/Third_Party/FreeRTOS/Source/portable/GCC/ARM_CM4_MPU/port.c **** 	/* Configure SysTick to interrupt at the requested rate. */
 618:Middlewares/Third_Party/FreeRTOS/Source/portable/GCC/ARM_CM4_MPU/port.c **** 	portNVIC_SYSTICK_LOAD_REG = ( configSYSTICK_CLOCK_HZ / configTICK_RATE_HZ ) - 1UL;
 619:Middlewares/Third_Party/FreeRTOS/Source/portable/GCC/ARM_CM4_MPU/port.c **** 	portNVIC_SYSTICK_CTRL_REG = ( portNVIC_SYSTICK_CLK | portNVIC_SYSTICK_INT | portNVIC_SYSTICK_ENABL
 620:Middlewares/Third_Party/FreeRTOS/Source/portable/GCC/ARM_CM4_MPU/port.c **** }
 621:Middlewares/Third_Party/FreeRTOS/Source/portable/GCC/ARM_CM4_MPU/port.c **** /*-----------------------------------------------------------*/
 622:Middlewares/Third_Party/FreeRTOS/Source/portable/GCC/ARM_CM4_MPU/port.c **** 
 623:Middlewares/Third_Party/FreeRTOS/Source/portable/GCC/ARM_CM4_MPU/port.c **** /* This is a naked function. */
 624:Middlewares/Third_Party/FreeRTOS/Source/portable/GCC/ARM_CM4_MPU/port.c **** static void vPortEnableVFP( void )
 625:Middlewares/Third_Party/FreeRTOS/Source/portable/GCC/ARM_CM4_MPU/port.c **** {
 626:Middlewares/Third_Party/FreeRTOS/Source/portable/GCC/ARM_CM4_MPU/port.c **** 	__asm volatile
 627:Middlewares/Third_Party/FreeRTOS/Source/portable/GCC/ARM_CM4_MPU/port.c **** 	(
 628:Middlewares/Third_Party/FreeRTOS/Source/portable/GCC/ARM_CM4_MPU/port.c **** 		"	ldr.w r0, =0xE000ED88		\n" /* The FPU enable bits are in the CPACR. */
 629:Middlewares/Third_Party/FreeRTOS/Source/portable/GCC/ARM_CM4_MPU/port.c **** 		"	ldr r1, [r0]				\n"
 630:Middlewares/Third_Party/FreeRTOS/Source/portable/GCC/ARM_CM4_MPU/port.c **** 		"								\n"
 631:Middlewares/Third_Party/FreeRTOS/Source/portable/GCC/ARM_CM4_MPU/port.c **** 		"	orr r1, r1, #( 0xf << 20 )	\n" /* Enable CP10 and CP11 coprocessors, then save back. */
 632:Middlewares/Third_Party/FreeRTOS/Source/portable/GCC/ARM_CM4_MPU/port.c **** 		"	str r1, [r0]				\n"
 633:Middlewares/Third_Party/FreeRTOS/Source/portable/GCC/ARM_CM4_MPU/port.c **** 		"	bx r14						"
 634:Middlewares/Third_Party/FreeRTOS/Source/portable/GCC/ARM_CM4_MPU/port.c **** 	);
 635:Middlewares/Third_Party/FreeRTOS/Source/portable/GCC/ARM_CM4_MPU/port.c **** }
 636:Middlewares/Third_Party/FreeRTOS/Source/portable/GCC/ARM_CM4_MPU/port.c **** /*-----------------------------------------------------------*/
 637:Middlewares/Third_Party/FreeRTOS/Source/portable/GCC/ARM_CM4_MPU/port.c **** 
 638:Middlewares/Third_Party/FreeRTOS/Source/portable/GCC/ARM_CM4_MPU/port.c **** static void prvSetupMPU( void )
 639:Middlewares/Third_Party/FreeRTOS/Source/portable/GCC/ARM_CM4_MPU/port.c **** {
 640:Middlewares/Third_Party/FreeRTOS/Source/portable/GCC/ARM_CM4_MPU/port.c **** #if defined( __ARMCC_VERSION )
 641:Middlewares/Third_Party/FreeRTOS/Source/portable/GCC/ARM_CM4_MPU/port.c **** 	/* Declaration when these variable are defined in code instead of being
 642:Middlewares/Third_Party/FreeRTOS/Source/portable/GCC/ARM_CM4_MPU/port.c **** 	 * exported from linker scripts. */
 643:Middlewares/Third_Party/FreeRTOS/Source/portable/GCC/ARM_CM4_MPU/port.c **** 	extern uint32_t * __privileged_functions_end__;
 644:Middlewares/Third_Party/FreeRTOS/Source/portable/GCC/ARM_CM4_MPU/port.c **** 	extern uint32_t * __FLASH_segment_start__;
 645:Middlewares/Third_Party/FreeRTOS/Source/portable/GCC/ARM_CM4_MPU/port.c **** 	extern uint32_t * __FLASH_segment_end__;
 646:Middlewares/Third_Party/FreeRTOS/Source/portable/GCC/ARM_CM4_MPU/port.c **** 	extern uint32_t * __privileged_data_start__;
 647:Middlewares/Third_Party/FreeRTOS/Source/portable/GCC/ARM_CM4_MPU/port.c **** 	extern uint32_t * __privileged_data_end__;
 648:Middlewares/Third_Party/FreeRTOS/Source/portable/GCC/ARM_CM4_MPU/port.c **** #else
 649:Middlewares/Third_Party/FreeRTOS/Source/portable/GCC/ARM_CM4_MPU/port.c **** 	/* Declaration when these variable are exported from linker scripts. */
 650:Middlewares/Third_Party/FreeRTOS/Source/portable/GCC/ARM_CM4_MPU/port.c **** 	extern uint32_t __privileged_functions_end__[];
 651:Middlewares/Third_Party/FreeRTOS/Source/portable/GCC/ARM_CM4_MPU/port.c **** 	extern uint32_t __FLASH_segment_start__[];
 652:Middlewares/Third_Party/FreeRTOS/Source/portable/GCC/ARM_CM4_MPU/port.c **** 	extern uint32_t __FLASH_segment_end__[];
 653:Middlewares/Third_Party/FreeRTOS/Source/portable/GCC/ARM_CM4_MPU/port.c **** 	extern uint32_t __privileged_data_start__[];
 654:Middlewares/Third_Party/FreeRTOS/Source/portable/GCC/ARM_CM4_MPU/port.c **** 	extern uint32_t __privileged_data_end__[];
 655:Middlewares/Third_Party/FreeRTOS/Source/portable/GCC/ARM_CM4_MPU/port.c **** #endif
 656:Middlewares/Third_Party/FreeRTOS/Source/portable/GCC/ARM_CM4_MPU/port.c **** 	/* Check the expected MPU is present. */
 657:Middlewares/Third_Party/FreeRTOS/Source/portable/GCC/ARM_CM4_MPU/port.c **** 	if( ( portMPU_TYPE_REG == portEXPECTED_MPU_TYPE_VALUE )  || ( portMPU_TYPE_REG == portEXPECTED_MPU
ARM GAS  /tmp/ccb11GdC.s 			page 13


 658:Middlewares/Third_Party/FreeRTOS/Source/portable/GCC/ARM_CM4_MPU/port.c **** 	{
 659:Middlewares/Third_Party/FreeRTOS/Source/portable/GCC/ARM_CM4_MPU/port.c **** 		/* First setup the entire flash for unprivileged read only access. */
 660:Middlewares/Third_Party/FreeRTOS/Source/portable/GCC/ARM_CM4_MPU/port.c **** 		portMPU_REGION_BASE_ADDRESS_REG =	( ( uint32_t ) __FLASH_segment_start__ ) | /* Base address. */
 661:Middlewares/Third_Party/FreeRTOS/Source/portable/GCC/ARM_CM4_MPU/port.c **** 											( portMPU_REGION_VALID ) |
 662:Middlewares/Third_Party/FreeRTOS/Source/portable/GCC/ARM_CM4_MPU/port.c **** 											( portUNPRIVILEGED_FLASH_REGION );
 663:Middlewares/Third_Party/FreeRTOS/Source/portable/GCC/ARM_CM4_MPU/port.c **** 
 664:Middlewares/Third_Party/FreeRTOS/Source/portable/GCC/ARM_CM4_MPU/port.c **** 		portMPU_REGION_ATTRIBUTE_REG =	( portMPU_REGION_READ_ONLY ) |
 665:Middlewares/Third_Party/FreeRTOS/Source/portable/GCC/ARM_CM4_MPU/port.c **** 										( portMPU_REGION_CACHEABLE_BUFFERABLE ) |
 666:Middlewares/Third_Party/FreeRTOS/Source/portable/GCC/ARM_CM4_MPU/port.c **** 										( prvGetMPURegionSizeSetting( ( uint32_t ) __FLASH_segment_end__ - ( uint32_t ) __FLASH_s
 667:Middlewares/Third_Party/FreeRTOS/Source/portable/GCC/ARM_CM4_MPU/port.c **** 										( portMPU_REGION_ENABLE );
 668:Middlewares/Third_Party/FreeRTOS/Source/portable/GCC/ARM_CM4_MPU/port.c **** 
 669:Middlewares/Third_Party/FreeRTOS/Source/portable/GCC/ARM_CM4_MPU/port.c **** 		/* Setup the first nK for privileged only access (even though less
 670:Middlewares/Third_Party/FreeRTOS/Source/portable/GCC/ARM_CM4_MPU/port.c **** 		than 10K is actually being used).  This is where the kernel code is
 671:Middlewares/Third_Party/FreeRTOS/Source/portable/GCC/ARM_CM4_MPU/port.c **** 		placed. */
 672:Middlewares/Third_Party/FreeRTOS/Source/portable/GCC/ARM_CM4_MPU/port.c **** 		portMPU_REGION_BASE_ADDRESS_REG =	( ( uint32_t ) __FLASH_segment_start__ ) | /* Base address. */
 673:Middlewares/Third_Party/FreeRTOS/Source/portable/GCC/ARM_CM4_MPU/port.c **** 											( portMPU_REGION_VALID ) |
 674:Middlewares/Third_Party/FreeRTOS/Source/portable/GCC/ARM_CM4_MPU/port.c **** 											( portPRIVILEGED_FLASH_REGION );
 675:Middlewares/Third_Party/FreeRTOS/Source/portable/GCC/ARM_CM4_MPU/port.c **** 
 676:Middlewares/Third_Party/FreeRTOS/Source/portable/GCC/ARM_CM4_MPU/port.c **** 		portMPU_REGION_ATTRIBUTE_REG =	( portMPU_REGION_PRIVILEGED_READ_ONLY ) |
 677:Middlewares/Third_Party/FreeRTOS/Source/portable/GCC/ARM_CM4_MPU/port.c **** 										( portMPU_REGION_CACHEABLE_BUFFERABLE ) |
 678:Middlewares/Third_Party/FreeRTOS/Source/portable/GCC/ARM_CM4_MPU/port.c **** 										( prvGetMPURegionSizeSetting( ( uint32_t ) __privileged_functions_end__ - ( uint32_t ) __
 679:Middlewares/Third_Party/FreeRTOS/Source/portable/GCC/ARM_CM4_MPU/port.c **** 										( portMPU_REGION_ENABLE );
 680:Middlewares/Third_Party/FreeRTOS/Source/portable/GCC/ARM_CM4_MPU/port.c **** 
 681:Middlewares/Third_Party/FreeRTOS/Source/portable/GCC/ARM_CM4_MPU/port.c **** 		/* Setup the privileged data RAM region.  This is where the kernel data
 682:Middlewares/Third_Party/FreeRTOS/Source/portable/GCC/ARM_CM4_MPU/port.c **** 		is placed. */
 683:Middlewares/Third_Party/FreeRTOS/Source/portable/GCC/ARM_CM4_MPU/port.c **** 		portMPU_REGION_BASE_ADDRESS_REG =	( ( uint32_t ) __privileged_data_start__ ) | /* Base address. *
 684:Middlewares/Third_Party/FreeRTOS/Source/portable/GCC/ARM_CM4_MPU/port.c **** 											( portMPU_REGION_VALID ) |
 685:Middlewares/Third_Party/FreeRTOS/Source/portable/GCC/ARM_CM4_MPU/port.c **** 											( portPRIVILEGED_RAM_REGION );
 686:Middlewares/Third_Party/FreeRTOS/Source/portable/GCC/ARM_CM4_MPU/port.c **** 
 687:Middlewares/Third_Party/FreeRTOS/Source/portable/GCC/ARM_CM4_MPU/port.c **** 		portMPU_REGION_ATTRIBUTE_REG =	( portMPU_REGION_PRIVILEGED_READ_WRITE ) |
 688:Middlewares/Third_Party/FreeRTOS/Source/portable/GCC/ARM_CM4_MPU/port.c **** 										( portMPU_REGION_CACHEABLE_BUFFERABLE ) |
 689:Middlewares/Third_Party/FreeRTOS/Source/portable/GCC/ARM_CM4_MPU/port.c **** 										prvGetMPURegionSizeSetting( ( uint32_t ) __privileged_data_end__ - ( uint32_t ) __privile
 690:Middlewares/Third_Party/FreeRTOS/Source/portable/GCC/ARM_CM4_MPU/port.c **** 										( portMPU_REGION_ENABLE );
 691:Middlewares/Third_Party/FreeRTOS/Source/portable/GCC/ARM_CM4_MPU/port.c **** 
 692:Middlewares/Third_Party/FreeRTOS/Source/portable/GCC/ARM_CM4_MPU/port.c **** 		/* By default allow everything to access the general peripherals.  The
 693:Middlewares/Third_Party/FreeRTOS/Source/portable/GCC/ARM_CM4_MPU/port.c **** 		system peripherals and registers are protected. */
 694:Middlewares/Third_Party/FreeRTOS/Source/portable/GCC/ARM_CM4_MPU/port.c **** 		portMPU_REGION_BASE_ADDRESS_REG =	( portPERIPHERALS_START_ADDRESS ) |
 695:Middlewares/Third_Party/FreeRTOS/Source/portable/GCC/ARM_CM4_MPU/port.c **** 											( portMPU_REGION_VALID ) |
 696:Middlewares/Third_Party/FreeRTOS/Source/portable/GCC/ARM_CM4_MPU/port.c **** 											( portGENERAL_PERIPHERALS_REGION );
 697:Middlewares/Third_Party/FreeRTOS/Source/portable/GCC/ARM_CM4_MPU/port.c **** 
 698:Middlewares/Third_Party/FreeRTOS/Source/portable/GCC/ARM_CM4_MPU/port.c **** 		portMPU_REGION_ATTRIBUTE_REG =	( portMPU_REGION_READ_WRITE | portMPU_REGION_EXECUTE_NEVER ) |
 699:Middlewares/Third_Party/FreeRTOS/Source/portable/GCC/ARM_CM4_MPU/port.c **** 										( prvGetMPURegionSizeSetting( portPERIPHERALS_END_ADDRESS - portPERIPHERALS_START_ADDRESS
 700:Middlewares/Third_Party/FreeRTOS/Source/portable/GCC/ARM_CM4_MPU/port.c **** 										( portMPU_REGION_ENABLE );
 701:Middlewares/Third_Party/FreeRTOS/Source/portable/GCC/ARM_CM4_MPU/port.c **** 
 702:Middlewares/Third_Party/FreeRTOS/Source/portable/GCC/ARM_CM4_MPU/port.c **** 		/* Enable the memory fault exception. */
 703:Middlewares/Third_Party/FreeRTOS/Source/portable/GCC/ARM_CM4_MPU/port.c **** 		portNVIC_SYS_CTRL_STATE_REG |= portNVIC_MEM_FAULT_ENABLE;
 704:Middlewares/Third_Party/FreeRTOS/Source/portable/GCC/ARM_CM4_MPU/port.c **** 
 705:Middlewares/Third_Party/FreeRTOS/Source/portable/GCC/ARM_CM4_MPU/port.c **** 		/* Enable the MPU with the background region configured. */
 706:Middlewares/Third_Party/FreeRTOS/Source/portable/GCC/ARM_CM4_MPU/port.c **** 		portMPU_CTRL_REG |= ( portMPU_ENABLE | portMPU_BACKGROUND_ENABLE );
 707:Middlewares/Third_Party/FreeRTOS/Source/portable/GCC/ARM_CM4_MPU/port.c **** 	}
 708:Middlewares/Third_Party/FreeRTOS/Source/portable/GCC/ARM_CM4_MPU/port.c **** }
 709:Middlewares/Third_Party/FreeRTOS/Source/portable/GCC/ARM_CM4_MPU/port.c **** /*-----------------------------------------------------------*/
 710:Middlewares/Third_Party/FreeRTOS/Source/portable/GCC/ARM_CM4_MPU/port.c **** 
 711:Middlewares/Third_Party/FreeRTOS/Source/portable/GCC/ARM_CM4_MPU/port.c **** static uint32_t prvGetMPURegionSizeSetting( uint32_t ulActualSizeInBytes )
 712:Middlewares/Third_Party/FreeRTOS/Source/portable/GCC/ARM_CM4_MPU/port.c **** {
  29              		.loc 1 712 1 view -0
  30              		.cfi_startproc
ARM GAS  /tmp/ccb11GdC.s 			page 14


  31              		@ args = 0, pretend = 0, frame = 0
  32              		@ frame_needed = 0, uses_anonymous_args = 0
  33              		@ link register save eliminated.
 713:Middlewares/Third_Party/FreeRTOS/Source/portable/GCC/ARM_CM4_MPU/port.c **** uint32_t ulRegionSize, ulReturnValue = 4;
  34              		.loc 1 713 1 view .LVU1
 714:Middlewares/Third_Party/FreeRTOS/Source/portable/GCC/ARM_CM4_MPU/port.c **** 
 715:Middlewares/Third_Party/FreeRTOS/Source/portable/GCC/ARM_CM4_MPU/port.c **** 	/* 32 is the smallest region size, 31 is the largest valid value for
 716:Middlewares/Third_Party/FreeRTOS/Source/portable/GCC/ARM_CM4_MPU/port.c **** 	ulReturnValue. */
 717:Middlewares/Third_Party/FreeRTOS/Source/portable/GCC/ARM_CM4_MPU/port.c **** 	for( ulRegionSize = 32UL; ulReturnValue < 31UL; ( ulRegionSize <<= 1UL ) )
  35              		.loc 1 717 2 view .LVU2
 713:Middlewares/Third_Party/FreeRTOS/Source/portable/GCC/ARM_CM4_MPU/port.c **** uint32_t ulRegionSize, ulReturnValue = 4;
  36              		.loc 1 713 24 is_stmt 0 view .LVU3
  37 0000 0423     		movs	r3, #4
  38              		.loc 1 717 20 view .LVU4
  39 0002 2022     		movs	r2, #32
  40              	.LVL1:
  41              	.L2:
  42              		.loc 1 717 42 is_stmt 1 discriminator 1 view .LVU5
  43 0004 1E2B     		cmp	r3, #30
  44 0006 04D8     		bhi	.L3
 718:Middlewares/Third_Party/FreeRTOS/Source/portable/GCC/ARM_CM4_MPU/port.c **** 	{
 719:Middlewares/Third_Party/FreeRTOS/Source/portable/GCC/ARM_CM4_MPU/port.c **** 		if( ulActualSizeInBytes <= ulRegionSize )
  45              		.loc 1 719 3 view .LVU6
  46              		.loc 1 719 5 is_stmt 0 view .LVU7
  47 0008 8242     		cmp	r2, r0
  48 000a 02D2     		bcs	.L3
 720:Middlewares/Third_Party/FreeRTOS/Source/portable/GCC/ARM_CM4_MPU/port.c **** 		{
 721:Middlewares/Third_Party/FreeRTOS/Source/portable/GCC/ARM_CM4_MPU/port.c **** 			break;
 722:Middlewares/Third_Party/FreeRTOS/Source/portable/GCC/ARM_CM4_MPU/port.c **** 		}
 723:Middlewares/Third_Party/FreeRTOS/Source/portable/GCC/ARM_CM4_MPU/port.c **** 		else
 724:Middlewares/Third_Party/FreeRTOS/Source/portable/GCC/ARM_CM4_MPU/port.c **** 		{
 725:Middlewares/Third_Party/FreeRTOS/Source/portable/GCC/ARM_CM4_MPU/port.c **** 			ulReturnValue++;
  49              		.loc 1 725 4 is_stmt 1 discriminator 2 view .LVU8
  50              		.loc 1 725 17 is_stmt 0 discriminator 2 view .LVU9
  51 000c 0133     		adds	r3, r3, #1
  52              	.LVL2:
 717:Middlewares/Third_Party/FreeRTOS/Source/portable/GCC/ARM_CM4_MPU/port.c **** 	{
  53              		.loc 1 717 65 is_stmt 1 discriminator 2 view .LVU10
  54 000e 5200     		lsls	r2, r2, #1
  55              	.LVL3:
 717:Middlewares/Third_Party/FreeRTOS/Source/portable/GCC/ARM_CM4_MPU/port.c **** 	{
  56              		.loc 1 717 65 is_stmt 0 discriminator 2 view .LVU11
  57 0010 F8E7     		b	.L2
  58              	.L3:
 726:Middlewares/Third_Party/FreeRTOS/Source/portable/GCC/ARM_CM4_MPU/port.c **** 		}
 727:Middlewares/Third_Party/FreeRTOS/Source/portable/GCC/ARM_CM4_MPU/port.c **** 	}
 728:Middlewares/Third_Party/FreeRTOS/Source/portable/GCC/ARM_CM4_MPU/port.c **** 
 729:Middlewares/Third_Party/FreeRTOS/Source/portable/GCC/ARM_CM4_MPU/port.c **** 	/* Shift the code by one before returning so it can be written directly
 730:Middlewares/Third_Party/FreeRTOS/Source/portable/GCC/ARM_CM4_MPU/port.c **** 	into the the correct bit position of the attribute register. */
 731:Middlewares/Third_Party/FreeRTOS/Source/portable/GCC/ARM_CM4_MPU/port.c **** 	return ( ulReturnValue << 1UL );
  59              		.loc 1 731 2 is_stmt 1 view .LVU12
 732:Middlewares/Third_Party/FreeRTOS/Source/portable/GCC/ARM_CM4_MPU/port.c **** }
  60              		.loc 1 732 1 is_stmt 0 view .LVU13
  61 0012 5800     		lsls	r0, r3, #1
  62              	.LVL4:
  63              		.loc 1 732 1 view .LVU14
  64 0014 7047     		bx	lr
ARM GAS  /tmp/ccb11GdC.s 			page 15


  65              		.cfi_endproc
  66              	.LFE18:
  68              		.align	1
  69              		.syntax unified
  70              		.thumb
  71              		.thumb_func
  73              	prvSetupMPU:
  74              	.LFB17:
 639:Middlewares/Third_Party/FreeRTOS/Source/portable/GCC/ARM_CM4_MPU/port.c **** #if defined( __ARMCC_VERSION )
  75              		.loc 1 639 1 is_stmt 1 view -0
  76              		.cfi_startproc
  77              		@ args = 0, pretend = 0, frame = 0
  78              		@ frame_needed = 0, uses_anonymous_args = 0
  79 0016 38B5     		push	{r3, r4, r5, lr}
  80              		.cfi_def_cfa_offset 16
  81              		.cfi_offset 3, -16
  82              		.cfi_offset 4, -12
  83              		.cfi_offset 5, -8
  84              		.cfi_offset 14, -4
 650:Middlewares/Third_Party/FreeRTOS/Source/portable/GCC/ARM_CM4_MPU/port.c **** 	extern uint32_t __FLASH_segment_start__[];
  85              		.loc 1 650 2 view .LVU16
 651:Middlewares/Third_Party/FreeRTOS/Source/portable/GCC/ARM_CM4_MPU/port.c **** 	extern uint32_t __FLASH_segment_end__[];
  86              		.loc 1 651 2 view .LVU17
 652:Middlewares/Third_Party/FreeRTOS/Source/portable/GCC/ARM_CM4_MPU/port.c **** 	extern uint32_t __privileged_data_start__[];
  87              		.loc 1 652 2 view .LVU18
 653:Middlewares/Third_Party/FreeRTOS/Source/portable/GCC/ARM_CM4_MPU/port.c **** 	extern uint32_t __privileged_data_end__[];
  88              		.loc 1 653 2 view .LVU19
 654:Middlewares/Third_Party/FreeRTOS/Source/portable/GCC/ARM_CM4_MPU/port.c **** #endif
  89              		.loc 1 654 2 view .LVU20
 657:Middlewares/Third_Party/FreeRTOS/Source/portable/GCC/ARM_CM4_MPU/port.c **** 	{
  90              		.loc 1 657 2 view .LVU21
 657:Middlewares/Third_Party/FreeRTOS/Source/portable/GCC/ARM_CM4_MPU/port.c **** 	{
  91              		.loc 1 657 8 is_stmt 0 view .LVU22
  92 0018 4FF0E023 		mov	r3, #-536813568
  93 001c D3F8903D 		ldr	r3, [r3, #3472]
 657:Middlewares/Third_Party/FreeRTOS/Source/portable/GCC/ARM_CM4_MPU/port.c **** 	{
  94              		.loc 1 657 4 view .LVU23
  95 0020 B3F5006F 		cmp	r3, #2048
  96 0024 06D0     		beq	.L6
 657:Middlewares/Third_Party/FreeRTOS/Source/portable/GCC/ARM_CM4_MPU/port.c **** 	{
  97              		.loc 1 657 64 discriminator 1 view .LVU24
  98 0026 4FF0E023 		mov	r3, #-536813568
  99 002a D3F8903D 		ldr	r3, [r3, #3472]
 657:Middlewares/Third_Party/FreeRTOS/Source/portable/GCC/ARM_CM4_MPU/port.c **** 	{
 100              		.loc 1 657 59 discriminator 1 view .LVU25
 101 002e B3F5805F 		cmp	r3, #4096
 102 0032 42D1     		bne	.L5
 103              	.L6:
 660:Middlewares/Third_Party/FreeRTOS/Source/portable/GCC/ARM_CM4_MPU/port.c **** 											( portMPU_REGION_VALID ) |
 104              		.loc 1 660 3 is_stmt 1 view .LVU26
 660:Middlewares/Third_Party/FreeRTOS/Source/portable/GCC/ARM_CM4_MPU/port.c **** 											( portMPU_REGION_VALID ) |
 105              		.loc 1 660 39 is_stmt 0 view .LVU27
 106 0034 214D     		ldr	r5, .L9
 661:Middlewares/Third_Party/FreeRTOS/Source/portable/GCC/ARM_CM4_MPU/port.c **** 											( portUNPRIVILEGED_FLASH_REGION );
 107              		.loc 1 661 37 view .LVU28
 108 0036 45F01003 		orr	r3, r5, #16
 660:Middlewares/Third_Party/FreeRTOS/Source/portable/GCC/ARM_CM4_MPU/port.c **** 											( portMPU_REGION_VALID ) |
ARM GAS  /tmp/ccb11GdC.s 			page 16


 109              		.loc 1 660 35 view .LVU29
 110 003a 4FF0E024 		mov	r4, #-536813568
 111 003e C4F89C3D 		str	r3, [r4, #3484]
 664:Middlewares/Third_Party/FreeRTOS/Source/portable/GCC/ARM_CM4_MPU/port.c **** 										( portMPU_REGION_CACHEABLE_BUFFERABLE ) |
 112              		.loc 1 664 3 is_stmt 1 view .LVU30
 666:Middlewares/Third_Party/FreeRTOS/Source/portable/GCC/ARM_CM4_MPU/port.c **** 										( portMPU_REGION_ENABLE );
 113              		.loc 1 666 13 is_stmt 0 view .LVU31
 114 0042 1F48     		ldr	r0, .L9+4
 115 0044 401B     		subs	r0, r0, r5
 116 0046 FFF7DBFF 		bl	prvGetMPURegionSizeSetting
 117              	.LVL5:
 666:Middlewares/Third_Party/FreeRTOS/Source/portable/GCC/ARM_CM4_MPU/port.c **** 										( portMPU_REGION_ENABLE );
 118              		.loc 1 666 119 view .LVU32
 119 004a 1E4B     		ldr	r3, .L9+8
 120 004c 0343     		orrs	r3, r3, r0
 664:Middlewares/Third_Party/FreeRTOS/Source/portable/GCC/ARM_CM4_MPU/port.c **** 										( portMPU_REGION_CACHEABLE_BUFFERABLE ) |
 121              		.loc 1 664 32 view .LVU33
 122 004e C4F8A03D 		str	r3, [r4, #3488]
 672:Middlewares/Third_Party/FreeRTOS/Source/portable/GCC/ARM_CM4_MPU/port.c **** 											( portMPU_REGION_VALID ) |
 123              		.loc 1 672 3 is_stmt 1 view .LVU34
 673:Middlewares/Third_Party/FreeRTOS/Source/portable/GCC/ARM_CM4_MPU/port.c **** 											( portPRIVILEGED_FLASH_REGION );
 124              		.loc 1 673 37 is_stmt 0 view .LVU35
 125 0052 45F01103 		orr	r3, r5, #17
 672:Middlewares/Third_Party/FreeRTOS/Source/portable/GCC/ARM_CM4_MPU/port.c **** 											( portMPU_REGION_VALID ) |
 126              		.loc 1 672 35 view .LVU36
 127 0056 C4F89C3D 		str	r3, [r4, #3484]
 676:Middlewares/Third_Party/FreeRTOS/Source/portable/GCC/ARM_CM4_MPU/port.c **** 										( portMPU_REGION_CACHEABLE_BUFFERABLE ) |
 128              		.loc 1 676 3 is_stmt 1 view .LVU37
 678:Middlewares/Third_Party/FreeRTOS/Source/portable/GCC/ARM_CM4_MPU/port.c **** 										( portMPU_REGION_ENABLE );
 129              		.loc 1 678 13 is_stmt 0 view .LVU38
 130 005a 1B48     		ldr	r0, .L9+12
 131 005c 401B     		subs	r0, r0, r5
 132 005e FFF7CFFF 		bl	prvGetMPURegionSizeSetting
 133              	.LVL6:
 678:Middlewares/Third_Party/FreeRTOS/Source/portable/GCC/ARM_CM4_MPU/port.c **** 										( portMPU_REGION_ENABLE );
 134              		.loc 1 678 126 view .LVU39
 135 0062 1A4B     		ldr	r3, .L9+16
 136 0064 0343     		orrs	r3, r3, r0
 676:Middlewares/Third_Party/FreeRTOS/Source/portable/GCC/ARM_CM4_MPU/port.c **** 										( portMPU_REGION_CACHEABLE_BUFFERABLE ) |
 137              		.loc 1 676 32 view .LVU40
 138 0066 C4F8A03D 		str	r3, [r4, #3488]
 683:Middlewares/Third_Party/FreeRTOS/Source/portable/GCC/ARM_CM4_MPU/port.c **** 											( portMPU_REGION_VALID ) |
 139              		.loc 1 683 3 is_stmt 1 view .LVU41
 683:Middlewares/Third_Party/FreeRTOS/Source/portable/GCC/ARM_CM4_MPU/port.c **** 											( portMPU_REGION_VALID ) |
 140              		.loc 1 683 39 is_stmt 0 view .LVU42
 141 006a 194B     		ldr	r3, .L9+20
 684:Middlewares/Third_Party/FreeRTOS/Source/portable/GCC/ARM_CM4_MPU/port.c **** 											( portPRIVILEGED_RAM_REGION );
 142              		.loc 1 684 37 view .LVU43
 143 006c 43F01202 		orr	r2, r3, #18
 683:Middlewares/Third_Party/FreeRTOS/Source/portable/GCC/ARM_CM4_MPU/port.c **** 											( portMPU_REGION_VALID ) |
 144              		.loc 1 683 35 view .LVU44
 145 0070 C4F89C2D 		str	r2, [r4, #3484]
 687:Middlewares/Third_Party/FreeRTOS/Source/portable/GCC/ARM_CM4_MPU/port.c **** 										( portMPU_REGION_CACHEABLE_BUFFERABLE ) |
 146              		.loc 1 687 3 is_stmt 1 view .LVU45
 689:Middlewares/Third_Party/FreeRTOS/Source/portable/GCC/ARM_CM4_MPU/port.c **** 										( portMPU_REGION_ENABLE );
 147              		.loc 1 689 11 is_stmt 0 view .LVU46
 148 0074 1748     		ldr	r0, .L9+24
ARM GAS  /tmp/ccb11GdC.s 			page 17


 149 0076 C01A     		subs	r0, r0, r3
 150 0078 FFF7C2FF 		bl	prvGetMPURegionSizeSetting
 151              	.LVL7:
 689:Middlewares/Third_Party/FreeRTOS/Source/portable/GCC/ARM_CM4_MPU/port.c **** 										( portMPU_REGION_ENABLE );
 152              		.loc 1 689 119 view .LVU47
 153 007c 40F08170 		orr	r0, r0, #16908288
 154 0080 40F00110 		orr	r0, r0, #65537
 687:Middlewares/Third_Party/FreeRTOS/Source/portable/GCC/ARM_CM4_MPU/port.c **** 										( portMPU_REGION_CACHEABLE_BUFFERABLE ) |
 155              		.loc 1 687 32 view .LVU48
 156 0084 C4F8A00D 		str	r0, [r4, #3488]
 694:Middlewares/Third_Party/FreeRTOS/Source/portable/GCC/ARM_CM4_MPU/port.c **** 											( portMPU_REGION_VALID ) |
 157              		.loc 1 694 3 is_stmt 1 view .LVU49
 694:Middlewares/Third_Party/FreeRTOS/Source/portable/GCC/ARM_CM4_MPU/port.c **** 											( portMPU_REGION_VALID ) |
 158              		.loc 1 694 35 is_stmt 0 view .LVU50
 159 0088 134B     		ldr	r3, .L9+28
 160 008a C4F89C3D 		str	r3, [r4, #3484]
 698:Middlewares/Third_Party/FreeRTOS/Source/portable/GCC/ARM_CM4_MPU/port.c **** 										( prvGetMPURegionSizeSetting( portPERIPHERALS_END_ADDRESS - portPERIPHERALS_START_ADDRESS
 161              		.loc 1 698 3 is_stmt 1 view .LVU51
 699:Middlewares/Third_Party/FreeRTOS/Source/portable/GCC/ARM_CM4_MPU/port.c **** 										( portMPU_REGION_ENABLE );
 162              		.loc 1 699 13 is_stmt 0 view .LVU52
 163 008e 6FF06040 		mvn	r0, #-536870912
 164 0092 FFF7B5FF 		bl	prvGetMPURegionSizeSetting
 165              	.LVL8:
 699:Middlewares/Third_Party/FreeRTOS/Source/portable/GCC/ARM_CM4_MPU/port.c **** 										( portMPU_REGION_ENABLE );
 166              		.loc 1 699 105 view .LVU53
 167 0096 40F09850 		orr	r0, r0, #318767104
 168 009a 40F00100 		orr	r0, r0, #1
 698:Middlewares/Third_Party/FreeRTOS/Source/portable/GCC/ARM_CM4_MPU/port.c **** 										( prvGetMPURegionSizeSetting( portPERIPHERALS_END_ADDRESS - portPERIPHERALS_START_ADDRESS
 169              		.loc 1 698 32 view .LVU54
 170 009e C4F8A00D 		str	r0, [r4, #3488]
 703:Middlewares/Third_Party/FreeRTOS/Source/portable/GCC/ARM_CM4_MPU/port.c **** 
 171              		.loc 1 703 3 is_stmt 1 view .LVU55
 172 00a2 D4F8243D 		ldr	r3, [r4, #3364]
 703:Middlewares/Third_Party/FreeRTOS/Source/portable/GCC/ARM_CM4_MPU/port.c **** 
 173              		.loc 1 703 31 is_stmt 0 view .LVU56
 174 00a6 43F48033 		orr	r3, r3, #65536
 175 00aa C4F8243D 		str	r3, [r4, #3364]
 706:Middlewares/Third_Party/FreeRTOS/Source/portable/GCC/ARM_CM4_MPU/port.c **** 	}
 176              		.loc 1 706 3 is_stmt 1 view .LVU57
 177 00ae D4F8943D 		ldr	r3, [r4, #3476]
 706:Middlewares/Third_Party/FreeRTOS/Source/portable/GCC/ARM_CM4_MPU/port.c **** 	}
 178              		.loc 1 706 20 is_stmt 0 view .LVU58
 179 00b2 43F00503 		orr	r3, r3, #5
 180 00b6 C4F8943D 		str	r3, [r4, #3476]
 181              	.L5:
 708:Middlewares/Third_Party/FreeRTOS/Source/portable/GCC/ARM_CM4_MPU/port.c **** /*-----------------------------------------------------------*/
 182              		.loc 1 708 1 view .LVU59
 183 00ba 38BD     		pop	{r3, r4, r5, pc}
 184              	.L10:
 185              		.align	2
 186              	.L9:
 187 00bc 00000000 		.word	__FLASH_segment_start__
 188 00c0 00000000 		.word	__FLASH_segment_end__
 189 00c4 01000306 		.word	100859905
 190 00c8 00000000 		.word	__privileged_functions_end__
 191 00cc 01000305 		.word	84082689
 192 00d0 00000000 		.word	__privileged_data_start__
ARM GAS  /tmp/ccb11GdC.s 			page 18


 193 00d4 00000000 		.word	__privileged_data_end__
 194 00d8 13000040 		.word	1073741843
 195              		.cfi_endproc
 196              	.LFE17:
 198              		.align	1
 199              		.syntax unified
 200              		.thumb
 201              		.thumb_func
 203              	prvRestoreContextOfFirstTask:
 204              	.LFB8:
 332:Middlewares/Third_Party/FreeRTOS/Source/portable/GCC/ARM_CM4_MPU/port.c **** 	__asm volatile
 205              		.loc 1 332 1 is_stmt 1 view -0
 206              		.cfi_startproc
 207              		@ Naked Function: prologue and epilogue provided by programmer.
 208              		@ args = 0, pretend = 0, frame = 0
 209              		@ frame_needed = 0, uses_anonymous_args = 0
 333:Middlewares/Third_Party/FreeRTOS/Source/portable/GCC/ARM_CM4_MPU/port.c **** 	(
 210              		.loc 1 333 2 view .LVU61
 211              		.syntax unified
 212              	@ 333 "Middlewares/Third_Party/FreeRTOS/Source/portable/GCC/ARM_CM4_MPU/port.c" 1
 213 00dc EB48     			ldr r0, =0xE000ED08				
 214 00de 0068     		ldr r0, [r0]					
 215 00e0 0068     		ldr r0, [r0]					
 216 00e2 80F30888 		msr msp, r0						
 217 00e6 124B     		ldr	r3, pxCurrentTCBConst2		
 218 00e8 1968     		ldr r1, [r3]					
 219 00ea 0868     		ldr r0, [r1]					
 220 00ec 01F10401 		add r1, r1, #4					
 221              										
 222 00f0 BFF35F8F 		dmb								
 223 00f4 E64A     		ldr r2, =0xe000ed94				
 224 00f6 1368     		ldr r3, [r2]					
 225 00f8 23F00103 		bic r3, #1						
 226 00fc 1360     		str r3, [r2]					
 227              										
 228 00fe E54A     		ldr r2, =0xe000ed9c				
 229 0100 B1E8F00F 		ldmia r1!, {r4-r11}				
 230 0104 A2E8F00F 		stmia r2!, {r4-r11}				
 231              										
 232 0108 E14A     		ldr r2, =0xe000ed94				
 233 010a 1368     		ldr r3, [r2]					
 234 010c 43F00103 		orr r3, #1						
 235 0110 1360     		str r3, [r2]					
 236 0112 BFF34F8F 		dsb								
 237              										
 238 0116 B0E8F84F 		ldmia r0!, {r3-r11, r14}		
 239 011a 83F31488 		msr control, r3					
 240 011e 80F30988 		msr psp, r0						
 241 0122 4FF00000 		mov r0, #0						
 242 0126 80F31188 		msr	basepri, r0					
 243 012a 7047     		bx r14							
 244              										
 245 012c AFF30080 		.align 4						
 246 0130 00000000 	pxCurrentTCBConst2: .word pxCurrentTCB	
 247              	
 248              	@ 0 "" 2
 370:Middlewares/Third_Party/FreeRTOS/Source/portable/GCC/ARM_CM4_MPU/port.c **** /*-----------------------------------------------------------*/
ARM GAS  /tmp/ccb11GdC.s 			page 19


 249              		.loc 1 370 1 is_stmt 0 view .LVU62
 250              		.thumb
 251              		.syntax unified
 252              		.cfi_endproc
 253              	.LFE8:
 255              		.align	1
 256              		.syntax unified
 257              		.thumb
 258              		.thumb_func
 260              	prvSVCHandler:
 261              	.LVL9:
 262              	.LFB7:
 261:Middlewares/Third_Party/FreeRTOS/Source/portable/GCC/ARM_CM4_MPU/port.c **** uint8_t ucSVCNumber;
 263              		.loc 1 261 1 is_stmt 1 view -0
 264              		.cfi_startproc
 265              		@ args = 0, pretend = 0, frame = 0
 266              		@ frame_needed = 0, uses_anonymous_args = 0
 261:Middlewares/Third_Party/FreeRTOS/Source/portable/GCC/ARM_CM4_MPU/port.c **** uint8_t ucSVCNumber;
 267              		.loc 1 261 1 is_stmt 0 view .LVU64
 268 0134 08B5     		push	{r3, lr}
 269              		.cfi_def_cfa_offset 8
 270              		.cfi_offset 3, -8
 271              		.cfi_offset 14, -4
 262:Middlewares/Third_Party/FreeRTOS/Source/portable/GCC/ARM_CM4_MPU/port.c **** uint32_t ulPC;
 272              		.loc 1 262 1 is_stmt 1 view .LVU65
 263:Middlewares/Third_Party/FreeRTOS/Source/portable/GCC/ARM_CM4_MPU/port.c **** #if( configENFORCE_SYSTEM_CALLS_FROM_KERNEL_ONLY == 1 )
 273              		.loc 1 263 1 view .LVU66
 272:Middlewares/Third_Party/FreeRTOS/Source/portable/GCC/ARM_CM4_MPU/port.c **** 		extern uint32_t __syscalls_flash_end__[];
 274              		.loc 1 272 3 view .LVU67
 273:Middlewares/Third_Party/FreeRTOS/Source/portable/GCC/ARM_CM4_MPU/port.c **** 	#endif /* #if defined( __ARMCC_VERSION ) */
 275              		.loc 1 273 3 view .LVU68
 279:Middlewares/Third_Party/FreeRTOS/Source/portable/GCC/ARM_CM4_MPU/port.c **** 	ucSVCNumber = ( ( uint8_t * ) ulPC )[ -2 ];
 276              		.loc 1 279 2 view .LVU69
 279:Middlewares/Third_Party/FreeRTOS/Source/portable/GCC/ARM_CM4_MPU/port.c **** 	ucSVCNumber = ( ( uint8_t * ) ulPC )[ -2 ];
 277              		.loc 1 279 7 is_stmt 0 view .LVU70
 278 0136 8269     		ldr	r2, [r0, #24]
 279              	.LVL10:
 280:Middlewares/Third_Party/FreeRTOS/Source/portable/GCC/ARM_CM4_MPU/port.c **** 
 280              		.loc 1 280 2 is_stmt 1 view .LVU71
 280:Middlewares/Third_Party/FreeRTOS/Source/portable/GCC/ARM_CM4_MPU/port.c **** 
 281              		.loc 1 280 14 is_stmt 0 view .LVU72
 282 0138 12F8023C 		ldrb	r3, [r2, #-2]	@ zero_extendqisi2
 283              	.LVL11:
 282:Middlewares/Third_Party/FreeRTOS/Source/portable/GCC/ARM_CM4_MPU/port.c **** 	{
 284              		.loc 1 282 2 is_stmt 1 view .LVU73
 285 013c 012B     		cmp	r3, #1
 286 013e 0ED0     		beq	.L13
 287 0140 022B     		cmp	r3, #2
 288 0142 17D0     		beq	.L14
 289 0144 03B1     		cbz	r3, .L17
 290              	.LVL12:
 291              	.L12:
 328:Middlewares/Third_Party/FreeRTOS/Source/portable/GCC/ARM_CM4_MPU/port.c **** /*-----------------------------------------------------------*/
 292              		.loc 1 328 1 is_stmt 0 view .LVU74
 293 0146 08BD     		pop	{r3, pc}
 294              	.LVL13:
 295              	.L17:
ARM GAS  /tmp/ccb11GdC.s 			page 20


 284:Middlewares/Third_Party/FreeRTOS/Source/portable/GCC/ARM_CM4_MPU/port.c **** 											prvRestoreContextOfFirstTask();
 296              		.loc 1 284 34 is_stmt 1 view .LVU75
 297 0148 4FF0E022 		mov	r2, #-536813568
 298              	.LVL14:
 284:Middlewares/Third_Party/FreeRTOS/Source/portable/GCC/ARM_CM4_MPU/port.c **** 											prvRestoreContextOfFirstTask();
 299              		.loc 1 284 34 is_stmt 0 view .LVU76
 300 014c D2F81C3D 		ldr	r3, [r2, #3356]
 301              	.LVL15:
 284:Middlewares/Third_Party/FreeRTOS/Source/portable/GCC/ARM_CM4_MPU/port.c **** 											prvRestoreContextOfFirstTask();
 302              		.loc 1 284 55 view .LVU77
 303 0150 43F09E43 		orr	r3, r3, #1325400064
 304 0154 C2F81C3D 		str	r3, [r2, #3356]
 305              	.LVL16:
 285:Middlewares/Third_Party/FreeRTOS/Source/portable/GCC/ARM_CM4_MPU/port.c **** 											break;
 306              		.loc 1 285 12 is_stmt 1 view .LVU78
 307 0158 FFF7C0FF 		bl	prvRestoreContextOfFirstTask
 308              	.LVL17:
 286:Middlewares/Third_Party/FreeRTOS/Source/portable/GCC/ARM_CM4_MPU/port.c **** 
 309              		.loc 1 286 12 view .LVU79
 310 015c F3E7     		b	.L12
 311              	.LVL18:
 312              	.L13:
 288:Middlewares/Third_Party/FreeRTOS/Source/portable/GCC/ARM_CM4_MPU/port.c **** 											/* Barriers are normally not required
 313              		.loc 1 288 27 view .LVU80
 288:Middlewares/Third_Party/FreeRTOS/Source/portable/GCC/ARM_CM4_MPU/port.c **** 											/* Barriers are normally not required
 314              		.loc 1 288 49 is_stmt 0 view .LVU81
 315 015e 4FF0E023 		mov	r3, #-536813568
 316              	.LVL19:
 288:Middlewares/Third_Party/FreeRTOS/Source/portable/GCC/ARM_CM4_MPU/port.c **** 											/* Barriers are normally not required
 317              		.loc 1 288 49 view .LVU82
 318 0162 4FF08052 		mov	r2, #268435456
 319              	.LVL20:
 288:Middlewares/Third_Party/FreeRTOS/Source/portable/GCC/ARM_CM4_MPU/port.c **** 											/* Barriers are normally not required
 320              		.loc 1 288 49 view .LVU83
 321 0166 C3F8042D 		str	r2, [r3, #3332]
 322              	.LVL21:
 293:Middlewares/Third_Party/FreeRTOS/Source/portable/GCC/ARM_CM4_MPU/port.c **** 											__asm volatile( "isb" );
 323              		.loc 1 293 12 is_stmt 1 view .LVU84
 324              		.syntax unified
 325              	@ 293 "Middlewares/Third_Party/FreeRTOS/Source/portable/GCC/ARM_CM4_MPU/port.c" 1
 326 016a BFF34F8F 		dsb
 327              	@ 0 "" 2
 294:Middlewares/Third_Party/FreeRTOS/Source/portable/GCC/ARM_CM4_MPU/port.c **** 
 328              		.loc 1 294 12 view .LVU85
 329              	@ 294 "Middlewares/Third_Party/FreeRTOS/Source/portable/GCC/ARM_CM4_MPU/port.c" 1
 330 016e BFF36F8F 		isb
 331              	@ 0 "" 2
 296:Middlewares/Third_Party/FreeRTOS/Source/portable/GCC/ARM_CM4_MPU/port.c **** 
 332              		.loc 1 296 12 view .LVU86
 333              		.thumb
 334              		.syntax unified
 335 0172 E8E7     		b	.L12
 336              	.LVL22:
 337              	.L14:
 302:Middlewares/Third_Party/FreeRTOS/Source/portable/GCC/ARM_CM4_MPU/port.c **** 												ulPC <= ( uint32_t ) __syscalls_flash_end__ )
 338              		.loc 1 302 12 view .LVU87
 302:Middlewares/Third_Party/FreeRTOS/Source/portable/GCC/ARM_CM4_MPU/port.c **** 												ulPC <= ( uint32_t ) __syscalls_flash_end__ )
ARM GAS  /tmp/ccb11GdC.s 			page 21


 339              		.loc 1 302 21 is_stmt 0 view .LVU88
 340 0174 064B     		ldr	r3, .L18
 341              	.LVL23:
 302:Middlewares/Third_Party/FreeRTOS/Source/portable/GCC/ARM_CM4_MPU/port.c **** 												ulPC <= ( uint32_t ) __syscalls_flash_end__ )
 342              		.loc 1 302 14 view .LVU89
 343 0176 9342     		cmp	r3, r2
 344 0178 E5D8     		bhi	.L12
 303:Middlewares/Third_Party/FreeRTOS/Source/portable/GCC/ARM_CM4_MPU/port.c **** 											{
 345              		.loc 1 303 18 discriminator 1 view .LVU90
 346 017a 064B     		ldr	r3, .L18+4
 302:Middlewares/Third_Party/FreeRTOS/Source/portable/GCC/ARM_CM4_MPU/port.c **** 												ulPC <= ( uint32_t ) __syscalls_flash_end__ )
 347              		.loc 1 302 62 discriminator 1 view .LVU91
 348 017c 9342     		cmp	r3, r2
 349 017e E2D3     		bcc	.L12
 305:Middlewares/Third_Party/FreeRTOS/Source/portable/GCC/ARM_CM4_MPU/port.c **** 												(
 350              		.loc 1 305 13 is_stmt 1 view .LVU92
 351              		.syntax unified
 352              	@ 305 "Middlewares/Third_Party/FreeRTOS/Source/portable/GCC/ARM_CM4_MPU/port.c" 1
 353 0180 EFF31481 			mrs r1, control		
 354 0184 21F00101 		bic r1, #1			
 355 0188 81F31488 		msr control, r1		
 356              	
 357              	@ 0 "" 2
 328:Middlewares/Third_Party/FreeRTOS/Source/portable/GCC/ARM_CM4_MPU/port.c **** /*-----------------------------------------------------------*/
 358              		.loc 1 328 1 is_stmt 0 view .LVU93
 359              		.thumb
 360              		.syntax unified
 361 018c DBE7     		b	.L12
 362              	.L19:
 363 018e 00BF     		.align	2
 364              	.L18:
 365 0190 00000000 		.word	__syscalls_flash_start__
 366 0194 00000000 		.word	__syscalls_flash_end__
 367              		.cfi_endproc
 368              	.LFE7:
 370              		.section	.text.vPortEnableVFP,"ax",%progbits
 371              		.align	1
 372              		.syntax unified
 373              		.thumb
 374              		.thumb_func
 376              	vPortEnableVFP:
 377              	.LFB16:
 625:Middlewares/Third_Party/FreeRTOS/Source/portable/GCC/ARM_CM4_MPU/port.c **** 	__asm volatile
 378              		.loc 1 625 1 is_stmt 1 view -0
 379              		.cfi_startproc
 380              		@ Naked Function: prologue and epilogue provided by programmer.
 381              		@ args = 0, pretend = 0, frame = 0
 382              		@ frame_needed = 0, uses_anonymous_args = 0
 626:Middlewares/Third_Party/FreeRTOS/Source/portable/GCC/ARM_CM4_MPU/port.c **** 	(
 383              		.loc 1 626 2 view .LVU95
 384              		.syntax unified
 385              	@ 626 "Middlewares/Third_Party/FreeRTOS/Source/portable/GCC/ARM_CM4_MPU/port.c" 1
 386 0000 DFF80C00 			ldr.w r0, =0xE000ED88		
 387 0004 0168     		ldr r1, [r0]				
 388              									
 389 0006 41F47001 		orr r1, r1, #( 0xf << 20 )	
 390 000a 0160     		str r1, [r0]				
ARM GAS  /tmp/ccb11GdC.s 			page 22


 391 000c 7047     		bx r14						
 392              	@ 0 "" 2
 635:Middlewares/Third_Party/FreeRTOS/Source/portable/GCC/ARM_CM4_MPU/port.c **** /*-----------------------------------------------------------*/
 393              		.loc 1 635 1 is_stmt 0 view .LVU96
 394              		.thumb
 395              		.syntax unified
 396              		.cfi_endproc
 397              	.LFE16:
 399 000e 0000     		.section	privileged_functions
 400              		.align	1
 401              		.global	pxPortInitialiseStack
 402              		.syntax unified
 403              		.thumb
 404              		.thumb_func
 406              	pxPortInitialiseStack:
 407              	.LVL24:
 408              	.LFB5:
 209:Middlewares/Third_Party/FreeRTOS/Source/portable/GCC/ARM_CM4_MPU/port.c **** 	/* Simulate the stack frame as it would be created by a context switch
 409              		.loc 1 209 1 is_stmt 1 view -0
 410              		.cfi_startproc
 411              		@ args = 0, pretend = 0, frame = 0
 412              		@ frame_needed = 0, uses_anonymous_args = 0
 413              		@ link register save eliminated.
 209:Middlewares/Third_Party/FreeRTOS/Source/portable/GCC/ARM_CM4_MPU/port.c **** 	/* Simulate the stack frame as it would be created by a context switch
 414              		.loc 1 209 1 is_stmt 0 view .LVU98
 415 0198 8446     		mov	ip, r0
 212:Middlewares/Third_Party/FreeRTOS/Source/portable/GCC/ARM_CM4_MPU/port.c **** 	*pxTopOfStack = portINITIAL_XPSR;	/* xPSR */
 416              		.loc 1 212 2 is_stmt 1 view .LVU99
 417              	.LVL25:
 213:Middlewares/Third_Party/FreeRTOS/Source/portable/GCC/ARM_CM4_MPU/port.c **** 	pxTopOfStack--;
 418              		.loc 1 213 2 view .LVU100
 213:Middlewares/Third_Party/FreeRTOS/Source/portable/GCC/ARM_CM4_MPU/port.c **** 	pxTopOfStack--;
 419              		.loc 1 213 16 is_stmt 0 view .LVU101
 420 019a 4FF08070 		mov	r0, #16777216
 421              	.LVL26:
 213:Middlewares/Third_Party/FreeRTOS/Source/portable/GCC/ARM_CM4_MPU/port.c **** 	pxTopOfStack--;
 422              		.loc 1 213 16 view .LVU102
 423 019e 4CF8040C 		str	r0, [ip, #-4]
 214:Middlewares/Third_Party/FreeRTOS/Source/portable/GCC/ARM_CM4_MPU/port.c **** 	*pxTopOfStack = ( ( StackType_t ) pxCode ) & portSTART_ADDRESS_MASK;	/* PC */
 424              		.loc 1 214 2 is_stmt 1 view .LVU103
 425              	.LVL27:
 215:Middlewares/Third_Party/FreeRTOS/Source/portable/GCC/ARM_CM4_MPU/port.c **** 	pxTopOfStack--;
 426              		.loc 1 215 2 view .LVU104
 215:Middlewares/Third_Party/FreeRTOS/Source/portable/GCC/ARM_CM4_MPU/port.c **** 	pxTopOfStack--;
 427              		.loc 1 215 45 is_stmt 0 view .LVU105
 428 01a2 21F00101 		bic	r1, r1, #1
 429              	.LVL28:
 215:Middlewares/Third_Party/FreeRTOS/Source/portable/GCC/ARM_CM4_MPU/port.c **** 	pxTopOfStack--;
 430              		.loc 1 215 16 view .LVU106
 431 01a6 4CF8081C 		str	r1, [ip, #-8]
 216:Middlewares/Third_Party/FreeRTOS/Source/portable/GCC/ARM_CM4_MPU/port.c **** 	*pxTopOfStack = 0;	/* LR */
 432              		.loc 1 216 2 is_stmt 1 view .LVU107
 433              	.LVL29:
 217:Middlewares/Third_Party/FreeRTOS/Source/portable/GCC/ARM_CM4_MPU/port.c **** 	pxTopOfStack -= 5;	/* R12, R3, R2 and R1. */
 434              		.loc 1 217 2 view .LVU108
 217:Middlewares/Third_Party/FreeRTOS/Source/portable/GCC/ARM_CM4_MPU/port.c **** 	pxTopOfStack -= 5;	/* R12, R3, R2 and R1. */
 435              		.loc 1 217 16 is_stmt 0 view .LVU109
ARM GAS  /tmp/ccb11GdC.s 			page 23


 436 01aa 0021     		movs	r1, #0
 437 01ac 4CF80C1C 		str	r1, [ip, #-12]
 218:Middlewares/Third_Party/FreeRTOS/Source/portable/GCC/ARM_CM4_MPU/port.c **** 	*pxTopOfStack = ( StackType_t ) pvParameters;	/* R0 */
 438              		.loc 1 218 2 is_stmt 1 view .LVU110
 439              	.LVL30:
 219:Middlewares/Third_Party/FreeRTOS/Source/portable/GCC/ARM_CM4_MPU/port.c **** 
 440              		.loc 1 219 2 view .LVU111
 219:Middlewares/Third_Party/FreeRTOS/Source/portable/GCC/ARM_CM4_MPU/port.c **** 
 441              		.loc 1 219 16 is_stmt 0 view .LVU112
 442 01b0 4CF8202C 		str	r2, [ip, #-32]
 223:Middlewares/Third_Party/FreeRTOS/Source/portable/GCC/ARM_CM4_MPU/port.c **** 	*pxTopOfStack = portINITIAL_EXC_RETURN;
 443              		.loc 1 223 2 is_stmt 1 view .LVU113
 444              	.LVL31:
 224:Middlewares/Third_Party/FreeRTOS/Source/portable/GCC/ARM_CM4_MPU/port.c **** 
 445              		.loc 1 224 2 view .LVU114
 224:Middlewares/Third_Party/FreeRTOS/Source/portable/GCC/ARM_CM4_MPU/port.c **** 
 446              		.loc 1 224 16 is_stmt 0 view .LVU115
 447 01b4 6FF00202 		mvn	r2, #2
 448              	.LVL32:
 224:Middlewares/Third_Party/FreeRTOS/Source/portable/GCC/ARM_CM4_MPU/port.c **** 
 449              		.loc 1 224 16 view .LVU116
 450 01b8 4CF8242C 		str	r2, [ip, #-36]
 226:Middlewares/Third_Party/FreeRTOS/Source/portable/GCC/ARM_CM4_MPU/port.c **** 
 451              		.loc 1 226 2 is_stmt 1 view .LVU117
 226:Middlewares/Third_Party/FreeRTOS/Source/portable/GCC/ARM_CM4_MPU/port.c **** 
 452              		.loc 1 226 15 is_stmt 0 view .LVU118
 453 01bc ACF14800 		sub	r0, ip, #72
 454              	.LVL33:
 228:Middlewares/Third_Party/FreeRTOS/Source/portable/GCC/ARM_CM4_MPU/port.c **** 	{
 455              		.loc 1 228 2 is_stmt 1 view .LVU119
 228:Middlewares/Third_Party/FreeRTOS/Source/portable/GCC/ARM_CM4_MPU/port.c **** 	{
 456              		.loc 1 228 4 is_stmt 0 view .LVU120
 457 01c0 012B     		cmp	r3, #1
 458 01c2 03D0     		beq	.L24
 234:Middlewares/Third_Party/FreeRTOS/Source/portable/GCC/ARM_CM4_MPU/port.c **** 	}
 459              		.loc 1 234 3 is_stmt 1 view .LVU121
 234:Middlewares/Third_Party/FreeRTOS/Source/portable/GCC/ARM_CM4_MPU/port.c **** 	}
 460              		.loc 1 234 17 is_stmt 0 view .LVU122
 461 01c4 0323     		movs	r3, #3
 462              	.LVL34:
 234:Middlewares/Third_Party/FreeRTOS/Source/portable/GCC/ARM_CM4_MPU/port.c **** 	}
 463              		.loc 1 234 17 view .LVU123
 464 01c6 4CF8483C 		str	r3, [ip, #-72]
 237:Middlewares/Third_Party/FreeRTOS/Source/portable/GCC/ARM_CM4_MPU/port.c **** }
 465              		.loc 1 237 2 is_stmt 1 view .LVU124
 238:Middlewares/Third_Party/FreeRTOS/Source/portable/GCC/ARM_CM4_MPU/port.c **** /*-----------------------------------------------------------*/
 466              		.loc 1 238 1 is_stmt 0 view .LVU125
 467 01ca 7047     		bx	lr
 468              	.LVL35:
 469              	.L24:
 230:Middlewares/Third_Party/FreeRTOS/Source/portable/GCC/ARM_CM4_MPU/port.c **** 	}
 470              		.loc 1 230 3 is_stmt 1 view .LVU126
 230:Middlewares/Third_Party/FreeRTOS/Source/portable/GCC/ARM_CM4_MPU/port.c **** 	}
 471              		.loc 1 230 17 is_stmt 0 view .LVU127
 472 01cc 0223     		movs	r3, #2
 473              	.LVL36:
 230:Middlewares/Third_Party/FreeRTOS/Source/portable/GCC/ARM_CM4_MPU/port.c **** 	}
ARM GAS  /tmp/ccb11GdC.s 			page 24


 474              		.loc 1 230 17 view .LVU128
 475 01ce 4CF8483C 		str	r3, [ip, #-72]
 476 01d2 7047     		bx	lr
 477              		.cfi_endproc
 478              	.LFE5:
 480              		.align	1
 481              		.global	vPortEndScheduler
 482              		.syntax unified
 483              		.thumb
 484              		.thumb_func
 486              	vPortEndScheduler:
 487              	.LFB10:
 491:Middlewares/Third_Party/FreeRTOS/Source/portable/GCC/ARM_CM4_MPU/port.c **** 	/* Not implemented in ports where there is nothing to return to.
 488              		.loc 1 491 1 is_stmt 1 view -0
 489              		.cfi_startproc
 490              		@ args = 0, pretend = 0, frame = 0
 491              		@ frame_needed = 0, uses_anonymous_args = 0
 492              		@ link register save eliminated.
 494:Middlewares/Third_Party/FreeRTOS/Source/portable/GCC/ARM_CM4_MPU/port.c **** }
 493              		.loc 1 494 2 view .LVU130
 494 01d4 074B     		ldr	r3, .L28
 495 01d6 1B68     		ldr	r3, [r3]
 496 01d8 B3F57A7F 		cmp	r3, #1000
 497 01dc 08D0     		beq	.L25
 494:Middlewares/Third_Party/FreeRTOS/Source/portable/GCC/ARM_CM4_MPU/port.c **** }
 498              		.loc 1 494 2 view .LVU131
 499              	.LBB21:
 500              	.LBI21:
 501              		.file 2 "Middlewares/Third_Party/FreeRTOS/Source/portable/GCC/ARM_CM4_MPU/portmacro.h"
   1:Middlewares/Third_Party/FreeRTOS/Source/portable/GCC/ARM_CM4_MPU/portmacro.h **** /*
   2:Middlewares/Third_Party/FreeRTOS/Source/portable/GCC/ARM_CM4_MPU/portmacro.h ****  * FreeRTOS Kernel V10.3.1
   3:Middlewares/Third_Party/FreeRTOS/Source/portable/GCC/ARM_CM4_MPU/portmacro.h ****  * Copyright (C) 2020 Amazon.com, Inc. or its affiliates.  All Rights Reserved.
   4:Middlewares/Third_Party/FreeRTOS/Source/portable/GCC/ARM_CM4_MPU/portmacro.h ****  *
   5:Middlewares/Third_Party/FreeRTOS/Source/portable/GCC/ARM_CM4_MPU/portmacro.h ****  * Permission is hereby granted, free of charge, to any person obtaining a copy of
   6:Middlewares/Third_Party/FreeRTOS/Source/portable/GCC/ARM_CM4_MPU/portmacro.h ****  * this software and associated documentation files (the "Software"), to deal in
   7:Middlewares/Third_Party/FreeRTOS/Source/portable/GCC/ARM_CM4_MPU/portmacro.h ****  * the Software without restriction, including without limitation the rights to
   8:Middlewares/Third_Party/FreeRTOS/Source/portable/GCC/ARM_CM4_MPU/portmacro.h ****  * use, copy, modify, merge, publish, distribute, sublicense, and/or sell copies of
   9:Middlewares/Third_Party/FreeRTOS/Source/portable/GCC/ARM_CM4_MPU/portmacro.h ****  * the Software, and to permit persons to whom the Software is furnished to do so,
  10:Middlewares/Third_Party/FreeRTOS/Source/portable/GCC/ARM_CM4_MPU/portmacro.h ****  * subject to the following conditions:
  11:Middlewares/Third_Party/FreeRTOS/Source/portable/GCC/ARM_CM4_MPU/portmacro.h ****  *
  12:Middlewares/Third_Party/FreeRTOS/Source/portable/GCC/ARM_CM4_MPU/portmacro.h ****  * The above copyright notice and this permission notice shall be included in all
  13:Middlewares/Third_Party/FreeRTOS/Source/portable/GCC/ARM_CM4_MPU/portmacro.h ****  * copies or substantial portions of the Software.
  14:Middlewares/Third_Party/FreeRTOS/Source/portable/GCC/ARM_CM4_MPU/portmacro.h ****  *
  15:Middlewares/Third_Party/FreeRTOS/Source/portable/GCC/ARM_CM4_MPU/portmacro.h ****  * THE SOFTWARE IS PROVIDED "AS IS", WITHOUT WARRANTY OF ANY KIND, EXPRESS OR
  16:Middlewares/Third_Party/FreeRTOS/Source/portable/GCC/ARM_CM4_MPU/portmacro.h ****  * IMPLIED, INCLUDING BUT NOT LIMITED TO THE WARRANTIES OF MERCHANTABILITY, FITNESS
  17:Middlewares/Third_Party/FreeRTOS/Source/portable/GCC/ARM_CM4_MPU/portmacro.h ****  * FOR A PARTICULAR PURPOSE AND NONINFRINGEMENT. IN NO EVENT SHALL THE AUTHORS OR
  18:Middlewares/Third_Party/FreeRTOS/Source/portable/GCC/ARM_CM4_MPU/portmacro.h ****  * COPYRIGHT HOLDERS BE LIABLE FOR ANY CLAIM, DAMAGES OR OTHER LIABILITY, WHETHER
  19:Middlewares/Third_Party/FreeRTOS/Source/portable/GCC/ARM_CM4_MPU/portmacro.h ****  * IN AN ACTION OF CONTRACT, TORT OR OTHERWISE, ARISING FROM, OUT OF OR IN
  20:Middlewares/Third_Party/FreeRTOS/Source/portable/GCC/ARM_CM4_MPU/portmacro.h ****  * CONNECTION WITH THE SOFTWARE OR THE USE OR OTHER DEALINGS IN THE SOFTWARE.
  21:Middlewares/Third_Party/FreeRTOS/Source/portable/GCC/ARM_CM4_MPU/portmacro.h ****  *
  22:Middlewares/Third_Party/FreeRTOS/Source/portable/GCC/ARM_CM4_MPU/portmacro.h ****  * http://www.FreeRTOS.org
  23:Middlewares/Third_Party/FreeRTOS/Source/portable/GCC/ARM_CM4_MPU/portmacro.h ****  * http://aws.amazon.com/freertos
  24:Middlewares/Third_Party/FreeRTOS/Source/portable/GCC/ARM_CM4_MPU/portmacro.h ****  *
  25:Middlewares/Third_Party/FreeRTOS/Source/portable/GCC/ARM_CM4_MPU/portmacro.h ****  * 1 tab == 4 spaces!
  26:Middlewares/Third_Party/FreeRTOS/Source/portable/GCC/ARM_CM4_MPU/portmacro.h ****  */
  27:Middlewares/Third_Party/FreeRTOS/Source/portable/GCC/ARM_CM4_MPU/portmacro.h **** 
  28:Middlewares/Third_Party/FreeRTOS/Source/portable/GCC/ARM_CM4_MPU/portmacro.h **** 
ARM GAS  /tmp/ccb11GdC.s 			page 25


  29:Middlewares/Third_Party/FreeRTOS/Source/portable/GCC/ARM_CM4_MPU/portmacro.h **** #ifndef PORTMACRO_H
  30:Middlewares/Third_Party/FreeRTOS/Source/portable/GCC/ARM_CM4_MPU/portmacro.h **** #define PORTMACRO_H
  31:Middlewares/Third_Party/FreeRTOS/Source/portable/GCC/ARM_CM4_MPU/portmacro.h **** 
  32:Middlewares/Third_Party/FreeRTOS/Source/portable/GCC/ARM_CM4_MPU/portmacro.h **** #ifdef __cplusplus
  33:Middlewares/Third_Party/FreeRTOS/Source/portable/GCC/ARM_CM4_MPU/portmacro.h **** extern "C" {
  34:Middlewares/Third_Party/FreeRTOS/Source/portable/GCC/ARM_CM4_MPU/portmacro.h **** #endif
  35:Middlewares/Third_Party/FreeRTOS/Source/portable/GCC/ARM_CM4_MPU/portmacro.h **** 
  36:Middlewares/Third_Party/FreeRTOS/Source/portable/GCC/ARM_CM4_MPU/portmacro.h **** /*-----------------------------------------------------------
  37:Middlewares/Third_Party/FreeRTOS/Source/portable/GCC/ARM_CM4_MPU/portmacro.h ****  * Port specific definitions.
  38:Middlewares/Third_Party/FreeRTOS/Source/portable/GCC/ARM_CM4_MPU/portmacro.h ****  *
  39:Middlewares/Third_Party/FreeRTOS/Source/portable/GCC/ARM_CM4_MPU/portmacro.h ****  * The settings in this file configure FreeRTOS correctly for the
  40:Middlewares/Third_Party/FreeRTOS/Source/portable/GCC/ARM_CM4_MPU/portmacro.h ****  * given hardware and compiler.
  41:Middlewares/Third_Party/FreeRTOS/Source/portable/GCC/ARM_CM4_MPU/portmacro.h ****  *
  42:Middlewares/Third_Party/FreeRTOS/Source/portable/GCC/ARM_CM4_MPU/portmacro.h ****  * These settings should not be altered.
  43:Middlewares/Third_Party/FreeRTOS/Source/portable/GCC/ARM_CM4_MPU/portmacro.h ****  *-----------------------------------------------------------
  44:Middlewares/Third_Party/FreeRTOS/Source/portable/GCC/ARM_CM4_MPU/portmacro.h ****  */
  45:Middlewares/Third_Party/FreeRTOS/Source/portable/GCC/ARM_CM4_MPU/portmacro.h **** 
  46:Middlewares/Third_Party/FreeRTOS/Source/portable/GCC/ARM_CM4_MPU/portmacro.h **** /* Type definitions. */
  47:Middlewares/Third_Party/FreeRTOS/Source/portable/GCC/ARM_CM4_MPU/portmacro.h **** #define portCHAR		char
  48:Middlewares/Third_Party/FreeRTOS/Source/portable/GCC/ARM_CM4_MPU/portmacro.h **** #define portFLOAT		float
  49:Middlewares/Third_Party/FreeRTOS/Source/portable/GCC/ARM_CM4_MPU/portmacro.h **** #define portDOUBLE		double
  50:Middlewares/Third_Party/FreeRTOS/Source/portable/GCC/ARM_CM4_MPU/portmacro.h **** #define portLONG		long
  51:Middlewares/Third_Party/FreeRTOS/Source/portable/GCC/ARM_CM4_MPU/portmacro.h **** #define portSHORT		short
  52:Middlewares/Third_Party/FreeRTOS/Source/portable/GCC/ARM_CM4_MPU/portmacro.h **** #define portSTACK_TYPE	uint32_t
  53:Middlewares/Third_Party/FreeRTOS/Source/portable/GCC/ARM_CM4_MPU/portmacro.h **** #define portBASE_TYPE	long
  54:Middlewares/Third_Party/FreeRTOS/Source/portable/GCC/ARM_CM4_MPU/portmacro.h **** 
  55:Middlewares/Third_Party/FreeRTOS/Source/portable/GCC/ARM_CM4_MPU/portmacro.h **** typedef portSTACK_TYPE StackType_t;
  56:Middlewares/Third_Party/FreeRTOS/Source/portable/GCC/ARM_CM4_MPU/portmacro.h **** typedef long BaseType_t;
  57:Middlewares/Third_Party/FreeRTOS/Source/portable/GCC/ARM_CM4_MPU/portmacro.h **** typedef unsigned long UBaseType_t;
  58:Middlewares/Third_Party/FreeRTOS/Source/portable/GCC/ARM_CM4_MPU/portmacro.h **** 
  59:Middlewares/Third_Party/FreeRTOS/Source/portable/GCC/ARM_CM4_MPU/portmacro.h **** #if( configUSE_16_BIT_TICKS == 1 )
  60:Middlewares/Third_Party/FreeRTOS/Source/portable/GCC/ARM_CM4_MPU/portmacro.h **** 	typedef uint16_t TickType_t;
  61:Middlewares/Third_Party/FreeRTOS/Source/portable/GCC/ARM_CM4_MPU/portmacro.h **** 	#define portMAX_DELAY ( TickType_t ) 0xffff
  62:Middlewares/Third_Party/FreeRTOS/Source/portable/GCC/ARM_CM4_MPU/portmacro.h **** #else
  63:Middlewares/Third_Party/FreeRTOS/Source/portable/GCC/ARM_CM4_MPU/portmacro.h **** 	typedef uint32_t TickType_t;
  64:Middlewares/Third_Party/FreeRTOS/Source/portable/GCC/ARM_CM4_MPU/portmacro.h **** 	#define portMAX_DELAY ( TickType_t ) 0xffffffffUL
  65:Middlewares/Third_Party/FreeRTOS/Source/portable/GCC/ARM_CM4_MPU/portmacro.h **** 
  66:Middlewares/Third_Party/FreeRTOS/Source/portable/GCC/ARM_CM4_MPU/portmacro.h **** 	/* 32-bit tick type on a 32-bit architecture, so reads of the tick count do
  67:Middlewares/Third_Party/FreeRTOS/Source/portable/GCC/ARM_CM4_MPU/portmacro.h **** 	not need to be guarded with a critical section. */
  68:Middlewares/Third_Party/FreeRTOS/Source/portable/GCC/ARM_CM4_MPU/portmacro.h **** 	#define portTICK_TYPE_IS_ATOMIC 1
  69:Middlewares/Third_Party/FreeRTOS/Source/portable/GCC/ARM_CM4_MPU/portmacro.h **** #endif
  70:Middlewares/Third_Party/FreeRTOS/Source/portable/GCC/ARM_CM4_MPU/portmacro.h **** /*-----------------------------------------------------------*/
  71:Middlewares/Third_Party/FreeRTOS/Source/portable/GCC/ARM_CM4_MPU/portmacro.h **** 
  72:Middlewares/Third_Party/FreeRTOS/Source/portable/GCC/ARM_CM4_MPU/portmacro.h **** /* MPU specific constants. */
  73:Middlewares/Third_Party/FreeRTOS/Source/portable/GCC/ARM_CM4_MPU/portmacro.h **** #define portUSING_MPU_WRAPPERS		1
  74:Middlewares/Third_Party/FreeRTOS/Source/portable/GCC/ARM_CM4_MPU/portmacro.h **** #define portPRIVILEGE_BIT			( 0x80000000UL )
  75:Middlewares/Third_Party/FreeRTOS/Source/portable/GCC/ARM_CM4_MPU/portmacro.h **** 
  76:Middlewares/Third_Party/FreeRTOS/Source/portable/GCC/ARM_CM4_MPU/portmacro.h **** #define portMPU_REGION_READ_WRITE								( 0x03UL << 24UL )
  77:Middlewares/Third_Party/FreeRTOS/Source/portable/GCC/ARM_CM4_MPU/portmacro.h **** #define portMPU_REGION_PRIVILEGED_READ_ONLY						( 0x05UL << 24UL )
  78:Middlewares/Third_Party/FreeRTOS/Source/portable/GCC/ARM_CM4_MPU/portmacro.h **** #define portMPU_REGION_READ_ONLY								( 0x06UL << 24UL )
  79:Middlewares/Third_Party/FreeRTOS/Source/portable/GCC/ARM_CM4_MPU/portmacro.h **** #define portMPU_REGION_PRIVILEGED_READ_WRITE					( 0x01UL << 24UL )
  80:Middlewares/Third_Party/FreeRTOS/Source/portable/GCC/ARM_CM4_MPU/portmacro.h **** #define portMPU_REGION_PRIVILEGED_READ_WRITE_UNPRIV_READ_ONLY	( 0x02UL << 24UL )
  81:Middlewares/Third_Party/FreeRTOS/Source/portable/GCC/ARM_CM4_MPU/portmacro.h **** #define portMPU_REGION_CACHEABLE_BUFFERABLE						( 0x03UL << 16UL )
  82:Middlewares/Third_Party/FreeRTOS/Source/portable/GCC/ARM_CM4_MPU/portmacro.h **** #define portMPU_REGION_EXECUTE_NEVER							( 0x01UL << 28UL )
  83:Middlewares/Third_Party/FreeRTOS/Source/portable/GCC/ARM_CM4_MPU/portmacro.h **** 
  84:Middlewares/Third_Party/FreeRTOS/Source/portable/GCC/ARM_CM4_MPU/portmacro.h **** #define portUNPRIVILEGED_FLASH_REGION		( 0UL )
  85:Middlewares/Third_Party/FreeRTOS/Source/portable/GCC/ARM_CM4_MPU/portmacro.h **** #define portPRIVILEGED_FLASH_REGION			( 1UL )
ARM GAS  /tmp/ccb11GdC.s 			page 26


  86:Middlewares/Third_Party/FreeRTOS/Source/portable/GCC/ARM_CM4_MPU/portmacro.h **** #define portPRIVILEGED_RAM_REGION			( 2UL )
  87:Middlewares/Third_Party/FreeRTOS/Source/portable/GCC/ARM_CM4_MPU/portmacro.h **** #define portGENERAL_PERIPHERALS_REGION		( 3UL )
  88:Middlewares/Third_Party/FreeRTOS/Source/portable/GCC/ARM_CM4_MPU/portmacro.h **** #define portSTACK_REGION					( 4UL )
  89:Middlewares/Third_Party/FreeRTOS/Source/portable/GCC/ARM_CM4_MPU/portmacro.h **** #define portFIRST_CONFIGURABLE_REGION	    ( 5UL )
  90:Middlewares/Third_Party/FreeRTOS/Source/portable/GCC/ARM_CM4_MPU/portmacro.h **** #define portLAST_CONFIGURABLE_REGION		( 7UL )
  91:Middlewares/Third_Party/FreeRTOS/Source/portable/GCC/ARM_CM4_MPU/portmacro.h **** #define portNUM_CONFIGURABLE_REGIONS		( ( portLAST_CONFIGURABLE_REGION - portFIRST_CONFIGURABLE_REG
  92:Middlewares/Third_Party/FreeRTOS/Source/portable/GCC/ARM_CM4_MPU/portmacro.h **** #define portTOTAL_NUM_REGIONS				( portNUM_CONFIGURABLE_REGIONS + 1 ) /* Plus one to make space for
  93:Middlewares/Third_Party/FreeRTOS/Source/portable/GCC/ARM_CM4_MPU/portmacro.h **** 
  94:Middlewares/Third_Party/FreeRTOS/Source/portable/GCC/ARM_CM4_MPU/portmacro.h **** #define portSWITCH_TO_USER_MODE() __asm volatile ( " mrs r0, control \n orr r0, #1 \n msr control, 
  95:Middlewares/Third_Party/FreeRTOS/Source/portable/GCC/ARM_CM4_MPU/portmacro.h **** 
  96:Middlewares/Third_Party/FreeRTOS/Source/portable/GCC/ARM_CM4_MPU/portmacro.h **** typedef struct MPU_REGION_REGISTERS
  97:Middlewares/Third_Party/FreeRTOS/Source/portable/GCC/ARM_CM4_MPU/portmacro.h **** {
  98:Middlewares/Third_Party/FreeRTOS/Source/portable/GCC/ARM_CM4_MPU/portmacro.h **** 	uint32_t ulRegionBaseAddress;
  99:Middlewares/Third_Party/FreeRTOS/Source/portable/GCC/ARM_CM4_MPU/portmacro.h **** 	uint32_t ulRegionAttribute;
 100:Middlewares/Third_Party/FreeRTOS/Source/portable/GCC/ARM_CM4_MPU/portmacro.h **** } xMPU_REGION_REGISTERS;
 101:Middlewares/Third_Party/FreeRTOS/Source/portable/GCC/ARM_CM4_MPU/portmacro.h **** 
 102:Middlewares/Third_Party/FreeRTOS/Source/portable/GCC/ARM_CM4_MPU/portmacro.h **** /* Plus 1 to create space for the stack region. */
 103:Middlewares/Third_Party/FreeRTOS/Source/portable/GCC/ARM_CM4_MPU/portmacro.h **** typedef struct MPU_SETTINGS
 104:Middlewares/Third_Party/FreeRTOS/Source/portable/GCC/ARM_CM4_MPU/portmacro.h **** {
 105:Middlewares/Third_Party/FreeRTOS/Source/portable/GCC/ARM_CM4_MPU/portmacro.h **** 	xMPU_REGION_REGISTERS xRegion[ portTOTAL_NUM_REGIONS ];
 106:Middlewares/Third_Party/FreeRTOS/Source/portable/GCC/ARM_CM4_MPU/portmacro.h **** } xMPU_SETTINGS;
 107:Middlewares/Third_Party/FreeRTOS/Source/portable/GCC/ARM_CM4_MPU/portmacro.h **** 
 108:Middlewares/Third_Party/FreeRTOS/Source/portable/GCC/ARM_CM4_MPU/portmacro.h **** /* Architecture specifics. */
 109:Middlewares/Third_Party/FreeRTOS/Source/portable/GCC/ARM_CM4_MPU/portmacro.h **** #define portSTACK_GROWTH			( -1 )
 110:Middlewares/Third_Party/FreeRTOS/Source/portable/GCC/ARM_CM4_MPU/portmacro.h **** #define portTICK_PERIOD_MS			( ( TickType_t ) 1000 / configTICK_RATE_HZ )
 111:Middlewares/Third_Party/FreeRTOS/Source/portable/GCC/ARM_CM4_MPU/portmacro.h **** #define portBYTE_ALIGNMENT			8
 112:Middlewares/Third_Party/FreeRTOS/Source/portable/GCC/ARM_CM4_MPU/portmacro.h **** /*-----------------------------------------------------------*/
 113:Middlewares/Third_Party/FreeRTOS/Source/portable/GCC/ARM_CM4_MPU/portmacro.h **** 
 114:Middlewares/Third_Party/FreeRTOS/Source/portable/GCC/ARM_CM4_MPU/portmacro.h **** /* SVC numbers for various services. */
 115:Middlewares/Third_Party/FreeRTOS/Source/portable/GCC/ARM_CM4_MPU/portmacro.h **** #define portSVC_START_SCHEDULER				0
 116:Middlewares/Third_Party/FreeRTOS/Source/portable/GCC/ARM_CM4_MPU/portmacro.h **** #define portSVC_YIELD						1
 117:Middlewares/Third_Party/FreeRTOS/Source/portable/GCC/ARM_CM4_MPU/portmacro.h **** #define portSVC_RAISE_PRIVILEGE				2
 118:Middlewares/Third_Party/FreeRTOS/Source/portable/GCC/ARM_CM4_MPU/portmacro.h **** 
 119:Middlewares/Third_Party/FreeRTOS/Source/portable/GCC/ARM_CM4_MPU/portmacro.h **** /* Scheduler utilities. */
 120:Middlewares/Third_Party/FreeRTOS/Source/portable/GCC/ARM_CM4_MPU/portmacro.h **** 
 121:Middlewares/Third_Party/FreeRTOS/Source/portable/GCC/ARM_CM4_MPU/portmacro.h **** #define portYIELD()				__asm volatile ( "	SVC	%0	\n" :: "i" (portSVC_YIELD) : "memory" )
 122:Middlewares/Third_Party/FreeRTOS/Source/portable/GCC/ARM_CM4_MPU/portmacro.h **** #define portYIELD_WITHIN_API() 													\
 123:Middlewares/Third_Party/FreeRTOS/Source/portable/GCC/ARM_CM4_MPU/portmacro.h **** {																				\
 124:Middlewares/Third_Party/FreeRTOS/Source/portable/GCC/ARM_CM4_MPU/portmacro.h **** 	/* Set a PendSV to request a context switch. */								\
 125:Middlewares/Third_Party/FreeRTOS/Source/portable/GCC/ARM_CM4_MPU/portmacro.h **** 	portNVIC_INT_CTRL_REG = portNVIC_PENDSVSET_BIT;								\
 126:Middlewares/Third_Party/FreeRTOS/Source/portable/GCC/ARM_CM4_MPU/portmacro.h **** 																				\
 127:Middlewares/Third_Party/FreeRTOS/Source/portable/GCC/ARM_CM4_MPU/portmacro.h **** 	/* Barriers are normally not required but do ensure the code is completely	\
 128:Middlewares/Third_Party/FreeRTOS/Source/portable/GCC/ARM_CM4_MPU/portmacro.h **** 	within the specified behaviour for the architecture. */						\
 129:Middlewares/Third_Party/FreeRTOS/Source/portable/GCC/ARM_CM4_MPU/portmacro.h **** 	__asm volatile( "dsb" ::: "memory" );										\
 130:Middlewares/Third_Party/FreeRTOS/Source/portable/GCC/ARM_CM4_MPU/portmacro.h **** 	__asm volatile( "isb" );													\
 131:Middlewares/Third_Party/FreeRTOS/Source/portable/GCC/ARM_CM4_MPU/portmacro.h **** }
 132:Middlewares/Third_Party/FreeRTOS/Source/portable/GCC/ARM_CM4_MPU/portmacro.h **** 
 133:Middlewares/Third_Party/FreeRTOS/Source/portable/GCC/ARM_CM4_MPU/portmacro.h **** #define portNVIC_INT_CTRL_REG		( * ( ( volatile uint32_t * ) 0xe000ed04 ) )
 134:Middlewares/Third_Party/FreeRTOS/Source/portable/GCC/ARM_CM4_MPU/portmacro.h **** #define portNVIC_PENDSVSET_BIT		( 1UL << 28UL )
 135:Middlewares/Third_Party/FreeRTOS/Source/portable/GCC/ARM_CM4_MPU/portmacro.h **** #define portEND_SWITCHING_ISR( xSwitchRequired ) if( xSwitchRequired ) portNVIC_INT_CTRL_REG = port
 136:Middlewares/Third_Party/FreeRTOS/Source/portable/GCC/ARM_CM4_MPU/portmacro.h **** #define portYIELD_FROM_ISR( x ) portEND_SWITCHING_ISR( x )
 137:Middlewares/Third_Party/FreeRTOS/Source/portable/GCC/ARM_CM4_MPU/portmacro.h **** /*-----------------------------------------------------------*/
 138:Middlewares/Third_Party/FreeRTOS/Source/portable/GCC/ARM_CM4_MPU/portmacro.h **** 
 139:Middlewares/Third_Party/FreeRTOS/Source/portable/GCC/ARM_CM4_MPU/portmacro.h **** /* Critical section management. */
 140:Middlewares/Third_Party/FreeRTOS/Source/portable/GCC/ARM_CM4_MPU/portmacro.h **** extern void vPortEnterCritical( void );
 141:Middlewares/Third_Party/FreeRTOS/Source/portable/GCC/ARM_CM4_MPU/portmacro.h **** extern void vPortExitCritical( void );
 142:Middlewares/Third_Party/FreeRTOS/Source/portable/GCC/ARM_CM4_MPU/portmacro.h **** #define portSET_INTERRUPT_MASK_FROM_ISR()		ulPortRaiseBASEPRI()
ARM GAS  /tmp/ccb11GdC.s 			page 27


 143:Middlewares/Third_Party/FreeRTOS/Source/portable/GCC/ARM_CM4_MPU/portmacro.h **** #define portCLEAR_INTERRUPT_MASK_FROM_ISR(x)	vPortSetBASEPRI(x)
 144:Middlewares/Third_Party/FreeRTOS/Source/portable/GCC/ARM_CM4_MPU/portmacro.h **** #define portDISABLE_INTERRUPTS()				vPortRaiseBASEPRI()
 145:Middlewares/Third_Party/FreeRTOS/Source/portable/GCC/ARM_CM4_MPU/portmacro.h **** #define portENABLE_INTERRUPTS()					vPortSetBASEPRI(0)
 146:Middlewares/Third_Party/FreeRTOS/Source/portable/GCC/ARM_CM4_MPU/portmacro.h **** #define portENTER_CRITICAL()					vPortEnterCritical()
 147:Middlewares/Third_Party/FreeRTOS/Source/portable/GCC/ARM_CM4_MPU/portmacro.h **** #define portEXIT_CRITICAL()						vPortExitCritical()
 148:Middlewares/Third_Party/FreeRTOS/Source/portable/GCC/ARM_CM4_MPU/portmacro.h **** 
 149:Middlewares/Third_Party/FreeRTOS/Source/portable/GCC/ARM_CM4_MPU/portmacro.h **** /*-----------------------------------------------------------*/
 150:Middlewares/Third_Party/FreeRTOS/Source/portable/GCC/ARM_CM4_MPU/portmacro.h **** 
 151:Middlewares/Third_Party/FreeRTOS/Source/portable/GCC/ARM_CM4_MPU/portmacro.h **** /* Task function macros as described on the FreeRTOS.org WEB site.  These are
 152:Middlewares/Third_Party/FreeRTOS/Source/portable/GCC/ARM_CM4_MPU/portmacro.h **** not necessary for to use this port.  They are defined so the common demo files
 153:Middlewares/Third_Party/FreeRTOS/Source/portable/GCC/ARM_CM4_MPU/portmacro.h **** (which build with all the ports) will build. */
 154:Middlewares/Third_Party/FreeRTOS/Source/portable/GCC/ARM_CM4_MPU/portmacro.h **** #define portTASK_FUNCTION_PROTO( vFunction, pvParameters ) void vFunction( void *pvParameters )
 155:Middlewares/Third_Party/FreeRTOS/Source/portable/GCC/ARM_CM4_MPU/portmacro.h **** #define portTASK_FUNCTION( vFunction, pvParameters ) void vFunction( void *pvParameters )
 156:Middlewares/Third_Party/FreeRTOS/Source/portable/GCC/ARM_CM4_MPU/portmacro.h **** /*-----------------------------------------------------------*/
 157:Middlewares/Third_Party/FreeRTOS/Source/portable/GCC/ARM_CM4_MPU/portmacro.h **** 
 158:Middlewares/Third_Party/FreeRTOS/Source/portable/GCC/ARM_CM4_MPU/portmacro.h **** /* Architecture specific optimisations. */
 159:Middlewares/Third_Party/FreeRTOS/Source/portable/GCC/ARM_CM4_MPU/portmacro.h **** #ifndef configUSE_PORT_OPTIMISED_TASK_SELECTION
 160:Middlewares/Third_Party/FreeRTOS/Source/portable/GCC/ARM_CM4_MPU/portmacro.h **** 	#define configUSE_PORT_OPTIMISED_TASK_SELECTION 1
 161:Middlewares/Third_Party/FreeRTOS/Source/portable/GCC/ARM_CM4_MPU/portmacro.h **** #endif
 162:Middlewares/Third_Party/FreeRTOS/Source/portable/GCC/ARM_CM4_MPU/portmacro.h **** 
 163:Middlewares/Third_Party/FreeRTOS/Source/portable/GCC/ARM_CM4_MPU/portmacro.h **** #if configUSE_PORT_OPTIMISED_TASK_SELECTION == 1
 164:Middlewares/Third_Party/FreeRTOS/Source/portable/GCC/ARM_CM4_MPU/portmacro.h **** 
 165:Middlewares/Third_Party/FreeRTOS/Source/portable/GCC/ARM_CM4_MPU/portmacro.h **** 	/* Generic helper function. */
 166:Middlewares/Third_Party/FreeRTOS/Source/portable/GCC/ARM_CM4_MPU/portmacro.h **** 	__attribute__( ( always_inline ) ) static inline uint8_t ucPortCountLeadingZeros( uint32_t ulBitma
 167:Middlewares/Third_Party/FreeRTOS/Source/portable/GCC/ARM_CM4_MPU/portmacro.h **** 	{
 168:Middlewares/Third_Party/FreeRTOS/Source/portable/GCC/ARM_CM4_MPU/portmacro.h **** 	uint8_t ucReturn;
 169:Middlewares/Third_Party/FreeRTOS/Source/portable/GCC/ARM_CM4_MPU/portmacro.h **** 
 170:Middlewares/Third_Party/FreeRTOS/Source/portable/GCC/ARM_CM4_MPU/portmacro.h **** 		__asm volatile ( "clz %0, %1" : "=r" ( ucReturn ) : "r" ( ulBitmap ) : "memory" );
 171:Middlewares/Third_Party/FreeRTOS/Source/portable/GCC/ARM_CM4_MPU/portmacro.h **** 		return ucReturn;
 172:Middlewares/Third_Party/FreeRTOS/Source/portable/GCC/ARM_CM4_MPU/portmacro.h **** 	}
 173:Middlewares/Third_Party/FreeRTOS/Source/portable/GCC/ARM_CM4_MPU/portmacro.h **** 
 174:Middlewares/Third_Party/FreeRTOS/Source/portable/GCC/ARM_CM4_MPU/portmacro.h **** 	/* Check the configuration. */
 175:Middlewares/Third_Party/FreeRTOS/Source/portable/GCC/ARM_CM4_MPU/portmacro.h **** 	#if( configMAX_PRIORITIES > 32 )
 176:Middlewares/Third_Party/FreeRTOS/Source/portable/GCC/ARM_CM4_MPU/portmacro.h **** 		#error configUSE_PORT_OPTIMISED_TASK_SELECTION can only be set to 1 when configMAX_PRIORITIES is 
 177:Middlewares/Third_Party/FreeRTOS/Source/portable/GCC/ARM_CM4_MPU/portmacro.h **** 	#endif
 178:Middlewares/Third_Party/FreeRTOS/Source/portable/GCC/ARM_CM4_MPU/portmacro.h **** 
 179:Middlewares/Third_Party/FreeRTOS/Source/portable/GCC/ARM_CM4_MPU/portmacro.h **** 	/* Store/clear the ready priorities in a bit map. */
 180:Middlewares/Third_Party/FreeRTOS/Source/portable/GCC/ARM_CM4_MPU/portmacro.h **** 	#define portRECORD_READY_PRIORITY( uxPriority, uxReadyPriorities ) ( uxReadyPriorities ) |= ( 1UL 
 181:Middlewares/Third_Party/FreeRTOS/Source/portable/GCC/ARM_CM4_MPU/portmacro.h **** 	#define portRESET_READY_PRIORITY( uxPriority, uxReadyPriorities ) ( uxReadyPriorities ) &= ~( 1UL 
 182:Middlewares/Third_Party/FreeRTOS/Source/portable/GCC/ARM_CM4_MPU/portmacro.h **** 
 183:Middlewares/Third_Party/FreeRTOS/Source/portable/GCC/ARM_CM4_MPU/portmacro.h **** 	/*-----------------------------------------------------------*/
 184:Middlewares/Third_Party/FreeRTOS/Source/portable/GCC/ARM_CM4_MPU/portmacro.h **** 
 185:Middlewares/Third_Party/FreeRTOS/Source/portable/GCC/ARM_CM4_MPU/portmacro.h **** 	#define portGET_HIGHEST_PRIORITY( uxTopPriority, uxReadyPriorities ) uxTopPriority = ( 31UL - ( ui
 186:Middlewares/Third_Party/FreeRTOS/Source/portable/GCC/ARM_CM4_MPU/portmacro.h **** 
 187:Middlewares/Third_Party/FreeRTOS/Source/portable/GCC/ARM_CM4_MPU/portmacro.h **** #endif /* configUSE_PORT_OPTIMISED_TASK_SELECTION */
 188:Middlewares/Third_Party/FreeRTOS/Source/portable/GCC/ARM_CM4_MPU/portmacro.h **** 
 189:Middlewares/Third_Party/FreeRTOS/Source/portable/GCC/ARM_CM4_MPU/portmacro.h **** /*-----------------------------------------------------------*/
 190:Middlewares/Third_Party/FreeRTOS/Source/portable/GCC/ARM_CM4_MPU/portmacro.h **** 
 191:Middlewares/Third_Party/FreeRTOS/Source/portable/GCC/ARM_CM4_MPU/portmacro.h **** #ifdef configASSERT
 192:Middlewares/Third_Party/FreeRTOS/Source/portable/GCC/ARM_CM4_MPU/portmacro.h **** 	void vPortValidateInterruptPriority( void );
 193:Middlewares/Third_Party/FreeRTOS/Source/portable/GCC/ARM_CM4_MPU/portmacro.h **** 	#define portASSERT_IF_INTERRUPT_PRIORITY_INVALID() 	vPortValidateInterruptPriority()
 194:Middlewares/Third_Party/FreeRTOS/Source/portable/GCC/ARM_CM4_MPU/portmacro.h **** #endif
 195:Middlewares/Third_Party/FreeRTOS/Source/portable/GCC/ARM_CM4_MPU/portmacro.h **** 
 196:Middlewares/Third_Party/FreeRTOS/Source/portable/GCC/ARM_CM4_MPU/portmacro.h **** /* portNOP() is not required by this port. */
 197:Middlewares/Third_Party/FreeRTOS/Source/portable/GCC/ARM_CM4_MPU/portmacro.h **** #define portNOP()
 198:Middlewares/Third_Party/FreeRTOS/Source/portable/GCC/ARM_CM4_MPU/portmacro.h **** 
 199:Middlewares/Third_Party/FreeRTOS/Source/portable/GCC/ARM_CM4_MPU/portmacro.h **** #define portINLINE	__inline
ARM GAS  /tmp/ccb11GdC.s 			page 28


 200:Middlewares/Third_Party/FreeRTOS/Source/portable/GCC/ARM_CM4_MPU/portmacro.h **** 
 201:Middlewares/Third_Party/FreeRTOS/Source/portable/GCC/ARM_CM4_MPU/portmacro.h **** #ifndef portFORCE_INLINE
 202:Middlewares/Third_Party/FreeRTOS/Source/portable/GCC/ARM_CM4_MPU/portmacro.h **** 	#define portFORCE_INLINE inline __attribute__(( always_inline))
 203:Middlewares/Third_Party/FreeRTOS/Source/portable/GCC/ARM_CM4_MPU/portmacro.h **** #endif
 204:Middlewares/Third_Party/FreeRTOS/Source/portable/GCC/ARM_CM4_MPU/portmacro.h **** /*-----------------------------------------------------------*/
 205:Middlewares/Third_Party/FreeRTOS/Source/portable/GCC/ARM_CM4_MPU/portmacro.h **** 
 206:Middlewares/Third_Party/FreeRTOS/Source/portable/GCC/ARM_CM4_MPU/portmacro.h **** extern BaseType_t xIsPrivileged( void );
 207:Middlewares/Third_Party/FreeRTOS/Source/portable/GCC/ARM_CM4_MPU/portmacro.h **** extern void vResetPrivilege( void );
 208:Middlewares/Third_Party/FreeRTOS/Source/portable/GCC/ARM_CM4_MPU/portmacro.h **** 
 209:Middlewares/Third_Party/FreeRTOS/Source/portable/GCC/ARM_CM4_MPU/portmacro.h **** /**
 210:Middlewares/Third_Party/FreeRTOS/Source/portable/GCC/ARM_CM4_MPU/portmacro.h ****  * @brief Checks whether or not the processor is privileged.
 211:Middlewares/Third_Party/FreeRTOS/Source/portable/GCC/ARM_CM4_MPU/portmacro.h ****  *
 212:Middlewares/Third_Party/FreeRTOS/Source/portable/GCC/ARM_CM4_MPU/portmacro.h ****  * @return 1 if the processor is already privileged, 0 otherwise.
 213:Middlewares/Third_Party/FreeRTOS/Source/portable/GCC/ARM_CM4_MPU/portmacro.h ****  */
 214:Middlewares/Third_Party/FreeRTOS/Source/portable/GCC/ARM_CM4_MPU/portmacro.h **** #define portIS_PRIVILEGED()			xIsPrivileged()
 215:Middlewares/Third_Party/FreeRTOS/Source/portable/GCC/ARM_CM4_MPU/portmacro.h **** 
 216:Middlewares/Third_Party/FreeRTOS/Source/portable/GCC/ARM_CM4_MPU/portmacro.h **** /**
 217:Middlewares/Third_Party/FreeRTOS/Source/portable/GCC/ARM_CM4_MPU/portmacro.h ****  * @brief Raise an SVC request to raise privilege.
 218:Middlewares/Third_Party/FreeRTOS/Source/portable/GCC/ARM_CM4_MPU/portmacro.h **** */
 219:Middlewares/Third_Party/FreeRTOS/Source/portable/GCC/ARM_CM4_MPU/portmacro.h **** #define portRAISE_PRIVILEGE()		__asm volatile ( "svc %0 \n" :: "i" ( portSVC_RAISE_PRIVILEGE ) : "m
 220:Middlewares/Third_Party/FreeRTOS/Source/portable/GCC/ARM_CM4_MPU/portmacro.h **** 
 221:Middlewares/Third_Party/FreeRTOS/Source/portable/GCC/ARM_CM4_MPU/portmacro.h **** /**
 222:Middlewares/Third_Party/FreeRTOS/Source/portable/GCC/ARM_CM4_MPU/portmacro.h ****  * @brief Lowers the privilege level by setting the bit 0 of the CONTROL
 223:Middlewares/Third_Party/FreeRTOS/Source/portable/GCC/ARM_CM4_MPU/portmacro.h ****  * register.
 224:Middlewares/Third_Party/FreeRTOS/Source/portable/GCC/ARM_CM4_MPU/portmacro.h ****  */
 225:Middlewares/Third_Party/FreeRTOS/Source/portable/GCC/ARM_CM4_MPU/portmacro.h **** #define portRESET_PRIVILEGE()		vResetPrivilege()
 226:Middlewares/Third_Party/FreeRTOS/Source/portable/GCC/ARM_CM4_MPU/portmacro.h **** /*-----------------------------------------------------------*/
 227:Middlewares/Third_Party/FreeRTOS/Source/portable/GCC/ARM_CM4_MPU/portmacro.h **** 
 228:Middlewares/Third_Party/FreeRTOS/Source/portable/GCC/ARM_CM4_MPU/portmacro.h **** portFORCE_INLINE static BaseType_t xPortIsInsideInterrupt( void )
 229:Middlewares/Third_Party/FreeRTOS/Source/portable/GCC/ARM_CM4_MPU/portmacro.h **** {
 230:Middlewares/Third_Party/FreeRTOS/Source/portable/GCC/ARM_CM4_MPU/portmacro.h **** uint32_t ulCurrentInterrupt;
 231:Middlewares/Third_Party/FreeRTOS/Source/portable/GCC/ARM_CM4_MPU/portmacro.h **** BaseType_t xReturn;
 232:Middlewares/Third_Party/FreeRTOS/Source/portable/GCC/ARM_CM4_MPU/portmacro.h **** 
 233:Middlewares/Third_Party/FreeRTOS/Source/portable/GCC/ARM_CM4_MPU/portmacro.h **** 	/* Obtain the number of the currently executing interrupt. */
 234:Middlewares/Third_Party/FreeRTOS/Source/portable/GCC/ARM_CM4_MPU/portmacro.h **** 	__asm volatile( "mrs %0, ipsr" : "=r"( ulCurrentInterrupt ) :: "memory" );
 235:Middlewares/Third_Party/FreeRTOS/Source/portable/GCC/ARM_CM4_MPU/portmacro.h **** 
 236:Middlewares/Third_Party/FreeRTOS/Source/portable/GCC/ARM_CM4_MPU/portmacro.h **** 	if( ulCurrentInterrupt == 0 )
 237:Middlewares/Third_Party/FreeRTOS/Source/portable/GCC/ARM_CM4_MPU/portmacro.h **** 	{
 238:Middlewares/Third_Party/FreeRTOS/Source/portable/GCC/ARM_CM4_MPU/portmacro.h **** 		xReturn = pdFALSE;
 239:Middlewares/Third_Party/FreeRTOS/Source/portable/GCC/ARM_CM4_MPU/portmacro.h **** 	}
 240:Middlewares/Third_Party/FreeRTOS/Source/portable/GCC/ARM_CM4_MPU/portmacro.h **** 	else
 241:Middlewares/Third_Party/FreeRTOS/Source/portable/GCC/ARM_CM4_MPU/portmacro.h **** 	{
 242:Middlewares/Third_Party/FreeRTOS/Source/portable/GCC/ARM_CM4_MPU/portmacro.h **** 		xReturn = pdTRUE;
 243:Middlewares/Third_Party/FreeRTOS/Source/portable/GCC/ARM_CM4_MPU/portmacro.h **** 	}
 244:Middlewares/Third_Party/FreeRTOS/Source/portable/GCC/ARM_CM4_MPU/portmacro.h **** 
 245:Middlewares/Third_Party/FreeRTOS/Source/portable/GCC/ARM_CM4_MPU/portmacro.h **** 	return xReturn;
 246:Middlewares/Third_Party/FreeRTOS/Source/portable/GCC/ARM_CM4_MPU/portmacro.h **** }
 247:Middlewares/Third_Party/FreeRTOS/Source/portable/GCC/ARM_CM4_MPU/portmacro.h **** 
 248:Middlewares/Third_Party/FreeRTOS/Source/portable/GCC/ARM_CM4_MPU/portmacro.h **** /*-----------------------------------------------------------*/
 249:Middlewares/Third_Party/FreeRTOS/Source/portable/GCC/ARM_CM4_MPU/portmacro.h **** 
 250:Middlewares/Third_Party/FreeRTOS/Source/portable/GCC/ARM_CM4_MPU/portmacro.h **** portFORCE_INLINE static void vPortRaiseBASEPRI( void )
 502              		.loc 2 250 30 view .LVU132
 503              	.LBB22:
 251:Middlewares/Third_Party/FreeRTOS/Source/portable/GCC/ARM_CM4_MPU/portmacro.h **** {
 252:Middlewares/Third_Party/FreeRTOS/Source/portable/GCC/ARM_CM4_MPU/portmacro.h **** uint32_t ulNewBASEPRI;
 504              		.loc 2 252 1 view .LVU133
 253:Middlewares/Third_Party/FreeRTOS/Source/portable/GCC/ARM_CM4_MPU/portmacro.h **** 
ARM GAS  /tmp/ccb11GdC.s 			page 29


 254:Middlewares/Third_Party/FreeRTOS/Source/portable/GCC/ARM_CM4_MPU/portmacro.h **** 	__asm volatile
 505              		.loc 2 254 2 view .LVU134
 506              		.syntax unified
 507              	@ 254 "Middlewares/Third_Party/FreeRTOS/Source/portable/GCC/ARM_CM4_MPU/portmacro.h" 1
 508 01de 4FF05003 			mov r3, #80												
 509 01e2 83F31188 		msr basepri, r3											
 510 01e6 BFF36F8F 		isb														
 511 01ea BFF34F8F 		dsb														
 512              	
 513              	@ 0 "" 2
 514              	.LVL37:
 515              		.thumb
 516              		.syntax unified
 517              	.L27:
 518              		.loc 2 254 2 is_stmt 0 view .LVU135
 519              	.LBE22:
 520              	.LBE21:
 494:Middlewares/Third_Party/FreeRTOS/Source/portable/GCC/ARM_CM4_MPU/port.c **** }
 521              		.loc 1 494 2 is_stmt 1 discriminator 1 view .LVU136
 494:Middlewares/Third_Party/FreeRTOS/Source/portable/GCC/ARM_CM4_MPU/port.c **** }
 522              		.loc 1 494 2 discriminator 1 view .LVU137
 523 01ee FEE7     		b	.L27
 524              	.L25:
 495:Middlewares/Third_Party/FreeRTOS/Source/portable/GCC/ARM_CM4_MPU/port.c **** /*-----------------------------------------------------------*/
 525              		.loc 1 495 1 is_stmt 0 view .LVU138
 526 01f0 7047     		bx	lr
 527              	.L29:
 528 01f2 00BF     		.align	2
 529              	.L28:
 530 01f4 00000000 		.word	uxCriticalNesting
 531              		.cfi_endproc
 532              	.LFE10:
 534              		.align	1
 535              		.global	vPortStoreTaskMPUSettings
 536              		.syntax unified
 537              		.thumb
 538              		.thumb_func
 540              	vPortStoreTaskMPUSettings:
 541              	.LVL38:
 542              	.LFB21:
 733:Middlewares/Third_Party/FreeRTOS/Source/portable/GCC/ARM_CM4_MPU/port.c **** /*-----------------------------------------------------------*/
 734:Middlewares/Third_Party/FreeRTOS/Source/portable/GCC/ARM_CM4_MPU/port.c **** 
 735:Middlewares/Third_Party/FreeRTOS/Source/portable/GCC/ARM_CM4_MPU/port.c **** BaseType_t xIsPrivileged( void ) /* __attribute__ (( naked )) */
 736:Middlewares/Third_Party/FreeRTOS/Source/portable/GCC/ARM_CM4_MPU/port.c **** {
 737:Middlewares/Third_Party/FreeRTOS/Source/portable/GCC/ARM_CM4_MPU/port.c **** 	__asm volatile
 738:Middlewares/Third_Party/FreeRTOS/Source/portable/GCC/ARM_CM4_MPU/port.c **** 	(
 739:Middlewares/Third_Party/FreeRTOS/Source/portable/GCC/ARM_CM4_MPU/port.c **** 	"	mrs r0, control							\n" /* r0 = CONTROL. */
 740:Middlewares/Third_Party/FreeRTOS/Source/portable/GCC/ARM_CM4_MPU/port.c **** 	"	tst r0, #1								\n" /* Perform r0 & 1 (bitwise AND) and update the conditions flag. */
 741:Middlewares/Third_Party/FreeRTOS/Source/portable/GCC/ARM_CM4_MPU/port.c **** 	"	ite ne									\n"
 742:Middlewares/Third_Party/FreeRTOS/Source/portable/GCC/ARM_CM4_MPU/port.c **** 	"	movne r0, #0							\n" /* CONTROL[0]!=0. Return false to indicate that the processor is not priv
 743:Middlewares/Third_Party/FreeRTOS/Source/portable/GCC/ARM_CM4_MPU/port.c **** 	"	moveq r0, #1							\n" /* CONTROL[0]==0. Return true to indicate that the processor is privilege
 744:Middlewares/Third_Party/FreeRTOS/Source/portable/GCC/ARM_CM4_MPU/port.c **** 	"	bx lr									\n" /* Return. */
 745:Middlewares/Third_Party/FreeRTOS/Source/portable/GCC/ARM_CM4_MPU/port.c **** 	"											\n"
 746:Middlewares/Third_Party/FreeRTOS/Source/portable/GCC/ARM_CM4_MPU/port.c **** 	"	.align 4								\n"
 747:Middlewares/Third_Party/FreeRTOS/Source/portable/GCC/ARM_CM4_MPU/port.c **** 	::: "r0", "memory"
 748:Middlewares/Third_Party/FreeRTOS/Source/portable/GCC/ARM_CM4_MPU/port.c **** 	);
 749:Middlewares/Third_Party/FreeRTOS/Source/portable/GCC/ARM_CM4_MPU/port.c **** }
ARM GAS  /tmp/ccb11GdC.s 			page 30


 750:Middlewares/Third_Party/FreeRTOS/Source/portable/GCC/ARM_CM4_MPU/port.c **** /*-----------------------------------------------------------*/
 751:Middlewares/Third_Party/FreeRTOS/Source/portable/GCC/ARM_CM4_MPU/port.c **** 
 752:Middlewares/Third_Party/FreeRTOS/Source/portable/GCC/ARM_CM4_MPU/port.c **** void vResetPrivilege( void ) /* __attribute__ (( naked )) */
 753:Middlewares/Third_Party/FreeRTOS/Source/portable/GCC/ARM_CM4_MPU/port.c **** {
 754:Middlewares/Third_Party/FreeRTOS/Source/portable/GCC/ARM_CM4_MPU/port.c **** 	__asm volatile
 755:Middlewares/Third_Party/FreeRTOS/Source/portable/GCC/ARM_CM4_MPU/port.c **** 	(
 756:Middlewares/Third_Party/FreeRTOS/Source/portable/GCC/ARM_CM4_MPU/port.c **** 	"	mrs r0, control							\n" /* r0 = CONTROL. */
 757:Middlewares/Third_Party/FreeRTOS/Source/portable/GCC/ARM_CM4_MPU/port.c **** 	"	orr r0, #1								\n" /* r0 = r0 | 1. */
 758:Middlewares/Third_Party/FreeRTOS/Source/portable/GCC/ARM_CM4_MPU/port.c **** 	"	msr control, r0							\n" /* CONTROL = r0. */
 759:Middlewares/Third_Party/FreeRTOS/Source/portable/GCC/ARM_CM4_MPU/port.c **** 	"	bx lr									\n" /* Return to the caller. */
 760:Middlewares/Third_Party/FreeRTOS/Source/portable/GCC/ARM_CM4_MPU/port.c **** 	:::"r0", "memory"
 761:Middlewares/Third_Party/FreeRTOS/Source/portable/GCC/ARM_CM4_MPU/port.c **** 	);
 762:Middlewares/Third_Party/FreeRTOS/Source/portable/GCC/ARM_CM4_MPU/port.c **** }
 763:Middlewares/Third_Party/FreeRTOS/Source/portable/GCC/ARM_CM4_MPU/port.c **** /*-----------------------------------------------------------*/
 764:Middlewares/Third_Party/FreeRTOS/Source/portable/GCC/ARM_CM4_MPU/port.c **** 
 765:Middlewares/Third_Party/FreeRTOS/Source/portable/GCC/ARM_CM4_MPU/port.c **** void vPortStoreTaskMPUSettings( xMPU_SETTINGS *xMPUSettings, const struct xMEMORY_REGION * const xR
 766:Middlewares/Third_Party/FreeRTOS/Source/portable/GCC/ARM_CM4_MPU/port.c **** {
 543              		.loc 1 766 1 is_stmt 1 view -0
 544              		.cfi_startproc
 545              		@ args = 0, pretend = 0, frame = 0
 546              		@ frame_needed = 0, uses_anonymous_args = 0
 547              		.loc 1 766 1 is_stmt 0 view .LVU140
 548 01f8 2DE9F041 		push	{r4, r5, r6, r7, r8, lr}
 549              		.cfi_def_cfa_offset 24
 550              		.cfi_offset 4, -24
 551              		.cfi_offset 5, -20
 552              		.cfi_offset 6, -16
 553              		.cfi_offset 7, -12
 554              		.cfi_offset 8, -8
 555              		.cfi_offset 14, -4
 556 01fc 0646     		mov	r6, r0
 767:Middlewares/Third_Party/FreeRTOS/Source/portable/GCC/ARM_CM4_MPU/port.c **** #if defined( __ARMCC_VERSION )
 768:Middlewares/Third_Party/FreeRTOS/Source/portable/GCC/ARM_CM4_MPU/port.c **** 	/* Declaration when these variable are defined in code instead of being
 769:Middlewares/Third_Party/FreeRTOS/Source/portable/GCC/ARM_CM4_MPU/port.c **** 	 * exported from linker scripts. */
 770:Middlewares/Third_Party/FreeRTOS/Source/portable/GCC/ARM_CM4_MPU/port.c **** 	extern uint32_t * __SRAM_segment_start__;
 771:Middlewares/Third_Party/FreeRTOS/Source/portable/GCC/ARM_CM4_MPU/port.c **** 	extern uint32_t * __SRAM_segment_end__;
 772:Middlewares/Third_Party/FreeRTOS/Source/portable/GCC/ARM_CM4_MPU/port.c **** 	extern uint32_t * __privileged_data_start__;
 773:Middlewares/Third_Party/FreeRTOS/Source/portable/GCC/ARM_CM4_MPU/port.c **** 	extern uint32_t * __privileged_data_end__;
 774:Middlewares/Third_Party/FreeRTOS/Source/portable/GCC/ARM_CM4_MPU/port.c **** #else
 775:Middlewares/Third_Party/FreeRTOS/Source/portable/GCC/ARM_CM4_MPU/port.c **** 	/* Declaration when these variable are exported from linker scripts. */
 776:Middlewares/Third_Party/FreeRTOS/Source/portable/GCC/ARM_CM4_MPU/port.c **** 	extern uint32_t __SRAM_segment_start__[];
 557              		.loc 1 776 2 is_stmt 1 view .LVU141
 777:Middlewares/Third_Party/FreeRTOS/Source/portable/GCC/ARM_CM4_MPU/port.c **** 	extern uint32_t __SRAM_segment_end__[];
 558              		.loc 1 777 2 view .LVU142
 778:Middlewares/Third_Party/FreeRTOS/Source/portable/GCC/ARM_CM4_MPU/port.c **** 	extern uint32_t __privileged_data_start__[];
 559              		.loc 1 778 2 view .LVU143
 779:Middlewares/Third_Party/FreeRTOS/Source/portable/GCC/ARM_CM4_MPU/port.c **** 	extern uint32_t __privileged_data_end__[];
 560              		.loc 1 779 2 view .LVU144
 780:Middlewares/Third_Party/FreeRTOS/Source/portable/GCC/ARM_CM4_MPU/port.c **** #endif
 781:Middlewares/Third_Party/FreeRTOS/Source/portable/GCC/ARM_CM4_MPU/port.c **** 
 782:Middlewares/Third_Party/FreeRTOS/Source/portable/GCC/ARM_CM4_MPU/port.c **** int32_t lIndex;
 561              		.loc 1 782 1 view .LVU145
 783:Middlewares/Third_Party/FreeRTOS/Source/portable/GCC/ARM_CM4_MPU/port.c **** uint32_t ul;
 562              		.loc 1 783 1 view .LVU146
 784:Middlewares/Third_Party/FreeRTOS/Source/portable/GCC/ARM_CM4_MPU/port.c **** 
 785:Middlewares/Third_Party/FreeRTOS/Source/portable/GCC/ARM_CM4_MPU/port.c **** 	if( xRegions == NULL )
 563              		.loc 1 785 2 view .LVU147
ARM GAS  /tmp/ccb11GdC.s 			page 31


 564              		.loc 1 785 4 is_stmt 0 view .LVU148
 565 01fe 69B1     		cbz	r1, .L41
 566 0200 8846     		mov	r8, r1
 786:Middlewares/Third_Party/FreeRTOS/Source/portable/GCC/ARM_CM4_MPU/port.c **** 	{
 787:Middlewares/Third_Party/FreeRTOS/Source/portable/GCC/ARM_CM4_MPU/port.c **** 		/* No MPU regions are specified so allow access to all RAM. */
 788:Middlewares/Third_Party/FreeRTOS/Source/portable/GCC/ARM_CM4_MPU/port.c **** 		xMPUSettings->xRegion[ 0 ].ulRegionBaseAddress =
 789:Middlewares/Third_Party/FreeRTOS/Source/portable/GCC/ARM_CM4_MPU/port.c **** 				( ( uint32_t ) __SRAM_segment_start__ ) | /* Base address. */
 790:Middlewares/Third_Party/FreeRTOS/Source/portable/GCC/ARM_CM4_MPU/port.c **** 				( portMPU_REGION_VALID ) |
 791:Middlewares/Third_Party/FreeRTOS/Source/portable/GCC/ARM_CM4_MPU/port.c **** 				( portSTACK_REGION );
 792:Middlewares/Third_Party/FreeRTOS/Source/portable/GCC/ARM_CM4_MPU/port.c **** 
 793:Middlewares/Third_Party/FreeRTOS/Source/portable/GCC/ARM_CM4_MPU/port.c **** 		xMPUSettings->xRegion[ 0 ].ulRegionAttribute =
 794:Middlewares/Third_Party/FreeRTOS/Source/portable/GCC/ARM_CM4_MPU/port.c **** 				( portMPU_REGION_READ_WRITE ) |
 795:Middlewares/Third_Party/FreeRTOS/Source/portable/GCC/ARM_CM4_MPU/port.c **** 				( portMPU_REGION_CACHEABLE_BUFFERABLE ) |
 796:Middlewares/Third_Party/FreeRTOS/Source/portable/GCC/ARM_CM4_MPU/port.c **** 				( prvGetMPURegionSizeSetting( ( uint32_t ) __SRAM_segment_end__ - ( uint32_t ) __SRAM_segment_s
 797:Middlewares/Third_Party/FreeRTOS/Source/portable/GCC/ARM_CM4_MPU/port.c **** 				( portMPU_REGION_ENABLE );
 798:Middlewares/Third_Party/FreeRTOS/Source/portable/GCC/ARM_CM4_MPU/port.c **** 
 799:Middlewares/Third_Party/FreeRTOS/Source/portable/GCC/ARM_CM4_MPU/port.c **** 		/* Re-instate the privileged only RAM region as xRegion[ 0 ] will have
 800:Middlewares/Third_Party/FreeRTOS/Source/portable/GCC/ARM_CM4_MPU/port.c **** 		just removed the privileged only parameters. */
 801:Middlewares/Third_Party/FreeRTOS/Source/portable/GCC/ARM_CM4_MPU/port.c **** 		xMPUSettings->xRegion[ 1 ].ulRegionBaseAddress =
 802:Middlewares/Third_Party/FreeRTOS/Source/portable/GCC/ARM_CM4_MPU/port.c **** 				( ( uint32_t ) __privileged_data_start__ ) | /* Base address. */
 803:Middlewares/Third_Party/FreeRTOS/Source/portable/GCC/ARM_CM4_MPU/port.c **** 				( portMPU_REGION_VALID ) |
 804:Middlewares/Third_Party/FreeRTOS/Source/portable/GCC/ARM_CM4_MPU/port.c **** 				( portSTACK_REGION + 1 );
 805:Middlewares/Third_Party/FreeRTOS/Source/portable/GCC/ARM_CM4_MPU/port.c **** 
 806:Middlewares/Third_Party/FreeRTOS/Source/portable/GCC/ARM_CM4_MPU/port.c **** 		xMPUSettings->xRegion[ 1 ].ulRegionAttribute =
 807:Middlewares/Third_Party/FreeRTOS/Source/portable/GCC/ARM_CM4_MPU/port.c **** 				( portMPU_REGION_PRIVILEGED_READ_WRITE ) |
 808:Middlewares/Third_Party/FreeRTOS/Source/portable/GCC/ARM_CM4_MPU/port.c **** 				( portMPU_REGION_CACHEABLE_BUFFERABLE ) |
 809:Middlewares/Third_Party/FreeRTOS/Source/portable/GCC/ARM_CM4_MPU/port.c **** 				prvGetMPURegionSizeSetting( ( uint32_t ) __privileged_data_end__ - ( uint32_t ) __privileged_da
 810:Middlewares/Third_Party/FreeRTOS/Source/portable/GCC/ARM_CM4_MPU/port.c **** 				( portMPU_REGION_ENABLE );
 811:Middlewares/Third_Party/FreeRTOS/Source/portable/GCC/ARM_CM4_MPU/port.c **** 
 812:Middlewares/Third_Party/FreeRTOS/Source/portable/GCC/ARM_CM4_MPU/port.c **** 		/* Invalidate all other regions. */
 813:Middlewares/Third_Party/FreeRTOS/Source/portable/GCC/ARM_CM4_MPU/port.c **** 		for( ul = 2; ul <= portNUM_CONFIGURABLE_REGIONS; ul++ )
 814:Middlewares/Third_Party/FreeRTOS/Source/portable/GCC/ARM_CM4_MPU/port.c **** 		{
 815:Middlewares/Third_Party/FreeRTOS/Source/portable/GCC/ARM_CM4_MPU/port.c **** 			xMPUSettings->xRegion[ ul ].ulRegionBaseAddress = ( portSTACK_REGION + ul ) | portMPU_REGION_VAL
 816:Middlewares/Third_Party/FreeRTOS/Source/portable/GCC/ARM_CM4_MPU/port.c **** 			xMPUSettings->xRegion[ ul ].ulRegionAttribute = 0UL;
 817:Middlewares/Third_Party/FreeRTOS/Source/portable/GCC/ARM_CM4_MPU/port.c **** 		}
 818:Middlewares/Third_Party/FreeRTOS/Source/portable/GCC/ARM_CM4_MPU/port.c **** 	}
 819:Middlewares/Third_Party/FreeRTOS/Source/portable/GCC/ARM_CM4_MPU/port.c **** 	else
 820:Middlewares/Third_Party/FreeRTOS/Source/portable/GCC/ARM_CM4_MPU/port.c **** 	{
 821:Middlewares/Third_Party/FreeRTOS/Source/portable/GCC/ARM_CM4_MPU/port.c **** 		/* This function is called automatically when the task is created - in
 822:Middlewares/Third_Party/FreeRTOS/Source/portable/GCC/ARM_CM4_MPU/port.c **** 		which case the stack region parameters will be valid.  At all other
 823:Middlewares/Third_Party/FreeRTOS/Source/portable/GCC/ARM_CM4_MPU/port.c **** 		times the stack parameters will not be valid and it is assumed that the
 824:Middlewares/Third_Party/FreeRTOS/Source/portable/GCC/ARM_CM4_MPU/port.c **** 		stack region has already been configured. */
 825:Middlewares/Third_Party/FreeRTOS/Source/portable/GCC/ARM_CM4_MPU/port.c **** 		if( ulStackDepth > 0 )
 567              		.loc 1 825 3 is_stmt 1 view .LVU149
 568              		.loc 1 825 5 is_stmt 0 view .LVU150
 569 0202 43B1     		cbz	r3, .L35
 826:Middlewares/Third_Party/FreeRTOS/Source/portable/GCC/ARM_CM4_MPU/port.c **** 		{
 827:Middlewares/Third_Party/FreeRTOS/Source/portable/GCC/ARM_CM4_MPU/port.c **** 			/* Define the region that allows access to the stack. */
 828:Middlewares/Third_Party/FreeRTOS/Source/portable/GCC/ARM_CM4_MPU/port.c **** 			xMPUSettings->xRegion[ 0 ].ulRegionBaseAddress =
 570              		.loc 1 828 4 is_stmt 1 view .LVU151
 829:Middlewares/Third_Party/FreeRTOS/Source/portable/GCC/ARM_CM4_MPU/port.c **** 					( ( uint32_t ) pxBottomOfStack ) |
 830:Middlewares/Third_Party/FreeRTOS/Source/portable/GCC/ARM_CM4_MPU/port.c **** 					( portMPU_REGION_VALID ) |
 571              		.loc 1 830 31 is_stmt 0 view .LVU152
 572 0204 42F01402 		orr	r2, r2, #20
 573              	.LVL39:
 828:Middlewares/Third_Party/FreeRTOS/Source/portable/GCC/ARM_CM4_MPU/port.c **** 					( ( uint32_t ) pxBottomOfStack ) |
 574              		.loc 1 828 51 view .LVU153
ARM GAS  /tmp/ccb11GdC.s 			page 32


 575 0208 0260     		str	r2, [r0]
 831:Middlewares/Third_Party/FreeRTOS/Source/portable/GCC/ARM_CM4_MPU/port.c **** 					( portSTACK_REGION ); /* Region number. */
 832:Middlewares/Third_Party/FreeRTOS/Source/portable/GCC/ARM_CM4_MPU/port.c **** 
 833:Middlewares/Third_Party/FreeRTOS/Source/portable/GCC/ARM_CM4_MPU/port.c **** 			xMPUSettings->xRegion[ 0 ].ulRegionAttribute =
 576              		.loc 1 833 4 is_stmt 1 view .LVU154
 834:Middlewares/Third_Party/FreeRTOS/Source/portable/GCC/ARM_CM4_MPU/port.c **** 					( portMPU_REGION_READ_WRITE ) | /* Read and write. */
 835:Middlewares/Third_Party/FreeRTOS/Source/portable/GCC/ARM_CM4_MPU/port.c **** 					( prvGetMPURegionSizeSetting( ulStackDepth * ( uint32_t ) sizeof( StackType_t ) ) ) |
 577              		.loc 1 835 8 is_stmt 0 view .LVU155
 578 020a 9800     		lsls	r0, r3, #2
 579              	.LVL40:
 580              		.loc 1 835 8 view .LVU156
 581 020c FFF7F8FE 		bl	prvGetMPURegionSizeSetting
 582              	.LVL41:
 836:Middlewares/Third_Party/FreeRTOS/Source/portable/GCC/ARM_CM4_MPU/port.c **** 					( portMPU_REGION_CACHEABLE_BUFFERABLE ) |
 583              		.loc 1 836 46 view .LVU157
 584 0210 2A4B     		ldr	r3, .L42
 585 0212 0343     		orrs	r3, r3, r0
 833:Middlewares/Third_Party/FreeRTOS/Source/portable/GCC/ARM_CM4_MPU/port.c **** 					( portMPU_REGION_READ_WRITE ) | /* Read and write. */
 586              		.loc 1 833 49 view .LVU158
 587 0214 7360     		str	r3, [r6, #4]
 588              	.L35:
 813:Middlewares/Third_Party/FreeRTOS/Source/portable/GCC/ARM_CM4_MPU/port.c **** 		{
 589              		.loc 1 813 11 discriminator 1 view .LVU159
 590 0216 0124     		movs	r4, #1
 591 0218 0027     		movs	r7, #0
 592 021a 32E0     		b	.L36
 593              	.LVL42:
 594              	.L41:
 788:Middlewares/Third_Party/FreeRTOS/Source/portable/GCC/ARM_CM4_MPU/port.c **** 				( ( uint32_t ) __SRAM_segment_start__ ) | /* Base address. */
 595              		.loc 1 788 3 is_stmt 1 view .LVU160
 789:Middlewares/Third_Party/FreeRTOS/Source/portable/GCC/ARM_CM4_MPU/port.c **** 				( portMPU_REGION_VALID ) |
 596              		.loc 1 789 7 is_stmt 0 view .LVU161
 597 021c 284B     		ldr	r3, .L42+4
 598              	.LVL43:
 790:Middlewares/Third_Party/FreeRTOS/Source/portable/GCC/ARM_CM4_MPU/port.c **** 				( portSTACK_REGION );
 599              		.loc 1 790 30 view .LVU162
 600 021e 43F01402 		orr	r2, r3, #20
 601              	.LVL44:
 788:Middlewares/Third_Party/FreeRTOS/Source/portable/GCC/ARM_CM4_MPU/port.c **** 				( ( uint32_t ) __SRAM_segment_start__ ) | /* Base address. */
 602              		.loc 1 788 50 view .LVU163
 603 0222 0260     		str	r2, [r0]
 793:Middlewares/Third_Party/FreeRTOS/Source/portable/GCC/ARM_CM4_MPU/port.c **** 				( portMPU_REGION_READ_WRITE ) |
 604              		.loc 1 793 3 is_stmt 1 view .LVU164
 796:Middlewares/Third_Party/FreeRTOS/Source/portable/GCC/ARM_CM4_MPU/port.c **** 				( portMPU_REGION_ENABLE );
 605              		.loc 1 796 7 is_stmt 0 view .LVU165
 606 0224 2748     		ldr	r0, .L42+8
 607              	.LVL45:
 796:Middlewares/Third_Party/FreeRTOS/Source/portable/GCC/ARM_CM4_MPU/port.c **** 				( portMPU_REGION_ENABLE );
 608              		.loc 1 796 7 view .LVU166
 609 0226 C01A     		subs	r0, r0, r3
 610 0228 FFF7EAFE 		bl	prvGetMPURegionSizeSetting
 611              	.LVL46:
 796:Middlewares/Third_Party/FreeRTOS/Source/portable/GCC/ARM_CM4_MPU/port.c **** 				( portMPU_REGION_ENABLE );
 612              		.loc 1 796 111 view .LVU167
 613 022c 234B     		ldr	r3, .L42
 614 022e 0343     		orrs	r3, r3, r0
 793:Middlewares/Third_Party/FreeRTOS/Source/portable/GCC/ARM_CM4_MPU/port.c **** 				( portMPU_REGION_READ_WRITE ) |
ARM GAS  /tmp/ccb11GdC.s 			page 33


 615              		.loc 1 793 48 view .LVU168
 616 0230 7360     		str	r3, [r6, #4]
 801:Middlewares/Third_Party/FreeRTOS/Source/portable/GCC/ARM_CM4_MPU/port.c **** 				( ( uint32_t ) __privileged_data_start__ ) | /* Base address. */
 617              		.loc 1 801 3 is_stmt 1 view .LVU169
 802:Middlewares/Third_Party/FreeRTOS/Source/portable/GCC/ARM_CM4_MPU/port.c **** 				( portMPU_REGION_VALID ) |
 618              		.loc 1 802 7 is_stmt 0 view .LVU170
 619 0232 254B     		ldr	r3, .L42+12
 803:Middlewares/Third_Party/FreeRTOS/Source/portable/GCC/ARM_CM4_MPU/port.c **** 				( portSTACK_REGION + 1 );
 620              		.loc 1 803 30 view .LVU171
 621 0234 43F01502 		orr	r2, r3, #21
 801:Middlewares/Third_Party/FreeRTOS/Source/portable/GCC/ARM_CM4_MPU/port.c **** 				( ( uint32_t ) __privileged_data_start__ ) | /* Base address. */
 622              		.loc 1 801 50 view .LVU172
 623 0238 B260     		str	r2, [r6, #8]
 806:Middlewares/Third_Party/FreeRTOS/Source/portable/GCC/ARM_CM4_MPU/port.c **** 				( portMPU_REGION_PRIVILEGED_READ_WRITE ) |
 624              		.loc 1 806 3 is_stmt 1 view .LVU173
 809:Middlewares/Third_Party/FreeRTOS/Source/portable/GCC/ARM_CM4_MPU/port.c **** 				( portMPU_REGION_ENABLE );
 625              		.loc 1 809 5 is_stmt 0 view .LVU174
 626 023a 2448     		ldr	r0, .L42+16
 627 023c C01A     		subs	r0, r0, r3
 628 023e FFF7DFFE 		bl	prvGetMPURegionSizeSetting
 629              	.LVL47:
 809:Middlewares/Third_Party/FreeRTOS/Source/portable/GCC/ARM_CM4_MPU/port.c **** 				( portMPU_REGION_ENABLE );
 630              		.loc 1 809 113 view .LVU175
 631 0242 40F08170 		orr	r0, r0, #16908288
 632 0246 40F00110 		orr	r0, r0, #65537
 806:Middlewares/Third_Party/FreeRTOS/Source/portable/GCC/ARM_CM4_MPU/port.c **** 				( portMPU_REGION_PRIVILEGED_READ_WRITE ) |
 633              		.loc 1 806 48 view .LVU176
 634 024a F060     		str	r0, [r6, #12]
 813:Middlewares/Third_Party/FreeRTOS/Source/portable/GCC/ARM_CM4_MPU/port.c **** 		{
 635              		.loc 1 813 3 is_stmt 1 view .LVU177
 636              	.LVL48:
 813:Middlewares/Third_Party/FreeRTOS/Source/portable/GCC/ARM_CM4_MPU/port.c **** 		{
 637              		.loc 1 813 11 is_stmt 0 view .LVU178
 638 024c 0223     		movs	r3, #2
 813:Middlewares/Third_Party/FreeRTOS/Source/portable/GCC/ARM_CM4_MPU/port.c **** 		{
 639              		.loc 1 813 3 view .LVU179
 640 024e 09E0     		b	.L32
 641              	.LVL49:
 642              	.L33:
 815:Middlewares/Third_Party/FreeRTOS/Source/portable/GCC/ARM_CM4_MPU/port.c **** 			xMPUSettings->xRegion[ ul ].ulRegionAttribute = 0UL;
 643              		.loc 1 815 4 is_stmt 1 discriminator 3 view .LVU180
 815:Middlewares/Third_Party/FreeRTOS/Source/portable/GCC/ARM_CM4_MPU/port.c **** 			xMPUSettings->xRegion[ ul ].ulRegionAttribute = 0UL;
 644              		.loc 1 815 73 is_stmt 0 discriminator 3 view .LVU181
 645 0250 1A1D     		adds	r2, r3, #4
 815:Middlewares/Third_Party/FreeRTOS/Source/portable/GCC/ARM_CM4_MPU/port.c **** 			xMPUSettings->xRegion[ ul ].ulRegionAttribute = 0UL;
 646              		.loc 1 815 80 discriminator 3 view .LVU182
 647 0252 42F01002 		orr	r2, r2, #16
 815:Middlewares/Third_Party/FreeRTOS/Source/portable/GCC/ARM_CM4_MPU/port.c **** 			xMPUSettings->xRegion[ ul ].ulRegionAttribute = 0UL;
 648              		.loc 1 815 52 discriminator 3 view .LVU183
 649 0256 46F83320 		str	r2, [r6, r3, lsl #3]
 816:Middlewares/Third_Party/FreeRTOS/Source/portable/GCC/ARM_CM4_MPU/port.c **** 		}
 650              		.loc 1 816 4 is_stmt 1 discriminator 3 view .LVU184
 816:Middlewares/Third_Party/FreeRTOS/Source/portable/GCC/ARM_CM4_MPU/port.c **** 		}
 651              		.loc 1 816 50 is_stmt 0 discriminator 3 view .LVU185
 652 025a 06EBC302 		add	r2, r6, r3, lsl #3
 653 025e 0021     		movs	r1, #0
 654 0260 5160     		str	r1, [r2, #4]
ARM GAS  /tmp/ccb11GdC.s 			page 34


 813:Middlewares/Third_Party/FreeRTOS/Source/portable/GCC/ARM_CM4_MPU/port.c **** 		{
 655              		.loc 1 813 54 is_stmt 1 discriminator 3 view .LVU186
 656 0262 0133     		adds	r3, r3, #1
 657              	.LVL50:
 658              	.L32:
 813:Middlewares/Third_Party/FreeRTOS/Source/portable/GCC/ARM_CM4_MPU/port.c **** 		{
 659              		.loc 1 813 19 discriminator 1 view .LVU187
 660 0264 032B     		cmp	r3, #3
 661 0266 F3D9     		bls	.L33
 662              	.LVL51:
 663              	.L30:
 837:Middlewares/Third_Party/FreeRTOS/Source/portable/GCC/ARM_CM4_MPU/port.c **** 					( portMPU_REGION_ENABLE );
 838:Middlewares/Third_Party/FreeRTOS/Source/portable/GCC/ARM_CM4_MPU/port.c **** 		}
 839:Middlewares/Third_Party/FreeRTOS/Source/portable/GCC/ARM_CM4_MPU/port.c **** 
 840:Middlewares/Third_Party/FreeRTOS/Source/portable/GCC/ARM_CM4_MPU/port.c **** 		lIndex = 0;
 841:Middlewares/Third_Party/FreeRTOS/Source/portable/GCC/ARM_CM4_MPU/port.c **** 
 842:Middlewares/Third_Party/FreeRTOS/Source/portable/GCC/ARM_CM4_MPU/port.c **** 		for( ul = 1; ul <= portNUM_CONFIGURABLE_REGIONS; ul++ )
 843:Middlewares/Third_Party/FreeRTOS/Source/portable/GCC/ARM_CM4_MPU/port.c **** 		{
 844:Middlewares/Third_Party/FreeRTOS/Source/portable/GCC/ARM_CM4_MPU/port.c **** 			if( ( xRegions[ lIndex ] ).ulLengthInBytes > 0UL )
 845:Middlewares/Third_Party/FreeRTOS/Source/portable/GCC/ARM_CM4_MPU/port.c **** 			{
 846:Middlewares/Third_Party/FreeRTOS/Source/portable/GCC/ARM_CM4_MPU/port.c **** 				/* Translate the generic region definition contained in
 847:Middlewares/Third_Party/FreeRTOS/Source/portable/GCC/ARM_CM4_MPU/port.c **** 				xRegions into the CM3 specific MPU settings that are then
 848:Middlewares/Third_Party/FreeRTOS/Source/portable/GCC/ARM_CM4_MPU/port.c **** 				stored in xMPUSettings. */
 849:Middlewares/Third_Party/FreeRTOS/Source/portable/GCC/ARM_CM4_MPU/port.c **** 				xMPUSettings->xRegion[ ul ].ulRegionBaseAddress =
 850:Middlewares/Third_Party/FreeRTOS/Source/portable/GCC/ARM_CM4_MPU/port.c **** 						( ( uint32_t ) xRegions[ lIndex ].pvBaseAddress ) |
 851:Middlewares/Third_Party/FreeRTOS/Source/portable/GCC/ARM_CM4_MPU/port.c **** 						( portMPU_REGION_VALID ) |
 852:Middlewares/Third_Party/FreeRTOS/Source/portable/GCC/ARM_CM4_MPU/port.c **** 						( portSTACK_REGION + ul ); /* Region number. */
 853:Middlewares/Third_Party/FreeRTOS/Source/portable/GCC/ARM_CM4_MPU/port.c **** 
 854:Middlewares/Third_Party/FreeRTOS/Source/portable/GCC/ARM_CM4_MPU/port.c **** 				xMPUSettings->xRegion[ ul ].ulRegionAttribute =
 855:Middlewares/Third_Party/FreeRTOS/Source/portable/GCC/ARM_CM4_MPU/port.c **** 						( prvGetMPURegionSizeSetting( xRegions[ lIndex ].ulLengthInBytes ) ) |
 856:Middlewares/Third_Party/FreeRTOS/Source/portable/GCC/ARM_CM4_MPU/port.c **** 						( xRegions[ lIndex ].ulParameters ) |
 857:Middlewares/Third_Party/FreeRTOS/Source/portable/GCC/ARM_CM4_MPU/port.c **** 						( portMPU_REGION_ENABLE );
 858:Middlewares/Third_Party/FreeRTOS/Source/portable/GCC/ARM_CM4_MPU/port.c **** 			}
 859:Middlewares/Third_Party/FreeRTOS/Source/portable/GCC/ARM_CM4_MPU/port.c **** 			else
 860:Middlewares/Third_Party/FreeRTOS/Source/portable/GCC/ARM_CM4_MPU/port.c **** 			{
 861:Middlewares/Third_Party/FreeRTOS/Source/portable/GCC/ARM_CM4_MPU/port.c **** 				/* Invalidate the region. */
 862:Middlewares/Third_Party/FreeRTOS/Source/portable/GCC/ARM_CM4_MPU/port.c **** 				xMPUSettings->xRegion[ ul ].ulRegionBaseAddress = ( portSTACK_REGION + ul ) | portMPU_REGION_VA
 863:Middlewares/Third_Party/FreeRTOS/Source/portable/GCC/ARM_CM4_MPU/port.c **** 				xMPUSettings->xRegion[ ul ].ulRegionAttribute = 0UL;
 864:Middlewares/Third_Party/FreeRTOS/Source/portable/GCC/ARM_CM4_MPU/port.c **** 			}
 865:Middlewares/Third_Party/FreeRTOS/Source/portable/GCC/ARM_CM4_MPU/port.c **** 
 866:Middlewares/Third_Party/FreeRTOS/Source/portable/GCC/ARM_CM4_MPU/port.c **** 			lIndex++;
 867:Middlewares/Third_Party/FreeRTOS/Source/portable/GCC/ARM_CM4_MPU/port.c **** 		}
 868:Middlewares/Third_Party/FreeRTOS/Source/portable/GCC/ARM_CM4_MPU/port.c **** 	}
 869:Middlewares/Third_Party/FreeRTOS/Source/portable/GCC/ARM_CM4_MPU/port.c **** }
 664              		.loc 1 869 1 is_stmt 0 view .LVU188
 665 0268 BDE8F081 		pop	{r4, r5, r6, r7, r8, pc}
 666              	.LVL52:
 667              	.L37:
 862:Middlewares/Third_Party/FreeRTOS/Source/portable/GCC/ARM_CM4_MPU/port.c **** 				xMPUSettings->xRegion[ ul ].ulRegionAttribute = 0UL;
 668              		.loc 1 862 5 is_stmt 1 view .LVU189
 862:Middlewares/Third_Party/FreeRTOS/Source/portable/GCC/ARM_CM4_MPU/port.c **** 				xMPUSettings->xRegion[ ul ].ulRegionAttribute = 0UL;
 669              		.loc 1 862 74 is_stmt 0 view .LVU190
 670 026c 231D     		adds	r3, r4, #4
 862:Middlewares/Third_Party/FreeRTOS/Source/portable/GCC/ARM_CM4_MPU/port.c **** 				xMPUSettings->xRegion[ ul ].ulRegionAttribute = 0UL;
 671              		.loc 1 862 81 view .LVU191
 672 026e 43F01003 		orr	r3, r3, #16
 862:Middlewares/Third_Party/FreeRTOS/Source/portable/GCC/ARM_CM4_MPU/port.c **** 				xMPUSettings->xRegion[ ul ].ulRegionAttribute = 0UL;
ARM GAS  /tmp/ccb11GdC.s 			page 35


 673              		.loc 1 862 53 view .LVU192
 674 0272 46F83430 		str	r3, [r6, r4, lsl #3]
 863:Middlewares/Third_Party/FreeRTOS/Source/portable/GCC/ARM_CM4_MPU/port.c **** 			}
 675              		.loc 1 863 5 is_stmt 1 view .LVU193
 863:Middlewares/Third_Party/FreeRTOS/Source/portable/GCC/ARM_CM4_MPU/port.c **** 			}
 676              		.loc 1 863 51 is_stmt 0 view .LVU194
 677 0276 06EBC403 		add	r3, r6, r4, lsl #3
 678 027a 0022     		movs	r2, #0
 679 027c 5A60     		str	r2, [r3, #4]
 680              	.L38:
 866:Middlewares/Third_Party/FreeRTOS/Source/portable/GCC/ARM_CM4_MPU/port.c **** 		}
 681              		.loc 1 866 4 is_stmt 1 discriminator 2 view .LVU195
 866:Middlewares/Third_Party/FreeRTOS/Source/portable/GCC/ARM_CM4_MPU/port.c **** 		}
 682              		.loc 1 866 10 is_stmt 0 discriminator 2 view .LVU196
 683 027e 0137     		adds	r7, r7, #1
 684              	.LVL53:
 842:Middlewares/Third_Party/FreeRTOS/Source/portable/GCC/ARM_CM4_MPU/port.c **** 		{
 685              		.loc 1 842 54 is_stmt 1 discriminator 2 view .LVU197
 686 0280 0134     		adds	r4, r4, #1
 687              	.LVL54:
 688              	.L36:
 842:Middlewares/Third_Party/FreeRTOS/Source/portable/GCC/ARM_CM4_MPU/port.c **** 		{
 689              		.loc 1 842 19 discriminator 1 view .LVU198
 690 0282 032C     		cmp	r4, #3
 691 0284 F0D8     		bhi	.L30
 844:Middlewares/Third_Party/FreeRTOS/Source/portable/GCC/ARM_CM4_MPU/port.c **** 			{
 692              		.loc 1 844 4 view .LVU199
 844:Middlewares/Third_Party/FreeRTOS/Source/portable/GCC/ARM_CM4_MPU/port.c **** 			{
 693              		.loc 1 844 18 is_stmt 0 view .LVU200
 694 0286 07EB4705 		add	r5, r7, r7, lsl #1
 695 028a AA00     		lsls	r2, r5, #2
 696 028c 08EB8505 		add	r5, r8, r5, lsl #2
 844:Middlewares/Third_Party/FreeRTOS/Source/portable/GCC/ARM_CM4_MPU/port.c **** 			{
 697              		.loc 1 844 30 view .LVU201
 698 0290 6B68     		ldr	r3, [r5, #4]
 844:Middlewares/Third_Party/FreeRTOS/Source/portable/GCC/ARM_CM4_MPU/port.c **** 			{
 699              		.loc 1 844 6 view .LVU202
 700 0292 002B     		cmp	r3, #0
 701 0294 EAD0     		beq	.L37
 849:Middlewares/Third_Party/FreeRTOS/Source/portable/GCC/ARM_CM4_MPU/port.c **** 						( ( uint32_t ) xRegions[ lIndex ].pvBaseAddress ) |
 702              		.loc 1 849 5 is_stmt 1 view .LVU203
 850:Middlewares/Third_Party/FreeRTOS/Source/portable/GCC/ARM_CM4_MPU/port.c **** 						( portMPU_REGION_VALID ) |
 703              		.loc 1 850 40 is_stmt 0 view .LVU204
 704 0296 58F80230 		ldr	r3, [r8, r2]
 852:Middlewares/Third_Party/FreeRTOS/Source/portable/GCC/ARM_CM4_MPU/port.c **** 
 705              		.loc 1 852 26 view .LVU205
 706 029a 221D     		adds	r2, r4, #4
 851:Middlewares/Third_Party/FreeRTOS/Source/portable/GCC/ARM_CM4_MPU/port.c **** 						( portSTACK_REGION + ul ); /* Region number. */
 707              		.loc 1 851 32 view .LVU206
 708 029c 1343     		orrs	r3, r3, r2
 709 029e 43F01003 		orr	r3, r3, #16
 849:Middlewares/Third_Party/FreeRTOS/Source/portable/GCC/ARM_CM4_MPU/port.c **** 						( ( uint32_t ) xRegions[ lIndex ].pvBaseAddress ) |
 710              		.loc 1 849 53 view .LVU207
 711 02a2 46F83430 		str	r3, [r6, r4, lsl #3]
 854:Middlewares/Third_Party/FreeRTOS/Source/portable/GCC/ARM_CM4_MPU/port.c **** 						( prvGetMPURegionSizeSetting( xRegions[ lIndex ].ulLengthInBytes ) ) |
 712              		.loc 1 854 5 is_stmt 1 view .LVU208
 855:Middlewares/Third_Party/FreeRTOS/Source/portable/GCC/ARM_CM4_MPU/port.c **** 						( xRegions[ lIndex ].ulParameters ) |
ARM GAS  /tmp/ccb11GdC.s 			page 36


 713              		.loc 1 855 9 is_stmt 0 view .LVU209
 714 02a6 6868     		ldr	r0, [r5, #4]
 715 02a8 FFF7AAFE 		bl	prvGetMPURegionSizeSetting
 716              	.LVL55:
 856:Middlewares/Third_Party/FreeRTOS/Source/portable/GCC/ARM_CM4_MPU/port.c **** 						( portMPU_REGION_ENABLE );
 717              		.loc 1 856 27 view .LVU210
 718 02ac AB68     		ldr	r3, [r5, #8]
 855:Middlewares/Third_Party/FreeRTOS/Source/portable/GCC/ARM_CM4_MPU/port.c **** 						( xRegions[ lIndex ].ulParameters ) |
 719              		.loc 1 855 76 view .LVU211
 720 02ae 1843     		orrs	r0, r0, r3
 856:Middlewares/Third_Party/FreeRTOS/Source/portable/GCC/ARM_CM4_MPU/port.c **** 						( portMPU_REGION_ENABLE );
 721              		.loc 1 856 43 view .LVU212
 722 02b0 40F00100 		orr	r0, r0, #1
 854:Middlewares/Third_Party/FreeRTOS/Source/portable/GCC/ARM_CM4_MPU/port.c **** 						( prvGetMPURegionSizeSetting( xRegions[ lIndex ].ulLengthInBytes ) ) |
 723              		.loc 1 854 51 view .LVU213
 724 02b4 06EBC403 		add	r3, r6, r4, lsl #3
 725 02b8 5860     		str	r0, [r3, #4]
 726 02ba E0E7     		b	.L38
 727              	.L43:
 728              		.align	2
 729              	.L42:
 730 02bc 01000303 		.word	50528257
 731 02c0 00000000 		.word	__SRAM_segment_start__
 732 02c4 00000000 		.word	__SRAM_segment_end__
 733 02c8 00000000 		.word	__privileged_data_start__
 734 02cc 00000000 		.word	__privileged_data_end__
 735              		.cfi_endproc
 736              	.LFE21:
 738              		.align	1
 739              		.global	PendSV_Handler
 740              		.syntax unified
 741              		.thumb
 742              		.thumb_func
 744              	PendSV_Handler:
 745              	.LFB13:
 524:Middlewares/Third_Party/FreeRTOS/Source/portable/GCC/ARM_CM4_MPU/port.c **** 	/* This is a naked function. */
 746              		.loc 1 524 1 is_stmt 1 view -0
 747              		.cfi_startproc
 748              		@ Naked Function: prologue and epilogue provided by programmer.
 749              		@ args = 0, pretend = 0, frame = 0
 750              		@ frame_needed = 0, uses_anonymous_args = 0
 527:Middlewares/Third_Party/FreeRTOS/Source/portable/GCC/ARM_CM4_MPU/port.c **** 	(
 751              		.loc 1 527 2 view .LVU215
 752              		.syntax unified
 753              	@ 527 "Middlewares/Third_Party/FreeRTOS/Source/portable/GCC/ARM_CM4_MPU/port.c" 1
 754 02d0 EFF30980 			mrs r0, psp							
 755 02d4 BFF36F8F 		isb									
 756              											
 757 02d8 214B     		ldr	r3, pxCurrentTCBConst			
 758 02da 1A68     		ldr	r2, [r3]						
 759              											
 760 02dc 1EF0100F 		tst r14, #0x10						
 761 02e0 08BF     		it eq								
 762 02e2 20ED108A 		vstmdbeq r0!, {s16-s31}				
 763              											
 764 02e6 EFF31481 		mrs r1, control						
 765 02ea 20E9F24F 		stmdb r0!, {r1, r4-r11, r14}		
ARM GAS  /tmp/ccb11GdC.s 			page 37


 766 02ee 1060     		str r0, [r2]						
 767              											
 768 02f0 2DE90900 		stmdb sp!, {r0, r3}					
 769 02f4 4FF05000 		mov r0, #80							
 770 02f8 80F31188 		msr basepri, r0						
 771 02fc BFF34F8F 		dsb									
 772 0300 BFF36F8F 		isb									
 773 0304 FFF7FEFF 		bl vTaskSwitchContext				
 774 0308 4FF00000 		mov r0, #0							
 775 030c 80F31188 		msr basepri, r0						
 776 0310 09BC     		ldmia sp!, {r0, r3}					
 777              											
 778 0312 1968     		ldr r1, [r3]						
 779 0314 0868     		ldr r0, [r1]						
 780 0316 01F10401 		add r1, r1, #4						
 781              											
 782 031a BFF35F8F 		dmb									
 783 031e 5C4A     		ldr r2, =0xe000ed94					
 784 0320 1368     		ldr r3, [r2]						
 785 0322 23F00103 		bic r3, #1							
 786 0326 1360     		str r3, [r2]						
 787              											
 788 0328 5A4A     		ldr r2, =0xe000ed9c					
 789 032a B1E8F00F 		ldmia r1!, {r4-r11}					
 790 032e A2E8F00F 		stmia r2!, {r4-r11}					
 791              											
 792 0332 574A     		ldr r2, =0xe000ed94					
 793 0334 1368     		ldr r3, [r2]						
 794 0336 43F00103 		orr r3, #1							
 795 033a 1360     		str r3, [r2]						
 796 033c BFF34F8F 		dsb									
 797              											
 798 0340 B0E8F84F 		ldmia r0!, {r3-r11, r14}			
 799 0344 83F31488 		msr control, r3						
 800              											
 801 0348 1EF0100F 		tst r14, #0x10						
 802 034c 08BF     		it eq								
 803 034e B0EC108A 		vldmiaeq r0!, {s16-s31}				
 804              											
 805 0352 80F30988 		msr psp, r0							
 806 0356 7047     		bx r14								
 807              											
 808 0358 AFF30080 		.align 4							
 808      AFF30080 
 809 0360 00000000 	pxCurrentTCBConst: .word pxCurrentTCB	
 810              	
 811              	@ 0 "" 2
 587:Middlewares/Third_Party/FreeRTOS/Source/portable/GCC/ARM_CM4_MPU/port.c **** /*-----------------------------------------------------------*/
 812              		.loc 1 587 1 is_stmt 0 view .LVU216
 813              		.thumb
 814              		.syntax unified
 815              		.cfi_endproc
 816              	.LFE13:
 818              		.align	1
 819              		.global	SysTick_Handler
 820              		.syntax unified
 821              		.thumb
ARM GAS  /tmp/ccb11GdC.s 			page 38


 822              		.thumb_func
 824              	SysTick_Handler:
 825              	.LFB14:
 591:Middlewares/Third_Party/FreeRTOS/Source/portable/GCC/ARM_CM4_MPU/port.c **** uint32_t ulDummy;
 826              		.loc 1 591 1 is_stmt 1 view -0
 827              		.cfi_startproc
 828              		@ args = 0, pretend = 0, frame = 0
 829              		@ frame_needed = 0, uses_anonymous_args = 0
 830 0364 10B5     		push	{r4, lr}
 831              		.cfi_def_cfa_offset 8
 832              		.cfi_offset 4, -8
 833              		.cfi_offset 14, -4
 592:Middlewares/Third_Party/FreeRTOS/Source/portable/GCC/ARM_CM4_MPU/port.c **** 
 834              		.loc 1 592 1 view .LVU218
 594:Middlewares/Third_Party/FreeRTOS/Source/portable/GCC/ARM_CM4_MPU/port.c **** 	{
 835              		.loc 1 594 2 view .LVU219
 836              	.LBB23:
 837              	.LBI23:
 255:Middlewares/Third_Party/FreeRTOS/Source/portable/GCC/ARM_CM4_MPU/portmacro.h **** 	(
 256:Middlewares/Third_Party/FreeRTOS/Source/portable/GCC/ARM_CM4_MPU/portmacro.h **** 		"	mov %0, %1												\n"	\
 257:Middlewares/Third_Party/FreeRTOS/Source/portable/GCC/ARM_CM4_MPU/portmacro.h **** 		"	msr basepri, %0											\n" \
 258:Middlewares/Third_Party/FreeRTOS/Source/portable/GCC/ARM_CM4_MPU/portmacro.h **** 		"	isb														\n" \
 259:Middlewares/Third_Party/FreeRTOS/Source/portable/GCC/ARM_CM4_MPU/portmacro.h **** 		"	dsb														\n" \
 260:Middlewares/Third_Party/FreeRTOS/Source/portable/GCC/ARM_CM4_MPU/portmacro.h **** 		:"=r" (ulNewBASEPRI) : "i" ( configMAX_SYSCALL_INTERRUPT_PRIORITY ) : "memory"
 261:Middlewares/Third_Party/FreeRTOS/Source/portable/GCC/ARM_CM4_MPU/portmacro.h **** 	);
 262:Middlewares/Third_Party/FreeRTOS/Source/portable/GCC/ARM_CM4_MPU/portmacro.h **** }
 263:Middlewares/Third_Party/FreeRTOS/Source/portable/GCC/ARM_CM4_MPU/portmacro.h **** 
 264:Middlewares/Third_Party/FreeRTOS/Source/portable/GCC/ARM_CM4_MPU/portmacro.h **** /*-----------------------------------------------------------*/
 265:Middlewares/Third_Party/FreeRTOS/Source/portable/GCC/ARM_CM4_MPU/portmacro.h **** 
 266:Middlewares/Third_Party/FreeRTOS/Source/portable/GCC/ARM_CM4_MPU/portmacro.h **** portFORCE_INLINE static uint32_t ulPortRaiseBASEPRI( void )
 838              		.loc 2 266 34 view .LVU220
 839              	.LBB24:
 267:Middlewares/Third_Party/FreeRTOS/Source/portable/GCC/ARM_CM4_MPU/portmacro.h **** {
 268:Middlewares/Third_Party/FreeRTOS/Source/portable/GCC/ARM_CM4_MPU/portmacro.h **** uint32_t ulOriginalBASEPRI, ulNewBASEPRI;
 840              		.loc 2 268 1 view .LVU221
 269:Middlewares/Third_Party/FreeRTOS/Source/portable/GCC/ARM_CM4_MPU/portmacro.h **** 
 270:Middlewares/Third_Party/FreeRTOS/Source/portable/GCC/ARM_CM4_MPU/portmacro.h **** 	__asm volatile
 841              		.loc 2 270 2 view .LVU222
 842              		.syntax unified
 843              	@ 270 "Middlewares/Third_Party/FreeRTOS/Source/portable/GCC/ARM_CM4_MPU/portmacro.h" 1
 844 0366 EFF31184 			mrs r4, basepri											
 845 036a 4FF05003 		mov r3, #80												
 846 036e 83F31188 		msr basepri, r3											
 847 0372 BFF36F8F 		isb														
 848 0376 BFF34F8F 		dsb														
 849              	
 850              	@ 0 "" 2
 851              	.LVL56:
 271:Middlewares/Third_Party/FreeRTOS/Source/portable/GCC/ARM_CM4_MPU/portmacro.h **** 	(
 272:Middlewares/Third_Party/FreeRTOS/Source/portable/GCC/ARM_CM4_MPU/portmacro.h **** 		"	mrs %0, basepri											\n" \
 273:Middlewares/Third_Party/FreeRTOS/Source/portable/GCC/ARM_CM4_MPU/portmacro.h **** 		"	mov %1, %2												\n"	\
 274:Middlewares/Third_Party/FreeRTOS/Source/portable/GCC/ARM_CM4_MPU/portmacro.h **** 		"	msr basepri, %1											\n" \
 275:Middlewares/Third_Party/FreeRTOS/Source/portable/GCC/ARM_CM4_MPU/portmacro.h **** 		"	isb														\n" \
 276:Middlewares/Third_Party/FreeRTOS/Source/portable/GCC/ARM_CM4_MPU/portmacro.h **** 		"	dsb														\n" \
 277:Middlewares/Third_Party/FreeRTOS/Source/portable/GCC/ARM_CM4_MPU/portmacro.h **** 		:"=r" (ulOriginalBASEPRI), "=r" (ulNewBASEPRI) : "i" ( configMAX_SYSCALL_INTERRUPT_PRIORITY ) : "
 278:Middlewares/Third_Party/FreeRTOS/Source/portable/GCC/ARM_CM4_MPU/portmacro.h **** 	);
 279:Middlewares/Third_Party/FreeRTOS/Source/portable/GCC/ARM_CM4_MPU/portmacro.h **** 
ARM GAS  /tmp/ccb11GdC.s 			page 39


 280:Middlewares/Third_Party/FreeRTOS/Source/portable/GCC/ARM_CM4_MPU/portmacro.h **** 	/* This return will not be reached but is necessary to prevent compiler
 281:Middlewares/Third_Party/FreeRTOS/Source/portable/GCC/ARM_CM4_MPU/portmacro.h **** 	warnings. */
 282:Middlewares/Third_Party/FreeRTOS/Source/portable/GCC/ARM_CM4_MPU/portmacro.h **** 	return ulOriginalBASEPRI;
 852              		.loc 2 282 2 view .LVU223
 853              		.loc 2 282 2 is_stmt 0 view .LVU224
 854              		.thumb
 855              		.syntax unified
 856              	.LBE24:
 857              	.LBE23:
 597:Middlewares/Third_Party/FreeRTOS/Source/portable/GCC/ARM_CM4_MPU/port.c **** 		{
 858              		.loc 1 597 3 is_stmt 1 view .LVU225
 597:Middlewares/Third_Party/FreeRTOS/Source/portable/GCC/ARM_CM4_MPU/port.c **** 		{
 859              		.loc 1 597 7 is_stmt 0 view .LVU226
 860 037a FFF7FEFF 		bl	xTaskIncrementTick
 861              	.LVL57:
 597:Middlewares/Third_Party/FreeRTOS/Source/portable/GCC/ARM_CM4_MPU/port.c **** 		{
 862              		.loc 1 597 5 view .LVU227
 863 037e 28B1     		cbz	r0, .L46
 600:Middlewares/Third_Party/FreeRTOS/Source/portable/GCC/ARM_CM4_MPU/port.c **** 		}
 864              		.loc 1 600 4 is_stmt 1 view .LVU228
 600:Middlewares/Third_Party/FreeRTOS/Source/portable/GCC/ARM_CM4_MPU/port.c **** 		}
 865              		.loc 1 600 26 is_stmt 0 view .LVU229
 866 0380 4FF0E023 		mov	r3, #-536813568
 867 0384 4FF08052 		mov	r2, #268435456
 868 0388 C3F8042D 		str	r2, [r3, #3332]
 869              	.L46:
 603:Middlewares/Third_Party/FreeRTOS/Source/portable/GCC/ARM_CM4_MPU/port.c **** }
 870              		.loc 1 603 2 is_stmt 1 view .LVU230
 871              	.LBB25:
 872              	.LBI25:
 283:Middlewares/Third_Party/FreeRTOS/Source/portable/GCC/ARM_CM4_MPU/portmacro.h **** }
 284:Middlewares/Third_Party/FreeRTOS/Source/portable/GCC/ARM_CM4_MPU/portmacro.h **** /*-----------------------------------------------------------*/
 285:Middlewares/Third_Party/FreeRTOS/Source/portable/GCC/ARM_CM4_MPU/portmacro.h **** 
 286:Middlewares/Third_Party/FreeRTOS/Source/portable/GCC/ARM_CM4_MPU/portmacro.h **** portFORCE_INLINE static void vPortSetBASEPRI( uint32_t ulNewMaskValue )
 873              		.loc 2 286 30 view .LVU231
 874              	.LBB26:
 287:Middlewares/Third_Party/FreeRTOS/Source/portable/GCC/ARM_CM4_MPU/portmacro.h **** {
 288:Middlewares/Third_Party/FreeRTOS/Source/portable/GCC/ARM_CM4_MPU/portmacro.h **** 	__asm volatile
 875              		.loc 2 288 2 view .LVU232
 876              		.syntax unified
 877              	@ 288 "Middlewares/Third_Party/FreeRTOS/Source/portable/GCC/ARM_CM4_MPU/portmacro.h" 1
 878 038c 84F31188 			msr basepri, r4	
 879              	@ 0 "" 2
 880              		.thumb
 881              		.syntax unified
 882              	.LBE26:
 883              	.LBE25:
 604:Middlewares/Third_Party/FreeRTOS/Source/portable/GCC/ARM_CM4_MPU/port.c **** /*-----------------------------------------------------------*/
 884              		.loc 1 604 1 is_stmt 0 view .LVU233
 885 0390 10BD     		pop	{r4, pc}
 604:Middlewares/Third_Party/FreeRTOS/Source/portable/GCC/ARM_CM4_MPU/port.c **** /*-----------------------------------------------------------*/
 886              		.loc 1 604 1 view .LVU234
 887              		.cfi_endproc
 888              	.LFE14:
 890              		.align	1
 891              		.global	SVC_Handler
 892              		.syntax unified
ARM GAS  /tmp/ccb11GdC.s 			page 40


 893              		.thumb
 894              		.thumb_func
 896              	SVC_Handler:
 897              	.LFB6:
 242:Middlewares/Third_Party/FreeRTOS/Source/portable/GCC/ARM_CM4_MPU/port.c **** 	/* Assumes psp was in use. */
 898              		.loc 1 242 1 is_stmt 1 view -0
 899              		.cfi_startproc
 900              		@ Naked Function: prologue and epilogue provided by programmer.
 901              		@ args = 0, pretend = 0, frame = 0
 902              		@ frame_needed = 0, uses_anonymous_args = 0
 244:Middlewares/Third_Party/FreeRTOS/Source/portable/GCC/ARM_CM4_MPU/port.c **** 	(
 903              		.loc 1 244 2 view .LVU236
 904              		.syntax unified
 905              	@ 244 "Middlewares/Third_Party/FreeRTOS/Source/portable/GCC/ARM_CM4_MPU/port.c" 1
 906 0392 1EF0040F 			tst lr, #4						
 907 0396 0CBF     		ite eq							
 908 0398 EFF30880 		mrseq r0, msp					
 909 039c EFF30980 		mrsne r0, psp					
 910 03a0 C8E6     		b #prvSVCHandler							
 911              	
 912              	@ 0 "" 2
 257:Middlewares/Third_Party/FreeRTOS/Source/portable/GCC/ARM_CM4_MPU/port.c **** /*-----------------------------------------------------------*/
 913              		.loc 1 257 1 is_stmt 0 view .LVU237
 914              		.thumb
 915              		.syntax unified
 916              		.cfi_endproc
 917              	.LFE6:
 919              		.section	.text.vPortEnterCritical,"ax",%progbits
 920              		.align	1
 921              		.global	vPortEnterCritical
 922              		.syntax unified
 923              		.thumb
 924              		.thumb_func
 926              	vPortEnterCritical:
 927              	.LFB11:
 499:Middlewares/Third_Party/FreeRTOS/Source/portable/GCC/ARM_CM4_MPU/port.c **** BaseType_t xRunningPrivileged = xPortRaisePrivilege();
 928              		.loc 1 499 1 is_stmt 1 view -0
 929              		.cfi_startproc
 930              		@ args = 0, pretend = 0, frame = 0
 931              		@ frame_needed = 0, uses_anonymous_args = 0
 932 0000 08B5     		push	{r3, lr}
 933              		.cfi_def_cfa_offset 8
 934              		.cfi_offset 3, -8
 935              		.cfi_offset 14, -4
 500:Middlewares/Third_Party/FreeRTOS/Source/portable/GCC/ARM_CM4_MPU/port.c **** 
 936              		.loc 1 500 1 view .LVU239
 500:Middlewares/Third_Party/FreeRTOS/Source/portable/GCC/ARM_CM4_MPU/port.c **** 
 937              		.loc 1 500 33 is_stmt 0 view .LVU240
 938 0002 FFF7FEFF 		bl	xPortRaisePrivilege
 939              	.LVL58:
 502:Middlewares/Third_Party/FreeRTOS/Source/portable/GCC/ARM_CM4_MPU/port.c **** 	uxCriticalNesting++;
 940              		.loc 1 502 2 is_stmt 1 view .LVU241
 941              	.LBB27:
 942              	.LBI27:
 250:Middlewares/Third_Party/FreeRTOS/Source/portable/GCC/ARM_CM4_MPU/portmacro.h **** {
 943              		.loc 2 250 30 view .LVU242
 944              	.LBB28:
ARM GAS  /tmp/ccb11GdC.s 			page 41


 252:Middlewares/Third_Party/FreeRTOS/Source/portable/GCC/ARM_CM4_MPU/portmacro.h **** 
 945              		.loc 2 252 1 view .LVU243
 254:Middlewares/Third_Party/FreeRTOS/Source/portable/GCC/ARM_CM4_MPU/portmacro.h **** 	(
 946              		.loc 2 254 2 view .LVU244
 947              		.syntax unified
 948              	@ 254 "Middlewares/Third_Party/FreeRTOS/Source/portable/GCC/ARM_CM4_MPU/portmacro.h" 1
 949 0006 4FF05003 			mov r3, #80												
 950 000a 83F31188 		msr basepri, r3											
 951 000e BFF36F8F 		isb														
 952 0012 BFF34F8F 		dsb														
 953              	
 954              	@ 0 "" 2
 955              		.thumb
 956              		.syntax unified
 957              	.LBE28:
 958              	.LBE27:
 503:Middlewares/Third_Party/FreeRTOS/Source/portable/GCC/ARM_CM4_MPU/port.c **** 
 959              		.loc 1 503 2 view .LVU245
 503:Middlewares/Third_Party/FreeRTOS/Source/portable/GCC/ARM_CM4_MPU/port.c **** 
 960              		.loc 1 503 19 is_stmt 0 view .LVU246
 961 0016 034A     		ldr	r2, .L51
 962 0018 1368     		ldr	r3, [r2]
 963 001a 0133     		adds	r3, r3, #1
 964 001c 1360     		str	r3, [r2]
 505:Middlewares/Third_Party/FreeRTOS/Source/portable/GCC/ARM_CM4_MPU/port.c **** }
 965              		.loc 1 505 2 is_stmt 1 view .LVU247
 966 001e FFF7FEFF 		bl	vPortResetPrivilege
 967              	.LVL59:
 506:Middlewares/Third_Party/FreeRTOS/Source/portable/GCC/ARM_CM4_MPU/port.c **** /*-----------------------------------------------------------*/
 968              		.loc 1 506 1 is_stmt 0 view .LVU248
 969 0022 08BD     		pop	{r3, pc}
 970              	.L52:
 971              		.align	2
 972              	.L51:
 973 0024 00000000 		.word	uxCriticalNesting
 974              		.cfi_endproc
 975              	.LFE11:
 977              		.section	.text.vPortExitCritical,"ax",%progbits
 978              		.align	1
 979              		.global	vPortExitCritical
 980              		.syntax unified
 981              		.thumb
 982              		.thumb_func
 984              	vPortExitCritical:
 985              	.LFB12:
 510:Middlewares/Third_Party/FreeRTOS/Source/portable/GCC/ARM_CM4_MPU/port.c **** BaseType_t xRunningPrivileged = xPortRaisePrivilege();
 986              		.loc 1 510 1 is_stmt 1 view -0
 987              		.cfi_startproc
 988              		@ args = 0, pretend = 0, frame = 0
 989              		@ frame_needed = 0, uses_anonymous_args = 0
 990 0000 08B5     		push	{r3, lr}
 991              		.cfi_def_cfa_offset 8
 992              		.cfi_offset 3, -8
 993              		.cfi_offset 14, -4
 511:Middlewares/Third_Party/FreeRTOS/Source/portable/GCC/ARM_CM4_MPU/port.c **** 
 994              		.loc 1 511 1 view .LVU250
 511:Middlewares/Third_Party/FreeRTOS/Source/portable/GCC/ARM_CM4_MPU/port.c **** 
ARM GAS  /tmp/ccb11GdC.s 			page 42


 995              		.loc 1 511 33 is_stmt 0 view .LVU251
 996 0002 FFF7FEFF 		bl	xPortRaisePrivilege
 997              	.LVL60:
 513:Middlewares/Third_Party/FreeRTOS/Source/portable/GCC/ARM_CM4_MPU/port.c **** 	uxCriticalNesting--;
 998              		.loc 1 513 2 is_stmt 1 view .LVU252
 999 0006 0A4B     		ldr	r3, .L58
 1000 0008 1B68     		ldr	r3, [r3]
 1001 000a 43B9     		cbnz	r3, .L54
 513:Middlewares/Third_Party/FreeRTOS/Source/portable/GCC/ARM_CM4_MPU/port.c **** 	uxCriticalNesting--;
 1002              		.loc 1 513 2 view .LVU253
 1003              	.LBB29:
 1004              	.LBI29:
 250:Middlewares/Third_Party/FreeRTOS/Source/portable/GCC/ARM_CM4_MPU/portmacro.h **** {
 1005              		.loc 2 250 30 view .LVU254
 1006              	.LBB30:
 252:Middlewares/Third_Party/FreeRTOS/Source/portable/GCC/ARM_CM4_MPU/portmacro.h **** 
 1007              		.loc 2 252 1 view .LVU255
 254:Middlewares/Third_Party/FreeRTOS/Source/portable/GCC/ARM_CM4_MPU/portmacro.h **** 	(
 1008              		.loc 2 254 2 view .LVU256
 1009              		.syntax unified
 1010              	@ 254 "Middlewares/Third_Party/FreeRTOS/Source/portable/GCC/ARM_CM4_MPU/portmacro.h" 1
 1011 000c 4FF05003 			mov r3, #80												
 1012 0010 83F31188 		msr basepri, r3											
 1013 0014 BFF36F8F 		isb														
 1014 0018 BFF34F8F 		dsb														
 1015              	
 1016              	@ 0 "" 2
 1017              	.LVL61:
 1018              		.thumb
 1019              		.syntax unified
 1020              	.L55:
 254:Middlewares/Third_Party/FreeRTOS/Source/portable/GCC/ARM_CM4_MPU/portmacro.h **** 	(
 1021              		.loc 2 254 2 is_stmt 0 view .LVU257
 1022              	.LBE30:
 1023              	.LBE29:
 513:Middlewares/Third_Party/FreeRTOS/Source/portable/GCC/ARM_CM4_MPU/port.c **** 	uxCriticalNesting--;
 1024              		.loc 1 513 2 is_stmt 1 discriminator 1 view .LVU258
 513:Middlewares/Third_Party/FreeRTOS/Source/portable/GCC/ARM_CM4_MPU/port.c **** 	uxCriticalNesting--;
 1025              		.loc 1 513 2 discriminator 1 view .LVU259
 1026 001c FEE7     		b	.L55
 1027              	.L54:
 513:Middlewares/Third_Party/FreeRTOS/Source/portable/GCC/ARM_CM4_MPU/port.c **** 	uxCriticalNesting--;
 1028              		.loc 1 513 35 discriminator 2 view .LVU260
 514:Middlewares/Third_Party/FreeRTOS/Source/portable/GCC/ARM_CM4_MPU/port.c **** 	if( uxCriticalNesting == 0 )
 1029              		.loc 1 514 2 discriminator 2 view .LVU261
 514:Middlewares/Third_Party/FreeRTOS/Source/portable/GCC/ARM_CM4_MPU/port.c **** 	if( uxCriticalNesting == 0 )
 1030              		.loc 1 514 19 is_stmt 0 discriminator 2 view .LVU262
 1031 001e 013B     		subs	r3, r3, #1
 1032 0020 034A     		ldr	r2, .L58
 1033 0022 1360     		str	r3, [r2]
 515:Middlewares/Third_Party/FreeRTOS/Source/portable/GCC/ARM_CM4_MPU/port.c **** 	{
 1034              		.loc 1 515 2 is_stmt 1 discriminator 2 view .LVU263
 515:Middlewares/Third_Party/FreeRTOS/Source/portable/GCC/ARM_CM4_MPU/port.c **** 	{
 1035              		.loc 1 515 4 is_stmt 0 discriminator 2 view .LVU264
 1036 0024 0BB9     		cbnz	r3, .L56
 517:Middlewares/Third_Party/FreeRTOS/Source/portable/GCC/ARM_CM4_MPU/port.c **** 	}
 1037              		.loc 1 517 3 is_stmt 1 view .LVU265
ARM GAS  /tmp/ccb11GdC.s 			page 43


 1038              	.LVL62:
 1039              	.LBB31:
 1040              	.LBI31:
 286:Middlewares/Third_Party/FreeRTOS/Source/portable/GCC/ARM_CM4_MPU/portmacro.h **** {
 1041              		.loc 2 286 30 view .LVU266
 1042              	.LBB32:
 1043              		.loc 2 288 2 view .LVU267
 1044              		.syntax unified
 1045              	@ 288 "Middlewares/Third_Party/FreeRTOS/Source/portable/GCC/ARM_CM4_MPU/portmacro.h" 1
 1046 0026 83F31188 			msr basepri, r3	
 1047              	@ 0 "" 2
 1048              	.LVL63:
 1049              		.thumb
 1050              		.syntax unified
 1051              	.L56:
 1052              		.loc 2 288 2 is_stmt 0 view .LVU268
 1053              	.LBE32:
 1054              	.LBE31:
 519:Middlewares/Third_Party/FreeRTOS/Source/portable/GCC/ARM_CM4_MPU/port.c **** }
 1055              		.loc 1 519 2 is_stmt 1 view .LVU269
 1056 002a FFF7FEFF 		bl	vPortResetPrivilege
 1057              	.LVL64:
 520:Middlewares/Third_Party/FreeRTOS/Source/portable/GCC/ARM_CM4_MPU/port.c **** /*-----------------------------------------------------------*/
 1058              		.loc 1 520 1 is_stmt 0 view .LVU270
 1059 002e 08BD     		pop	{r3, pc}
 1060              	.L59:
 1061              		.align	2
 1062              	.L58:
 1063 0030 00000000 		.word	uxCriticalNesting
 1064              		.cfi_endproc
 1065              	.LFE12:
 1067              		.section	.text.vPortSetupTimerInterrupt,"ax",%progbits
 1068              		.align	1
 1069              		.weak	vPortSetupTimerInterrupt
 1070              		.syntax unified
 1071              		.thumb
 1072              		.thumb_func
 1074              	vPortSetupTimerInterrupt:
 1075              	.LFB15:
 612:Middlewares/Third_Party/FreeRTOS/Source/portable/GCC/ARM_CM4_MPU/port.c **** 	/* Stop and clear the SysTick. */
 1076              		.loc 1 612 1 is_stmt 1 view -0
 1077              		.cfi_startproc
 1078              		@ args = 0, pretend = 0, frame = 0
 1079              		@ frame_needed = 0, uses_anonymous_args = 0
 1080              		@ link register save eliminated.
 614:Middlewares/Third_Party/FreeRTOS/Source/portable/GCC/ARM_CM4_MPU/port.c **** 	portNVIC_SYSTICK_CURRENT_VALUE_REG = 0UL;
 1081              		.loc 1 614 2 view .LVU272
 614:Middlewares/Third_Party/FreeRTOS/Source/portable/GCC/ARM_CM4_MPU/port.c **** 	portNVIC_SYSTICK_CURRENT_VALUE_REG = 0UL;
 1082              		.loc 1 614 28 is_stmt 0 view .LVU273
 1083 0000 4FF0E022 		mov	r2, #-536813568
 1084 0004 0023     		movs	r3, #0
 1085 0006 1361     		str	r3, [r2, #16]
 615:Middlewares/Third_Party/FreeRTOS/Source/portable/GCC/ARM_CM4_MPU/port.c **** 
 1086              		.loc 1 615 2 is_stmt 1 view .LVU274
 615:Middlewares/Third_Party/FreeRTOS/Source/portable/GCC/ARM_CM4_MPU/port.c **** 
 1087              		.loc 1 615 37 is_stmt 0 view .LVU275
 1088 0008 9361     		str	r3, [r2, #24]
ARM GAS  /tmp/ccb11GdC.s 			page 44


 618:Middlewares/Third_Party/FreeRTOS/Source/portable/GCC/ARM_CM4_MPU/port.c **** 	portNVIC_SYSTICK_CTRL_REG = ( portNVIC_SYSTICK_CLK | portNVIC_SYSTICK_INT | portNVIC_SYSTICK_ENABL
 1089              		.loc 1 618 2 is_stmt 1 view .LVU276
 618:Middlewares/Third_Party/FreeRTOS/Source/portable/GCC/ARM_CM4_MPU/port.c **** 	portNVIC_SYSTICK_CTRL_REG = ( portNVIC_SYSTICK_CLK | portNVIC_SYSTICK_INT | portNVIC_SYSTICK_ENABL
 1090              		.loc 1 618 55 is_stmt 0 view .LVU277
 1091 000a 054B     		ldr	r3, .L61
 1092 000c 1B68     		ldr	r3, [r3]
 1093 000e 0549     		ldr	r1, .L61+4
 1094 0010 A1FB0313 		umull	r1, r3, r1, r3
 1095 0014 9B09     		lsrs	r3, r3, #6
 618:Middlewares/Third_Party/FreeRTOS/Source/portable/GCC/ARM_CM4_MPU/port.c **** 	portNVIC_SYSTICK_CTRL_REG = ( portNVIC_SYSTICK_CLK | portNVIC_SYSTICK_INT | portNVIC_SYSTICK_ENABL
 1096              		.loc 1 618 78 view .LVU278
 1097 0016 013B     		subs	r3, r3, #1
 618:Middlewares/Third_Party/FreeRTOS/Source/portable/GCC/ARM_CM4_MPU/port.c **** 	portNVIC_SYSTICK_CTRL_REG = ( portNVIC_SYSTICK_CLK | portNVIC_SYSTICK_INT | portNVIC_SYSTICK_ENABL
 1098              		.loc 1 618 28 view .LVU279
 1099 0018 5361     		str	r3, [r2, #20]
 619:Middlewares/Third_Party/FreeRTOS/Source/portable/GCC/ARM_CM4_MPU/port.c **** }
 1100              		.loc 1 619 2 is_stmt 1 view .LVU280
 619:Middlewares/Third_Party/FreeRTOS/Source/portable/GCC/ARM_CM4_MPU/port.c **** }
 1101              		.loc 1 619 28 is_stmt 0 view .LVU281
 1102 001a 0723     		movs	r3, #7
 1103 001c 1361     		str	r3, [r2, #16]
 620:Middlewares/Third_Party/FreeRTOS/Source/portable/GCC/ARM_CM4_MPU/port.c **** /*-----------------------------------------------------------*/
 1104              		.loc 1 620 1 view .LVU282
 1105 001e 7047     		bx	lr
 1106              	.L62:
 1107              		.align	2
 1108              	.L61:
 1109 0020 00000000 		.word	SystemCoreClock
 1110 0024 D34D6210 		.word	274877907
 1111              		.cfi_endproc
 1112              	.LFE15:
 1114              		.section	privileged_functions
 1115              		.align	1
 1116              		.global	xPortStartScheduler
 1117              		.syntax unified
 1118              		.thumb
 1119              		.thumb_func
 1121              	xPortStartScheduler:
 1122              	.LFB9:
 377:Middlewares/Third_Party/FreeRTOS/Source/portable/GCC/ARM_CM4_MPU/port.c **** 	/* configMAX_SYSCALL_INTERRUPT_PRIORITY must not be set to 0.  See
 1123              		.loc 1 377 1 is_stmt 1 view -0
 1124              		.cfi_startproc
 1125              		@ args = 0, pretend = 0, frame = 8
 1126              		@ frame_needed = 0, uses_anonymous_args = 0
 1127 03a2 30B5     		push	{r4, r5, lr}
 1128              		.cfi_def_cfa_offset 12
 1129              		.cfi_offset 4, -12
 1130              		.cfi_offset 5, -8
 1131              		.cfi_offset 14, -4
 1132 03a4 83B0     		sub	sp, sp, #12
 1133              		.cfi_def_cfa_offset 24
 380:Middlewares/Third_Party/FreeRTOS/Source/portable/GCC/ARM_CM4_MPU/port.c **** 
 1134              		.loc 1 380 2 view .LVU284
 380:Middlewares/Third_Party/FreeRTOS/Source/portable/GCC/ARM_CM4_MPU/port.c **** 
 1135              		.loc 1 380 58 view .LVU285
 1136              	.LBB33:
 384:Middlewares/Third_Party/FreeRTOS/Source/portable/GCC/ARM_CM4_MPU/port.c **** 		volatile uint8_t * const pucFirstUserPriorityRegister = ( volatile uint8_t * const ) ( portNVIC_I
ARM GAS  /tmp/ccb11GdC.s 			page 45


 1137              		.loc 1 384 3 view .LVU286
 385:Middlewares/Third_Party/FreeRTOS/Source/portable/GCC/ARM_CM4_MPU/port.c **** 		volatile uint8_t ucMaxPriorityValue;
 1138              		.loc 1 385 3 view .LVU287
 1139              	.LVL65:
 386:Middlewares/Third_Party/FreeRTOS/Source/portable/GCC/ARM_CM4_MPU/port.c **** 
 1140              		.loc 1 386 3 view .LVU288
 394:Middlewares/Third_Party/FreeRTOS/Source/portable/GCC/ARM_CM4_MPU/port.c **** 
 1141              		.loc 1 394 3 view .LVU289
 394:Middlewares/Third_Party/FreeRTOS/Source/portable/GCC/ARM_CM4_MPU/port.c **** 
 1142              		.loc 1 394 24 is_stmt 0 view .LVU290
 1143 03a6 354B     		ldr	r3, .L69
 1144 03a8 1A78     		ldrb	r2, [r3]	@ zero_extendqisi2
 1145 03aa D2B2     		uxtb	r2, r2
 394:Middlewares/Third_Party/FreeRTOS/Source/portable/GCC/ARM_CM4_MPU/port.c **** 
 1146              		.loc 1 394 22 view .LVU291
 1147 03ac 0192     		str	r2, [sp, #4]
 398:Middlewares/Third_Party/FreeRTOS/Source/portable/GCC/ARM_CM4_MPU/port.c **** 
 1148              		.loc 1 398 3 is_stmt 1 view .LVU292
 398:Middlewares/Third_Party/FreeRTOS/Source/portable/GCC/ARM_CM4_MPU/port.c **** 
 1149              		.loc 1 398 33 is_stmt 0 view .LVU293
 1150 03ae FF22     		movs	r2, #255
 1151 03b0 1A70     		strb	r2, [r3]
 401:Middlewares/Third_Party/FreeRTOS/Source/portable/GCC/ARM_CM4_MPU/port.c **** 
 1152              		.loc 1 401 3 is_stmt 1 view .LVU294
 401:Middlewares/Third_Party/FreeRTOS/Source/portable/GCC/ARM_CM4_MPU/port.c **** 
 1153              		.loc 1 401 24 is_stmt 0 view .LVU295
 1154 03b2 1B78     		ldrb	r3, [r3]	@ zero_extendqisi2
 1155 03b4 DBB2     		uxtb	r3, r3
 401:Middlewares/Third_Party/FreeRTOS/Source/portable/GCC/ARM_CM4_MPU/port.c **** 
 1156              		.loc 1 401 22 view .LVU296
 1157 03b6 8DF80330 		strb	r3, [sp, #3]
 404:Middlewares/Third_Party/FreeRTOS/Source/portable/GCC/ARM_CM4_MPU/port.c **** 
 1158              		.loc 1 404 3 is_stmt 1 view .LVU297
 404:Middlewares/Third_Party/FreeRTOS/Source/portable/GCC/ARM_CM4_MPU/port.c **** 
 1159              		.loc 1 404 63 is_stmt 0 view .LVU298
 1160 03ba 9DF80330 		ldrb	r3, [sp, #3]	@ zero_extendqisi2
 1161 03be 03F05003 		and	r3, r3, #80
 404:Middlewares/Third_Party/FreeRTOS/Source/portable/GCC/ARM_CM4_MPU/port.c **** 
 1162              		.loc 1 404 24 view .LVU299
 1163 03c2 2F4A     		ldr	r2, .L69+4
 1164 03c4 1370     		strb	r3, [r2]
 408:Middlewares/Third_Party/FreeRTOS/Source/portable/GCC/ARM_CM4_MPU/port.c **** 		while( ( ucMaxPriorityValue & portTOP_BIT_OF_BYTE ) == portTOP_BIT_OF_BYTE )
 1165              		.loc 1 408 3 is_stmt 1 view .LVU300
 408:Middlewares/Third_Party/FreeRTOS/Source/portable/GCC/ARM_CM4_MPU/port.c **** 		while( ( ucMaxPriorityValue & portTOP_BIT_OF_BYTE ) == portTOP_BIT_OF_BYTE )
 1166              		.loc 1 408 22 is_stmt 0 view .LVU301
 1167 03c6 2F4B     		ldr	r3, .L69+8
 1168 03c8 0722     		movs	r2, #7
 1169 03ca 1A60     		str	r2, [r3]
 409:Middlewares/Third_Party/FreeRTOS/Source/portable/GCC/ARM_CM4_MPU/port.c **** 		{
 1170              		.loc 1 409 3 is_stmt 1 view .LVU302
 409:Middlewares/Third_Party/FreeRTOS/Source/portable/GCC/ARM_CM4_MPU/port.c **** 		{
 1171              		.loc 1 409 8 is_stmt 0 view .LVU303
 1172 03cc 09E0     		b	.L64
 1173              	.L65:
 411:Middlewares/Third_Party/FreeRTOS/Source/portable/GCC/ARM_CM4_MPU/port.c **** 			ucMaxPriorityValue <<= ( uint8_t ) 0x01;
 1174              		.loc 1 411 4 is_stmt 1 view .LVU304
 411:Middlewares/Third_Party/FreeRTOS/Source/portable/GCC/ARM_CM4_MPU/port.c **** 			ucMaxPriorityValue <<= ( uint8_t ) 0x01;
ARM GAS  /tmp/ccb11GdC.s 			page 46


 1175              		.loc 1 411 22 is_stmt 0 view .LVU305
 1176 03ce 2D4A     		ldr	r2, .L69+8
 1177 03d0 1368     		ldr	r3, [r2]
 1178 03d2 013B     		subs	r3, r3, #1
 1179 03d4 1360     		str	r3, [r2]
 412:Middlewares/Third_Party/FreeRTOS/Source/portable/GCC/ARM_CM4_MPU/port.c **** 		}
 1180              		.loc 1 412 4 is_stmt 1 view .LVU306
 412:Middlewares/Third_Party/FreeRTOS/Source/portable/GCC/ARM_CM4_MPU/port.c **** 		}
 1181              		.loc 1 412 23 is_stmt 0 view .LVU307
 1182 03d6 9DF80330 		ldrb	r3, [sp, #3]	@ zero_extendqisi2
 1183 03da 5B00     		lsls	r3, r3, #1
 1184 03dc DBB2     		uxtb	r3, r3
 1185 03de 8DF80330 		strb	r3, [sp, #3]
 1186              	.L64:
 409:Middlewares/Third_Party/FreeRTOS/Source/portable/GCC/ARM_CM4_MPU/port.c **** 		{
 1187              		.loc 1 409 55 is_stmt 1 view .LVU308
 409:Middlewares/Third_Party/FreeRTOS/Source/portable/GCC/ARM_CM4_MPU/port.c **** 		{
 1188              		.loc 1 409 31 is_stmt 0 view .LVU309
 1189 03e2 9DF80330 		ldrb	r3, [sp, #3]	@ zero_extendqisi2
 409:Middlewares/Third_Party/FreeRTOS/Source/portable/GCC/ARM_CM4_MPU/port.c **** 		{
 1190              		.loc 1 409 55 view .LVU310
 1191 03e6 13F0800F 		tst	r3, #128
 1192 03ea F0D1     		bne	.L65
 429:Middlewares/Third_Party/FreeRTOS/Source/portable/GCC/ARM_CM4_MPU/port.c **** 		}
 1193              		.loc 1 429 4 is_stmt 1 view .LVU311
 1194 03ec 254B     		ldr	r3, .L69+8
 1195 03ee 1B68     		ldr	r3, [r3]
 1196 03f0 032B     		cmp	r3, #3
 1197 03f2 08D0     		beq	.L66
 429:Middlewares/Third_Party/FreeRTOS/Source/portable/GCC/ARM_CM4_MPU/port.c **** 		}
 1198              		.loc 1 429 4 view .LVU312
 1199              	.LBB34:
 1200              	.LBI34:
 250:Middlewares/Third_Party/FreeRTOS/Source/portable/GCC/ARM_CM4_MPU/portmacro.h **** {
 1201              		.loc 2 250 30 view .LVU313
 1202              	.LBB35:
 252:Middlewares/Third_Party/FreeRTOS/Source/portable/GCC/ARM_CM4_MPU/portmacro.h **** 
 1203              		.loc 2 252 1 view .LVU314
 254:Middlewares/Third_Party/FreeRTOS/Source/portable/GCC/ARM_CM4_MPU/portmacro.h **** 	(
 1204              		.loc 2 254 2 view .LVU315
 1205              		.syntax unified
 1206              	@ 254 "Middlewares/Third_Party/FreeRTOS/Source/portable/GCC/ARM_CM4_MPU/portmacro.h" 1
 1207 03f4 4FF05003 			mov r3, #80												
 1208 03f8 83F31188 		msr basepri, r3											
 1209 03fc BFF36F8F 		isb														
 1210 0400 BFF34F8F 		dsb														
 1211              	
 1212              	@ 0 "" 2
 1213              	.LVL66:
 1214              		.thumb
 1215              		.syntax unified
 1216              	.L67:
 254:Middlewares/Third_Party/FreeRTOS/Source/portable/GCC/ARM_CM4_MPU/portmacro.h **** 	(
 1217              		.loc 2 254 2 is_stmt 0 view .LVU316
 1218              	.LBE35:
 1219              	.LBE34:
 429:Middlewares/Third_Party/FreeRTOS/Source/portable/GCC/ARM_CM4_MPU/port.c **** 		}
ARM GAS  /tmp/ccb11GdC.s 			page 47


 1220              		.loc 1 429 4 is_stmt 1 discriminator 2 view .LVU317
 429:Middlewares/Third_Party/FreeRTOS/Source/portable/GCC/ARM_CM4_MPU/port.c **** 		}
 1221              		.loc 1 429 4 discriminator 2 view .LVU318
 1222 0404 FEE7     		b	.L67
 1223              	.L66:
 429:Middlewares/Third_Party/FreeRTOS/Source/portable/GCC/ARM_CM4_MPU/port.c **** 		}
 1224              		.loc 1 429 85 discriminator 2 view .LVU319
 435:Middlewares/Third_Party/FreeRTOS/Source/portable/GCC/ARM_CM4_MPU/port.c **** 		ulMaxPRIGROUPValue &= portPRIORITY_GROUP_MASK;
 1225              		.loc 1 435 3 discriminator 2 view .LVU320
 435:Middlewares/Third_Party/FreeRTOS/Source/portable/GCC/ARM_CM4_MPU/port.c **** 		ulMaxPRIGROUPValue &= portPRIORITY_GROUP_MASK;
 1226              		.loc 1 435 22 is_stmt 0 discriminator 2 view .LVU321
 1227 0406 1B02     		lsls	r3, r3, #8
 1228 0408 1E4A     		ldr	r2, .L69+8
 1229 040a 1360     		str	r3, [r2]
 436:Middlewares/Third_Party/FreeRTOS/Source/portable/GCC/ARM_CM4_MPU/port.c **** 
 1230              		.loc 1 436 3 is_stmt 1 discriminator 2 view .LVU322
 436:Middlewares/Third_Party/FreeRTOS/Source/portable/GCC/ARM_CM4_MPU/port.c **** 
 1231              		.loc 1 436 22 is_stmt 0 discriminator 2 view .LVU323
 1232 040c 03F4E063 		and	r3, r3, #1792
 1233 0410 1360     		str	r3, [r2]
 440:Middlewares/Third_Party/FreeRTOS/Source/portable/GCC/ARM_CM4_MPU/port.c **** 	}
 1234              		.loc 1 440 3 is_stmt 1 discriminator 2 view .LVU324
 440:Middlewares/Third_Party/FreeRTOS/Source/portable/GCC/ARM_CM4_MPU/port.c **** 	}
 1235              		.loc 1 440 33 is_stmt 0 discriminator 2 view .LVU325
 1236 0412 019B     		ldr	r3, [sp, #4]
 1237 0414 DBB2     		uxtb	r3, r3
 1238 0416 194A     		ldr	r2, .L69
 1239 0418 1370     		strb	r3, [r2]
 1240              	.LBE33:
 447:Middlewares/Third_Party/FreeRTOS/Source/portable/GCC/ARM_CM4_MPU/port.c **** 	portNVIC_SYSPRI2_REG |= portNVIC_SYSTICK_PRI;
 1241              		.loc 1 447 2 is_stmt 1 discriminator 2 view .LVU326
 1242 041a 4FF0E024 		mov	r4, #-536813568
 1243 041e D4F8203D 		ldr	r3, [r4, #3360]
 447:Middlewares/Third_Party/FreeRTOS/Source/portable/GCC/ARM_CM4_MPU/port.c **** 	portNVIC_SYSPRI2_REG |= portNVIC_SYSTICK_PRI;
 1244              		.loc 1 447 23 is_stmt 0 discriminator 2 view .LVU327
 1245 0422 43F47003 		orr	r3, r3, #15728640
 1246 0426 C4F8203D 		str	r3, [r4, #3360]
 448:Middlewares/Third_Party/FreeRTOS/Source/portable/GCC/ARM_CM4_MPU/port.c **** 
 1247              		.loc 1 448 2 is_stmt 1 discriminator 2 view .LVU328
 1248 042a D4F8203D 		ldr	r3, [r4, #3360]
 448:Middlewares/Third_Party/FreeRTOS/Source/portable/GCC/ARM_CM4_MPU/port.c **** 
 1249              		.loc 1 448 23 is_stmt 0 discriminator 2 view .LVU329
 1250 042e 43F07043 		orr	r3, r3, #-268435456
 1251 0432 C4F8203D 		str	r3, [r4, #3360]
 451:Middlewares/Third_Party/FreeRTOS/Source/portable/GCC/ARM_CM4_MPU/port.c **** 
 1252              		.loc 1 451 2 is_stmt 1 discriminator 2 view .LVU330
 1253 0436 FFF7EEFD 		bl	prvSetupMPU
 1254              	.LVL67:
 455:Middlewares/Third_Party/FreeRTOS/Source/portable/GCC/ARM_CM4_MPU/port.c **** 
 1255              		.loc 1 455 2 discriminator 2 view .LVU331
 1256 043a FFF7FEFF 		bl	vPortSetupTimerInterrupt
 1257              	.LVL68:
 458:Middlewares/Third_Party/FreeRTOS/Source/portable/GCC/ARM_CM4_MPU/port.c **** 
 1258              		.loc 1 458 2 discriminator 2 view .LVU332
 458:Middlewares/Third_Party/FreeRTOS/Source/portable/GCC/ARM_CM4_MPU/port.c **** 
 1259              		.loc 1 458 20 is_stmt 0 discriminator 2 view .LVU333
 1260 043e 0025     		movs	r5, #0
ARM GAS  /tmp/ccb11GdC.s 			page 48


 1261 0440 114B     		ldr	r3, .L69+12
 1262 0442 1D60     		str	r5, [r3]
 461:Middlewares/Third_Party/FreeRTOS/Source/portable/GCC/ARM_CM4_MPU/port.c **** 
 1263              		.loc 1 461 2 is_stmt 1 discriminator 2 view .LVU334
 1264 0444 FFF7FEFF 		bl	vPortEnableVFP
 1265              	.LVL69:
 464:Middlewares/Third_Party/FreeRTOS/Source/portable/GCC/ARM_CM4_MPU/port.c **** 
 1266              		.loc 1 464 2 discriminator 2 view .LVU335
 1267 0448 D4F8343F 		ldr	r3, [r4, #3892]
 464:Middlewares/Third_Party/FreeRTOS/Source/portable/GCC/ARM_CM4_MPU/port.c **** 
 1268              		.loc 1 464 17 is_stmt 0 discriminator 2 view .LVU336
 1269 044c 43F04043 		orr	r3, r3, #-1073741824
 1270 0450 C4F8343F 		str	r3, [r4, #3892]
 470:Middlewares/Third_Party/FreeRTOS/Source/portable/GCC/ARM_CM4_MPU/port.c **** 					" ldr r0, =0xE000ED08 	\n" /* Use the NVIC offset register to locate the stack. */
 1271              		.loc 1 470 2 is_stmt 1 discriminator 2 view .LVU337
 1272              		.syntax unified
 1273              	@ 470 "Middlewares/Third_Party/FreeRTOS/Source/portable/GCC/ARM_CM4_MPU/port.c" 1
 1274 0454 0D48     		 ldr r0, =0xE000ED08 	
 1275 0456 0068     	 ldr r0, [r0] 			
 1276 0458 0068     	 ldr r0, [r0] 			
 1277 045a 80F30888 	 msr msp, r0			
 1278 045e 4FF00000 	 mov r0, #0			
 1279 0462 80F31488 	 msr control, r0		
 1280 0466 62B6     	 cpsie i				
 1281 0468 61B6     	 cpsie f				
 1282 046a BFF34F8F 	 dsb					
 1283 046e BFF36F8F 	 isb					
 1284 0472 00DF     	 svc #0				
 1285 0474 00BF     	 nop					
 1286              	
 1287              	@ 0 "" 2
 486:Middlewares/Third_Party/FreeRTOS/Source/portable/GCC/ARM_CM4_MPU/port.c **** }
 1288              		.loc 1 486 2 discriminator 2 view .LVU338
 487:Middlewares/Third_Party/FreeRTOS/Source/portable/GCC/ARM_CM4_MPU/port.c **** /*-----------------------------------------------------------*/
 1289              		.loc 1 487 1 is_stmt 0 discriminator 2 view .LVU339
 1290              		.thumb
 1291              		.syntax unified
 1292 0476 2846     		mov	r0, r5
 1293 0478 03B0     		add	sp, sp, #12
 1294              		.cfi_def_cfa_offset 12
 1295              		@ sp needed
 1296 047a 30BD     		pop	{r4, r5, pc}
 1297              	.L70:
 1298              		.align	2
 1299              	.L69:
 1300 047c 00E400E0 		.word	-536812544
 1301 0480 00000000 		.word	ucMaxSysCallPriority
 1302 0484 00000000 		.word	ulMaxPRIGROUPValue
 1303 0488 00000000 		.word	uxCriticalNesting
 1304              		.cfi_endproc
 1305              	.LFE9:
 1307              		.section	.text.xIsPrivileged,"ax",%progbits
 1308              		.align	1
 1309              		.global	xIsPrivileged
 1310              		.syntax unified
 1311              		.thumb
 1312              		.thumb_func
ARM GAS  /tmp/ccb11GdC.s 			page 49


 1314              	xIsPrivileged:
 1315              	.LFB19:
 736:Middlewares/Third_Party/FreeRTOS/Source/portable/GCC/ARM_CM4_MPU/port.c **** 	__asm volatile
 1316              		.loc 1 736 1 is_stmt 1 view -0
 1317              		.cfi_startproc
 1318              		@ Naked Function: prologue and epilogue provided by programmer.
 1319              		@ args = 0, pretend = 0, frame = 0
 1320              		@ frame_needed = 0, uses_anonymous_args = 0
 737:Middlewares/Third_Party/FreeRTOS/Source/portable/GCC/ARM_CM4_MPU/port.c **** 	(
 1321              		.loc 1 737 2 view .LVU341
 1322              		.syntax unified
 1323              	@ 737 "Middlewares/Third_Party/FreeRTOS/Source/portable/GCC/ARM_CM4_MPU/port.c" 1
 1324 0000 EFF31480 			mrs r0, control							
 1325 0004 10F0010F 		tst r0, #1								
 1326 0008 14BF     		ite ne									
 1327 000a 0020     		movne r0, #0							
 1328 000c 0120     		moveq r0, #1							
 1329 000e 7047     		bx lr									
 1330              												
 1331              		.align 4								
 1332              	
 1333              	@ 0 "" 2
 749:Middlewares/Third_Party/FreeRTOS/Source/portable/GCC/ARM_CM4_MPU/port.c **** /*-----------------------------------------------------------*/
 1334              		.loc 1 749 1 is_stmt 0 view .LVU342
 1335              		.thumb
 1336              		.syntax unified
 1337              		.cfi_endproc
 1338              	.LFE19:
 1340              		.section	.text.vResetPrivilege,"ax",%progbits
 1341              		.align	1
 1342              		.global	vResetPrivilege
 1343              		.syntax unified
 1344              		.thumb
 1345              		.thumb_func
 1347              	vResetPrivilege:
 1348              	.LFB20:
 753:Middlewares/Third_Party/FreeRTOS/Source/portable/GCC/ARM_CM4_MPU/port.c **** 	__asm volatile
 1349              		.loc 1 753 1 is_stmt 1 view -0
 1350              		.cfi_startproc
 1351              		@ Naked Function: prologue and epilogue provided by programmer.
 1352              		@ args = 0, pretend = 0, frame = 0
 1353              		@ frame_needed = 0, uses_anonymous_args = 0
 754:Middlewares/Third_Party/FreeRTOS/Source/portable/GCC/ARM_CM4_MPU/port.c **** 	(
 1354              		.loc 1 754 2 view .LVU344
 1355              		.syntax unified
 1356              	@ 754 "Middlewares/Third_Party/FreeRTOS/Source/portable/GCC/ARM_CM4_MPU/port.c" 1
 1357 0000 EFF31480 			mrs r0, control							
 1358 0004 40F00100 		orr r0, #1								
 1359 0008 80F31488 		msr control, r0							
 1360 000c 7047     		bx lr									
 1361              	
 1362              	@ 0 "" 2
 762:Middlewares/Third_Party/FreeRTOS/Source/portable/GCC/ARM_CM4_MPU/port.c **** /*-----------------------------------------------------------*/
 1363              		.loc 1 762 1 is_stmt 0 view .LVU345
 1364              		.thumb
 1365              		.syntax unified
 1366              		.cfi_endproc
ARM GAS  /tmp/ccb11GdC.s 			page 50


 1367              	.LFE20:
 1369              		.section	.text.vPortValidateInterruptPriority,"ax",%progbits
 1370              		.align	1
 1371              		.global	vPortValidateInterruptPriority
 1372              		.syntax unified
 1373              		.thumb
 1374              		.thumb_func
 1376              	vPortValidateInterruptPriority:
 1377              	.LFB22:
 870:Middlewares/Third_Party/FreeRTOS/Source/portable/GCC/ARM_CM4_MPU/port.c **** /*-----------------------------------------------------------*/
 871:Middlewares/Third_Party/FreeRTOS/Source/portable/GCC/ARM_CM4_MPU/port.c **** 
 872:Middlewares/Third_Party/FreeRTOS/Source/portable/GCC/ARM_CM4_MPU/port.c **** #if( configASSERT_DEFINED == 1 )
 873:Middlewares/Third_Party/FreeRTOS/Source/portable/GCC/ARM_CM4_MPU/port.c **** 
 874:Middlewares/Third_Party/FreeRTOS/Source/portable/GCC/ARM_CM4_MPU/port.c **** 	void vPortValidateInterruptPriority( void )
 875:Middlewares/Third_Party/FreeRTOS/Source/portable/GCC/ARM_CM4_MPU/port.c **** 	{
 1378              		.loc 1 875 2 is_stmt 1 view -0
 1379              		.cfi_startproc
 1380              		@ args = 0, pretend = 0, frame = 0
 1381              		@ frame_needed = 0, uses_anonymous_args = 0
 1382              		@ link register save eliminated.
 876:Middlewares/Third_Party/FreeRTOS/Source/portable/GCC/ARM_CM4_MPU/port.c **** 	uint32_t ulCurrentInterrupt;
 1383              		.loc 1 876 2 view .LVU347
 877:Middlewares/Third_Party/FreeRTOS/Source/portable/GCC/ARM_CM4_MPU/port.c **** 	uint8_t ucCurrentPriority;
 1384              		.loc 1 877 2 view .LVU348
 878:Middlewares/Third_Party/FreeRTOS/Source/portable/GCC/ARM_CM4_MPU/port.c **** 
 879:Middlewares/Third_Party/FreeRTOS/Source/portable/GCC/ARM_CM4_MPU/port.c **** 		/* Obtain the number of the currently executing interrupt. */
 880:Middlewares/Third_Party/FreeRTOS/Source/portable/GCC/ARM_CM4_MPU/port.c **** 		__asm volatile( "mrs %0, ipsr" : "=r"( ulCurrentInterrupt ) :: "memory" );
 1385              		.loc 1 880 3 view .LVU349
 1386              		.syntax unified
 1387              	@ 880 "Middlewares/Third_Party/FreeRTOS/Source/portable/GCC/ARM_CM4_MPU/port.c" 1
 1388 0000 EFF30583 		mrs r3, ipsr
 1389              	@ 0 "" 2
 1390              	.LVL70:
 881:Middlewares/Third_Party/FreeRTOS/Source/portable/GCC/ARM_CM4_MPU/port.c **** 
 882:Middlewares/Third_Party/FreeRTOS/Source/portable/GCC/ARM_CM4_MPU/port.c **** 		/* Is the interrupt number a user defined interrupt? */
 883:Middlewares/Third_Party/FreeRTOS/Source/portable/GCC/ARM_CM4_MPU/port.c **** 		if( ulCurrentInterrupt >= portFIRST_USER_INTERRUPT_NUMBER )
 1391              		.loc 1 883 3 view .LVU350
 1392              		.loc 1 883 5 is_stmt 0 view .LVU351
 1393              		.thumb
 1394              		.syntax unified
 1395 0004 0F2B     		cmp	r3, #15
 1396 0006 0FD9     		bls	.L74
 884:Middlewares/Third_Party/FreeRTOS/Source/portable/GCC/ARM_CM4_MPU/port.c **** 		{
 885:Middlewares/Third_Party/FreeRTOS/Source/portable/GCC/ARM_CM4_MPU/port.c **** 			/* Look up the interrupt's priority. */
 886:Middlewares/Third_Party/FreeRTOS/Source/portable/GCC/ARM_CM4_MPU/port.c **** 			ucCurrentPriority = pcInterruptPriorityRegisters[ ulCurrentInterrupt ];
 1397              		.loc 1 886 4 is_stmt 1 view .LVU352
 1398              		.loc 1 886 52 is_stmt 0 view .LVU353
 1399 0008 114A     		ldr	r2, .L78
 1400              		.loc 1 886 22 view .LVU354
 1401 000a 9B5C     		ldrb	r3, [r3, r2]	@ zero_extendqisi2
 1402              	.LVL71:
 1403              		.loc 1 886 22 view .LVU355
 1404 000c DBB2     		uxtb	r3, r3
 1405              	.LVL72:
 887:Middlewares/Third_Party/FreeRTOS/Source/portable/GCC/ARM_CM4_MPU/port.c **** 
 888:Middlewares/Third_Party/FreeRTOS/Source/portable/GCC/ARM_CM4_MPU/port.c **** 			/* The following assertion will fail if a service routine (ISR) for
 889:Middlewares/Third_Party/FreeRTOS/Source/portable/GCC/ARM_CM4_MPU/port.c **** 			an interrupt that has been assigned a priority above
ARM GAS  /tmp/ccb11GdC.s 			page 51


 890:Middlewares/Third_Party/FreeRTOS/Source/portable/GCC/ARM_CM4_MPU/port.c **** 			configMAX_SYSCALL_INTERRUPT_PRIORITY calls an ISR safe FreeRTOS API
 891:Middlewares/Third_Party/FreeRTOS/Source/portable/GCC/ARM_CM4_MPU/port.c **** 			function.  ISR safe FreeRTOS API functions must *only* be called
 892:Middlewares/Third_Party/FreeRTOS/Source/portable/GCC/ARM_CM4_MPU/port.c **** 			from interrupts that have been assigned a priority at or below
 893:Middlewares/Third_Party/FreeRTOS/Source/portable/GCC/ARM_CM4_MPU/port.c **** 			configMAX_SYSCALL_INTERRUPT_PRIORITY.
 894:Middlewares/Third_Party/FreeRTOS/Source/portable/GCC/ARM_CM4_MPU/port.c **** 
 895:Middlewares/Third_Party/FreeRTOS/Source/portable/GCC/ARM_CM4_MPU/port.c **** 			Numerically low interrupt priority numbers represent logically high
 896:Middlewares/Third_Party/FreeRTOS/Source/portable/GCC/ARM_CM4_MPU/port.c **** 			interrupt priorities, therefore the priority of the interrupt must
 897:Middlewares/Third_Party/FreeRTOS/Source/portable/GCC/ARM_CM4_MPU/port.c **** 			be set to a value equal to or numerically *higher* than
 898:Middlewares/Third_Party/FreeRTOS/Source/portable/GCC/ARM_CM4_MPU/port.c **** 			configMAX_SYSCALL_INTERRUPT_PRIORITY.
 899:Middlewares/Third_Party/FreeRTOS/Source/portable/GCC/ARM_CM4_MPU/port.c **** 
 900:Middlewares/Third_Party/FreeRTOS/Source/portable/GCC/ARM_CM4_MPU/port.c **** 			Interrupts that	use the FreeRTOS API must not be left at their
 901:Middlewares/Third_Party/FreeRTOS/Source/portable/GCC/ARM_CM4_MPU/port.c **** 			default priority of	zero as that is the highest possible priority,
 902:Middlewares/Third_Party/FreeRTOS/Source/portable/GCC/ARM_CM4_MPU/port.c **** 			which is guaranteed to be above configMAX_SYSCALL_INTERRUPT_PRIORITY,
 903:Middlewares/Third_Party/FreeRTOS/Source/portable/GCC/ARM_CM4_MPU/port.c **** 			and	therefore also guaranteed to be invalid.
 904:Middlewares/Third_Party/FreeRTOS/Source/portable/GCC/ARM_CM4_MPU/port.c **** 
 905:Middlewares/Third_Party/FreeRTOS/Source/portable/GCC/ARM_CM4_MPU/port.c **** 			FreeRTOS maintains separate thread and ISR API functions to ensure
 906:Middlewares/Third_Party/FreeRTOS/Source/portable/GCC/ARM_CM4_MPU/port.c **** 			interrupt entry is as fast and simple as possible.
 907:Middlewares/Third_Party/FreeRTOS/Source/portable/GCC/ARM_CM4_MPU/port.c **** 
 908:Middlewares/Third_Party/FreeRTOS/Source/portable/GCC/ARM_CM4_MPU/port.c **** 			The following links provide detailed information:
 909:Middlewares/Third_Party/FreeRTOS/Source/portable/GCC/ARM_CM4_MPU/port.c **** 			http://www.freertos.org/RTOS-Cortex-M3-M4.html
 910:Middlewares/Third_Party/FreeRTOS/Source/portable/GCC/ARM_CM4_MPU/port.c **** 			http://www.freertos.org/FAQHelp.html */
 911:Middlewares/Third_Party/FreeRTOS/Source/portable/GCC/ARM_CM4_MPU/port.c **** 			configASSERT( ucCurrentPriority >= ucMaxSysCallPriority );
 1406              		.loc 1 911 4 is_stmt 1 view .LVU356
 1407 000e 114A     		ldr	r2, .L78+4
 1408 0010 1278     		ldrb	r2, [r2]	@ zero_extendqisi2
 1409 0012 9A42     		cmp	r2, r3
 1410 0014 08D9     		bls	.L74
 1411              		.loc 1 911 4 view .LVU357
 1412              	.LBB36:
 1413              	.LBI36:
 250:Middlewares/Third_Party/FreeRTOS/Source/portable/GCC/ARM_CM4_MPU/portmacro.h **** {
 1414              		.loc 2 250 30 view .LVU358
 1415              	.LBB37:
 252:Middlewares/Third_Party/FreeRTOS/Source/portable/GCC/ARM_CM4_MPU/portmacro.h **** 
 1416              		.loc 2 252 1 view .LVU359
 254:Middlewares/Third_Party/FreeRTOS/Source/portable/GCC/ARM_CM4_MPU/portmacro.h **** 	(
 1417              		.loc 2 254 2 view .LVU360
 1418              		.syntax unified
 1419              	@ 254 "Middlewares/Third_Party/FreeRTOS/Source/portable/GCC/ARM_CM4_MPU/portmacro.h" 1
 1420 0016 4FF05003 			mov r3, #80												
 1421 001a 83F31188 		msr basepri, r3											
 1422 001e BFF36F8F 		isb														
 1423 0022 BFF34F8F 		dsb														
 1424              	
 1425              	@ 0 "" 2
 1426              	.LVL73:
 1427              		.thumb
 1428              		.syntax unified
 1429              	.L75:
 254:Middlewares/Third_Party/FreeRTOS/Source/portable/GCC/ARM_CM4_MPU/portmacro.h **** 	(
 1430              		.loc 2 254 2 is_stmt 0 view .LVU361
 1431              	.LBE37:
 1432              	.LBE36:
 1433              		.loc 1 911 4 is_stmt 1 discriminator 1 view .LVU362
 1434              		.loc 1 911 4 discriminator 1 view .LVU363
 1435 0026 FEE7     		b	.L75
 1436              	.LVL74:
ARM GAS  /tmp/ccb11GdC.s 			page 52


 1437              	.L74:
 1438              		.loc 1 911 61 discriminator 2 view .LVU364
 912:Middlewares/Third_Party/FreeRTOS/Source/portable/GCC/ARM_CM4_MPU/port.c **** 		}
 913:Middlewares/Third_Party/FreeRTOS/Source/portable/GCC/ARM_CM4_MPU/port.c **** 
 914:Middlewares/Third_Party/FreeRTOS/Source/portable/GCC/ARM_CM4_MPU/port.c **** 		/* Priority grouping:  The interrupt controller (NVIC) allows the bits
 915:Middlewares/Third_Party/FreeRTOS/Source/portable/GCC/ARM_CM4_MPU/port.c **** 		that define each interrupt's priority to be split between bits that
 916:Middlewares/Third_Party/FreeRTOS/Source/portable/GCC/ARM_CM4_MPU/port.c **** 		define the interrupt's pre-emption priority bits and bits that define
 917:Middlewares/Third_Party/FreeRTOS/Source/portable/GCC/ARM_CM4_MPU/port.c **** 		the interrupt's sub-priority.  For simplicity all bits must be defined
 918:Middlewares/Third_Party/FreeRTOS/Source/portable/GCC/ARM_CM4_MPU/port.c **** 		to be pre-emption priority bits.  The following assertion will fail if
 919:Middlewares/Third_Party/FreeRTOS/Source/portable/GCC/ARM_CM4_MPU/port.c **** 		this is not the case (if some bits represent a sub-priority).
 920:Middlewares/Third_Party/FreeRTOS/Source/portable/GCC/ARM_CM4_MPU/port.c **** 
 921:Middlewares/Third_Party/FreeRTOS/Source/portable/GCC/ARM_CM4_MPU/port.c **** 		If the application only uses CMSIS libraries for interrupt
 922:Middlewares/Third_Party/FreeRTOS/Source/portable/GCC/ARM_CM4_MPU/port.c **** 		configuration then the correct setting can be achieved on all Cortex-M
 923:Middlewares/Third_Party/FreeRTOS/Source/portable/GCC/ARM_CM4_MPU/port.c **** 		devices by calling NVIC_SetPriorityGrouping( 0 ); before starting the
 924:Middlewares/Third_Party/FreeRTOS/Source/portable/GCC/ARM_CM4_MPU/port.c **** 		scheduler.  Note however that some vendor specific peripheral libraries
 925:Middlewares/Third_Party/FreeRTOS/Source/portable/GCC/ARM_CM4_MPU/port.c **** 		assume a non-zero priority group setting, in which cases using a value
 926:Middlewares/Third_Party/FreeRTOS/Source/portable/GCC/ARM_CM4_MPU/port.c **** 		of zero will result in unpredicable behaviour. */
 927:Middlewares/Third_Party/FreeRTOS/Source/portable/GCC/ARM_CM4_MPU/port.c **** 		configASSERT( ( portAIRCR_REG & portPRIORITY_GROUP_MASK ) <= ulMaxPRIGROUPValue );
 1439              		.loc 1 927 3 discriminator 2 view .LVU365
 1440 0028 4FF0E023 		mov	r3, #-536813568
 1441 002c D3F80C3D 		ldr	r3, [r3, #3340]
 1442 0030 03F4E063 		and	r3, r3, #1792
 1443 0034 084A     		ldr	r2, .L78+8
 1444 0036 1268     		ldr	r2, [r2]
 1445 0038 9342     		cmp	r3, r2
 1446 003a 08D9     		bls	.L73
 1447              		.loc 1 927 3 view .LVU366
 1448              	.LBB38:
 1449              	.LBI38:
 250:Middlewares/Third_Party/FreeRTOS/Source/portable/GCC/ARM_CM4_MPU/portmacro.h **** {
 1450              		.loc 2 250 30 view .LVU367
 1451              	.LBB39:
 252:Middlewares/Third_Party/FreeRTOS/Source/portable/GCC/ARM_CM4_MPU/portmacro.h **** 
 1452              		.loc 2 252 1 view .LVU368
 254:Middlewares/Third_Party/FreeRTOS/Source/portable/GCC/ARM_CM4_MPU/portmacro.h **** 	(
 1453              		.loc 2 254 2 view .LVU369
 1454              		.syntax unified
 1455              	@ 254 "Middlewares/Third_Party/FreeRTOS/Source/portable/GCC/ARM_CM4_MPU/portmacro.h" 1
 1456 003c 4FF05003 			mov r3, #80												
 1457 0040 83F31188 		msr basepri, r3											
 1458 0044 BFF36F8F 		isb														
 1459 0048 BFF34F8F 		dsb														
 1460              	
 1461              	@ 0 "" 2
 1462              	.LVL75:
 1463              		.thumb
 1464              		.syntax unified
 1465              	.L77:
 254:Middlewares/Third_Party/FreeRTOS/Source/portable/GCC/ARM_CM4_MPU/portmacro.h **** 	(
 1466              		.loc 2 254 2 is_stmt 0 view .LVU370
 1467              	.LBE39:
 1468              	.LBE38:
 1469              		.loc 1 927 3 is_stmt 1 discriminator 2 view .LVU371
 1470              		.loc 1 927 3 discriminator 2 view .LVU372
 1471 004c FEE7     		b	.L77
 1472              	.L73:
 928:Middlewares/Third_Party/FreeRTOS/Source/portable/GCC/ARM_CM4_MPU/port.c **** 	}
ARM GAS  /tmp/ccb11GdC.s 			page 53


 1473              		.loc 1 928 2 is_stmt 0 view .LVU373
 1474 004e 7047     		bx	lr
 1475              	.L79:
 1476              		.align	2
 1477              	.L78:
 1478 0050 F0E300E0 		.word	-536812560
 1479 0054 00000000 		.word	ucMaxSysCallPriority
 1480 0058 00000000 		.word	ulMaxPRIGROUPValue
 1481              		.cfi_endproc
 1482              	.LFE22:
 1484              		.section	.bss.ulMaxPRIGROUPValue,"aw",%nobits
 1485              		.align	2
 1488              	ulMaxPRIGROUPValue:
 1489 0000 00000000 		.space	4
 1490              		.section	.bss.ucMaxSysCallPriority,"aw",%nobits
 1493              	ucMaxSysCallPriority:
 1494 0000 00       		.space	1
 1495              		.section	.data.uxCriticalNesting,"aw"
 1496              		.align	2
 1499              	uxCriticalNesting:
 1500 0000 AAAAAAAA 		.word	-1431655766
 1501              		.text
 1502              	.Letext0:
 1503              		.file 3 "/usr/lib/gcc/arm-none-eabi/12.2.1/include/stdint.h"
 1504              		.file 4 "Middlewares/Third_Party/FreeRTOS/Source/include/projdefs.h"
 1505              		.file 5 "Middlewares/Third_Party/FreeRTOS/Source/include/task.h"
 1506              		.file 6 "Core/Inc/FreeRTOSConfig.h"
ARM GAS  /tmp/ccb11GdC.s 			page 54

